

Microchip MPLAB XC8 Assembler V2.40 build 20220703182018 
                                                                                               Sat Feb 11 10:54:21 2023

Microchip MPLAB XC8 C Compiler v2.40 (Free license) build 20220703182018 Og1 
     1                           	processor	16F877A
     2                           	pagewidth 120
     3                           	opt	flic
     4                           	psect	idataCOMMON,global,class=CODE,delta=2,noexec
     5                           	psect	idataBANK0,global,class=CODE,delta=2,noexec
     6                           	psect	idataBANK1,global,class=CODE,delta=2,noexec
     7                           	psect	strings,global,class=STRING,delta=2,noexec
     8                           	psect	stringtext,global,reloc=256,class=STRCODE,delta=2,noexec
     9                           	psect	cinit,global,class=CODE,merge=1,delta=2
    10                           	psect	bssCOMMON,global,class=COMMON,space=1,delta=1,noexec
    11                           	psect	dataCOMMON,global,class=COMMON,space=1,delta=1,noexec
    12                           	psect	bssBANK0,global,class=BANK0,space=1,delta=1,noexec
    13                           	psect	dataBANK0,global,class=BANK0,space=1,delta=1,noexec
    14                           	psect	bssBANK1,global,class=BANK1,space=1,delta=1,noexec
    15                           	psect	dataBANK1,global,class=BANK1,space=1,delta=1,noexec
    16                           	psect	inittext,global,class=CODE,delta=2
    17                           	psect	clrtext,global,class=CODE,delta=2
    18                           	psect	cstackBANK3,global,class=BANK3,space=1,delta=1,noexec
    19                           	psect	cstackCOMMON,global,class=COMMON,space=1,delta=1,noexec
    20                           	psect	cstackBANK0,global,class=BANK0,space=1,delta=1,noexec
    21                           	psect	maintext,global,class=CODE,split=1,delta=2
    22                           	psect	text1,local,class=CODE,merge=1,delta=2
    23                           	psect	text2,local,class=CODE,merge=1,delta=2
    24                           	psect	text3,local,class=CODE,merge=1,delta=2,group=2
    25                           	psect	text4,local,class=CODE,merge=1,delta=2
    26                           	psect	text5,local,class=CODE,merge=1,delta=2
    27                           	psect	text6,local,class=CODE,merge=1,delta=2
    28                           	psect	text7,local,class=CODE,merge=1,delta=2
    29                           	psect	text8,local,class=CODE,merge=1,delta=2,group=1
    30                           	psect	text9,local,class=CODE,merge=1,delta=2,group=1
    31                           	psect	text10,local,class=CODE,merge=1,delta=2
    32                           	psect	text11,local,class=CODE,merge=1,delta=2,group=2
    33                           	psect	text12,local,class=CODE,merge=1,delta=2
    34                           	psect	text13,local,class=CODE,merge=1,delta=2
    35                           	psect	text14,local,class=CODE,merge=1,delta=2
    36                           	psect	text15,local,class=CODE,merge=1,delta=2
    37                           	psect	text16,local,class=CODE,merge=1,delta=2
    38                           	psect	text17,local,class=CODE,merge=1,delta=2
    39                           	psect	text18,local,class=CODE,merge=1,delta=2
    40                           	psect	text19,local,class=CODE,merge=1,delta=2,group=1
    41                           	psect	text20,local,class=CODE,merge=1,delta=2
    42                           	psect	text21,local,class=CODE,merge=1,delta=2
    43                           	psect	text22,local,class=CODE,merge=1,delta=2
    44                           	psect	text23,local,class=CODE,merge=1,delta=2
    45                           	psect	text24,local,class=CODE,merge=1,delta=2
    46                           	psect	text25,local,class=CODE,merge=1,delta=2
    47                           	psect	text26,local,class=CODE,merge=1,delta=2
    48                           	psect	text27,local,class=CODE,merge=1,delta=2,group=2
    49                           	psect	text28,local,class=CODE,merge=1,delta=2
    50                           	psect	text29,local,class=CODE,merge=1,delta=2
    51                           	psect	text30,local,class=CODE,merge=1,delta=2
    52                           	psect	text31,local,class=CODE,merge=1,delta=2,group=1
    53                           	psect	text32,local,class=CODE,merge=1,delta=2
    54                           	psect	text33,local,class=CODE,merge=1,delta=2
    55                           	psect	text34,local,class=CODE,merge=1,delta=2
    56                           	psect	text35,local,class=CODE,merge=1,delta=2
    57                           	psect	text36,local,class=CODE,merge=1,delta=2
    58                           	psect	text37,local,class=CODE,merge=1,delta=2
    59                           	psect	text38,local,class=CODE,merge=1,delta=2
    60                           	psect	text39,local,class=CODE,merge=1,delta=2
    61                           	psect	text40,local,class=CODE,merge=1,delta=2,group=1
    62                           	psect	text41,local,class=CODE,merge=1,delta=2,group=1
    63                           	psect	text42,local,class=CODE,merge=1,delta=2
    64                           	psect	text43,local,class=CODE,merge=1,delta=2
    65                           	psect	text44,local,class=CODE,merge=1,delta=2,group=2
    66                           	psect	text45,local,class=CODE,merge=1,delta=2
    67                           	psect	text46,local,class=CODE,merge=1,delta=2
    68                           	psect	text47,local,class=CODE,merge=1,delta=2
    69                           	psect	text48,local,class=CODE,merge=1,delta=2
    70                           	psect	text49,local,class=CODE,merge=1,delta=2
    71                           	psect	text50,local,class=CODE,merge=1,delta=2
    72                           	psect	text51,local,class=CODE,merge=1,delta=2
    73                           	psect	text52,local,class=CODE,merge=1,delta=2
    74                           	psect	text53,local,class=CODE,merge=1,delta=2
    75                           	psect	text54,local,class=CODE,merge=1,delta=2,group=1
    76                           	psect	text55,local,class=CODE,merge=1,delta=2
    77                           	psect	intentry,global,class=CODE,delta=2
    78                           	psect	config,global,abs,ovrld,class=CONFIG,space=4,delta=2,noexec
    79                           	dabs	1,0x7E,2
    80     0000                     
    81                           ; Version 2.20
    82                           ; Generated 12/02/2020 GMT
    83                           ; 
    84                           ; Copyright © 2020, Microchip Technology Inc. and its subsidiaries ("Microchip")
    85                           ; All rights reserved.
    86                           ; 
    87                           ; This software is developed by Microchip Technology Inc. and its subsidiaries ("Microch
      +                          ip").
    88                           ; 
    89                           ; Redistribution and use in source and binary forms, with or without modification, are
    90                           ; permitted provided that the following conditions are met:
    91                           ; 
    92                           ;     1. Redistributions of source code must retain the above copyright notice, this lis
      +                          t of
    93                           ;        conditions and the following disclaimer.
    94                           ; 
    95                           ;     2. Redistributions in binary form must reproduce the above copyright notice, this 
      +                          list
    96                           ;        of conditions and the following disclaimer in the documentation and/or other
    97                           ;        materials provided with the distribution.
    98                           ; 
    99                           ;     3. Microchip's name may not be used to endorse or promote products derived from th
      +                          is
   100                           ;        software without specific prior written permission.
   101                           ; 
   102                           ; THIS SOFTWARE IS PROVIDED BY MICROCHIP "AS IS" AND ANY EXPRESS OR IMPLIED WARRANTIES,
   103                           ; INCLUDING, BUT NOT LIMITED TO, THE IMPLIED WARRANTIES OF MERCHANTABILITY AND FITNESS F
      +                          OR
   104                           ; PURPOSE ARE DISCLAIMED.  IN NO EVENT SHALL MICROCHIP BE LIABLE FOR ANY DIRECT, INDIREC
      +                          T,
   105                           ; INCIDENTAL, SPECIAL, EXEMPLARY, OR CONSEQUENTIAL DAMAGES (INCLUDING BUT NOT LIMITED TO
   106                           ; PROCUREMENT OF SUBSTITUTE GOODS OR SERVICES; LOSS OF USE, DATA OR PROFITS; OR BUSINESS
   107                           ; INTERRUPTION) HOWSOEVER CAUSED AND ON ANY THEORY OF LIABILITY, WHETHER IN CONTRACT, ST
      +                          RICT
   108                           ; LIABILITY, OR TORT (INCLUDING NEGLIGENCE OR OTHERWISE) ARISING IN ANY WAY OUT OF THE U
      +                          SE OF
   109                           ; THIS SOFTWARE, EVEN IF ADVISED OF THE POSSIBILITY OF SUCH DAMAGE.
   110                           ; 
   111                           ; 
   112                           ; Code-generator required, PIC16F877A Definitions
   113                           ; 
   114                           ; SFR Addresses
   115     0000                     	;# 
   116     0001                     	;# 
   117     0002                     	;# 
   118     0003                     	;# 
   119     0004                     	;# 
   120     0005                     	;# 
   121     0006                     	;# 
   122     0007                     	;# 
   123     0008                     	;# 
   124     0009                     	;# 
   125     000A                     	;# 
   126     000B                     	;# 
   127     000C                     	;# 
   128     000D                     	;# 
   129     000E                     	;# 
   130     000E                     	;# 
   131     000F                     	;# 
   132     0010                     	;# 
   133     0011                     	;# 
   134     0012                     	;# 
   135     0013                     	;# 
   136     0014                     	;# 
   137     0015                     	;# 
   138     0015                     	;# 
   139     0016                     	;# 
   140     0017                     	;# 
   141     0018                     	;# 
   142     0019                     	;# 
   143     001A                     	;# 
   144     001B                     	;# 
   145     001B                     	;# 
   146     001C                     	;# 
   147     001D                     	;# 
   148     001E                     	;# 
   149     001F                     	;# 
   150     0081                     	;# 
   151     0085                     	;# 
   152     0086                     	;# 
   153     0087                     	;# 
   154     0088                     	;# 
   155     0089                     	;# 
   156     008C                     	;# 
   157     008D                     	;# 
   158     008E                     	;# 
   159     0091                     	;# 
   160     0092                     	;# 
   161     0093                     	;# 
   162     0094                     	;# 
   163     0098                     	;# 
   164     0099                     	;# 
   165     009C                     	;# 
   166     009D                     	;# 
   167     009E                     	;# 
   168     009F                     	;# 
   169     010C                     	;# 
   170     010D                     	;# 
   171     010E                     	;# 
   172     010F                     	;# 
   173     018C                     	;# 
   174     018D                     	;# 
   175     0000                     	;# 
   176     0001                     	;# 
   177     0002                     	;# 
   178     0003                     	;# 
   179     0004                     	;# 
   180     0005                     	;# 
   181     0006                     	;# 
   182     0007                     	;# 
   183     0008                     	;# 
   184     0009                     	;# 
   185     000A                     	;# 
   186     000B                     	;# 
   187     000C                     	;# 
   188     000D                     	;# 
   189     000E                     	;# 
   190     000E                     	;# 
   191     000F                     	;# 
   192     0010                     	;# 
   193     0011                     	;# 
   194     0012                     	;# 
   195     0013                     	;# 
   196     0014                     	;# 
   197     0015                     	;# 
   198     0015                     	;# 
   199     0016                     	;# 
   200     0017                     	;# 
   201     0018                     	;# 
   202     0019                     	;# 
   203     001A                     	;# 
   204     001B                     	;# 
   205     001B                     	;# 
   206     001C                     	;# 
   207     001D                     	;# 
   208     001E                     	;# 
   209     001F                     	;# 
   210     0081                     	;# 
   211     0085                     	;# 
   212     0086                     	;# 
   213     0087                     	;# 
   214     0088                     	;# 
   215     0089                     	;# 
   216     008C                     	;# 
   217     008D                     	;# 
   218     008E                     	;# 
   219     0091                     	;# 
   220     0092                     	;# 
   221     0093                     	;# 
   222     0094                     	;# 
   223     0098                     	;# 
   224     0099                     	;# 
   225     009C                     	;# 
   226     009D                     	;# 
   227     009E                     	;# 
   228     009F                     	;# 
   229     010C                     	;# 
   230     010D                     	;# 
   231     010E                     	;# 
   232     010F                     	;# 
   233     018C                     	;# 
   234     018D                     	;# 
   235     0000                     	;# 
   236     0001                     	;# 
   237     0002                     	;# 
   238     0003                     	;# 
   239     0004                     	;# 
   240     0005                     	;# 
   241     0006                     	;# 
   242     0007                     	;# 
   243     0008                     	;# 
   244     0009                     	;# 
   245     000A                     	;# 
   246     000B                     	;# 
   247     000C                     	;# 
   248     000D                     	;# 
   249     000E                     	;# 
   250     000E                     	;# 
   251     000F                     	;# 
   252     0010                     	;# 
   253     0011                     	;# 
   254     0012                     	;# 
   255     0013                     	;# 
   256     0014                     	;# 
   257     0015                     	;# 
   258     0015                     	;# 
   259     0016                     	;# 
   260     0017                     	;# 
   261     0018                     	;# 
   262     0019                     	;# 
   263     001A                     	;# 
   264     001B                     	;# 
   265     001B                     	;# 
   266     001C                     	;# 
   267     001D                     	;# 
   268     001E                     	;# 
   269     001F                     	;# 
   270     0081                     	;# 
   271     0085                     	;# 
   272     0086                     	;# 
   273     0087                     	;# 
   274     0088                     	;# 
   275     0089                     	;# 
   276     008C                     	;# 
   277     008D                     	;# 
   278     008E                     	;# 
   279     0091                     	;# 
   280     0092                     	;# 
   281     0093                     	;# 
   282     0094                     	;# 
   283     0098                     	;# 
   284     0099                     	;# 
   285     009C                     	;# 
   286     009D                     	;# 
   287     009E                     	;# 
   288     009F                     	;# 
   289     010C                     	;# 
   290     010D                     	;# 
   291     010E                     	;# 
   292     010F                     	;# 
   293     018C                     	;# 
   294     018D                     	;# 
   295     0000                     	;# 
   296     0001                     	;# 
   297     0002                     	;# 
   298     0003                     	;# 
   299     0004                     	;# 
   300     0005                     	;# 
   301     0006                     	;# 
   302     0007                     	;# 
   303     0008                     	;# 
   304     0009                     	;# 
   305     000A                     	;# 
   306     000B                     	;# 
   307     000C                     	;# 
   308     000D                     	;# 
   309     000E                     	;# 
   310     000E                     	;# 
   311     000F                     	;# 
   312     0010                     	;# 
   313     0011                     	;# 
   314     0012                     	;# 
   315     0013                     	;# 
   316     0014                     	;# 
   317     0015                     	;# 
   318     0015                     	;# 
   319     0016                     	;# 
   320     0017                     	;# 
   321     0018                     	;# 
   322     0019                     	;# 
   323     001A                     	;# 
   324     001B                     	;# 
   325     001B                     	;# 
   326     001C                     	;# 
   327     001D                     	;# 
   328     001E                     	;# 
   329     001F                     	;# 
   330     0081                     	;# 
   331     0085                     	;# 
   332     0086                     	;# 
   333     0087                     	;# 
   334     0088                     	;# 
   335     0089                     	;# 
   336     008C                     	;# 
   337     008D                     	;# 
   338     008E                     	;# 
   339     0091                     	;# 
   340     0092                     	;# 
   341     0093                     	;# 
   342     0094                     	;# 
   343     0098                     	;# 
   344     0099                     	;# 
   345     009C                     	;# 
   346     009D                     	;# 
   347     009E                     	;# 
   348     009F                     	;# 
   349     010C                     	;# 
   350     010D                     	;# 
   351     010E                     	;# 
   352     010F                     	;# 
   353     018C                     	;# 
   354     018D                     	;# 
   355     0000                     	;# 
   356     0001                     	;# 
   357     0002                     	;# 
   358     0003                     	;# 
   359     0004                     	;# 
   360     0005                     	;# 
   361     0006                     	;# 
   362     0007                     	;# 
   363     0008                     	;# 
   364     0009                     	;# 
   365     000A                     	;# 
   366     000B                     	;# 
   367     000C                     	;# 
   368     000D                     	;# 
   369     000E                     	;# 
   370     000E                     	;# 
   371     000F                     	;# 
   372     0010                     	;# 
   373     0011                     	;# 
   374     0012                     	;# 
   375     0013                     	;# 
   376     0014                     	;# 
   377     0015                     	;# 
   378     0015                     	;# 
   379     0016                     	;# 
   380     0017                     	;# 
   381     0018                     	;# 
   382     0019                     	;# 
   383     001A                     	;# 
   384     001B                     	;# 
   385     001B                     	;# 
   386     001C                     	;# 
   387     001D                     	;# 
   388     001E                     	;# 
   389     001F                     	;# 
   390     0081                     	;# 
   391     0085                     	;# 
   392     0086                     	;# 
   393     0087                     	;# 
   394     0088                     	;# 
   395     0089                     	;# 
   396     008C                     	;# 
   397     008D                     	;# 
   398     008E                     	;# 
   399     0091                     	;# 
   400     0092                     	;# 
   401     0093                     	;# 
   402     0094                     	;# 
   403     0098                     	;# 
   404     0099                     	;# 
   405     009C                     	;# 
   406     009D                     	;# 
   407     009E                     	;# 
   408     009F                     	;# 
   409     010C                     	;# 
   410     010D                     	;# 
   411     010E                     	;# 
   412     010F                     	;# 
   413     018C                     	;# 
   414     018D                     	;# 
   415     0000                     	;# 
   416     0001                     	;# 
   417     0002                     	;# 
   418     0003                     	;# 
   419     0004                     	;# 
   420     0005                     	;# 
   421     0006                     	;# 
   422     0007                     	;# 
   423     0008                     	;# 
   424     0009                     	;# 
   425     000A                     	;# 
   426     000B                     	;# 
   427     000C                     	;# 
   428     000D                     	;# 
   429     000E                     	;# 
   430     000E                     	;# 
   431     000F                     	;# 
   432     0010                     	;# 
   433     0011                     	;# 
   434     0012                     	;# 
   435     0013                     	;# 
   436     0014                     	;# 
   437     0015                     	;# 
   438     0015                     	;# 
   439     0016                     	;# 
   440     0017                     	;# 
   441     0018                     	;# 
   442     0019                     	;# 
   443     001A                     	;# 
   444     001B                     	;# 
   445     001B                     	;# 
   446     001C                     	;# 
   447     001D                     	;# 
   448     001E                     	;# 
   449     001F                     	;# 
   450     0081                     	;# 
   451     0085                     	;# 
   452     0086                     	;# 
   453     0087                     	;# 
   454     0088                     	;# 
   455     0089                     	;# 
   456     008C                     	;# 
   457     008D                     	;# 
   458     008E                     	;# 
   459     0091                     	;# 
   460     0092                     	;# 
   461     0093                     	;# 
   462     0094                     	;# 
   463     0098                     	;# 
   464     0099                     	;# 
   465     009C                     	;# 
   466     009D                     	;# 
   467     009E                     	;# 
   468     009F                     	;# 
   469     010C                     	;# 
   470     010D                     	;# 
   471     010E                     	;# 
   472     010F                     	;# 
   473     018C                     	;# 
   474     018D                     	;# 
   475     0000                     	;# 
   476     0001                     	;# 
   477     0002                     	;# 
   478     0003                     	;# 
   479     0004                     	;# 
   480     0005                     	;# 
   481     0006                     	;# 
   482     0007                     	;# 
   483     0008                     	;# 
   484     0009                     	;# 
   485     000A                     	;# 
   486     000B                     	;# 
   487     000C                     	;# 
   488     000D                     	;# 
   489     000E                     	;# 
   490     000E                     	;# 
   491     000F                     	;# 
   492     0010                     	;# 
   493     0011                     	;# 
   494     0012                     	;# 
   495     0013                     	;# 
   496     0014                     	;# 
   497     0015                     	;# 
   498     0015                     	;# 
   499     0016                     	;# 
   500     0017                     	;# 
   501     0018                     	;# 
   502     0019                     	;# 
   503     001A                     	;# 
   504     001B                     	;# 
   505     001B                     	;# 
   506     001C                     	;# 
   507     001D                     	;# 
   508     001E                     	;# 
   509     001F                     	;# 
   510     0081                     	;# 
   511     0085                     	;# 
   512     0086                     	;# 
   513     0087                     	;# 
   514     0088                     	;# 
   515     0089                     	;# 
   516     008C                     	;# 
   517     008D                     	;# 
   518     008E                     	;# 
   519     0091                     	;# 
   520     0092                     	;# 
   521     0093                     	;# 
   522     0094                     	;# 
   523     0098                     	;# 
   524     0099                     	;# 
   525     009C                     	;# 
   526     009D                     	;# 
   527     009E                     	;# 
   528     009F                     	;# 
   529     010C                     	;# 
   530     010D                     	;# 
   531     010E                     	;# 
   532     010F                     	;# 
   533     018C                     	;# 
   534     018D                     	;# 
   535     0000                     	;# 
   536     0001                     	;# 
   537     0002                     	;# 
   538     0003                     	;# 
   539     0004                     	;# 
   540     0005                     	;# 
   541     0006                     	;# 
   542     0007                     	;# 
   543     0008                     	;# 
   544     0009                     	;# 
   545     000A                     	;# 
   546     000B                     	;# 
   547     000C                     	;# 
   548     000D                     	;# 
   549     000E                     	;# 
   550     000E                     	;# 
   551     000F                     	;# 
   552     0010                     	;# 
   553     0011                     	;# 
   554     0012                     	;# 
   555     0013                     	;# 
   556     0014                     	;# 
   557     0015                     	;# 
   558     0015                     	;# 
   559     0016                     	;# 
   560     0017                     	;# 
   561     0018                     	;# 
   562     0019                     	;# 
   563     001A                     	;# 
   564     001B                     	;# 
   565     001B                     	;# 
   566     001C                     	;# 
   567     001D                     	;# 
   568     001E                     	;# 
   569     001F                     	;# 
   570     0081                     	;# 
   571     0085                     	;# 
   572     0086                     	;# 
   573     0087                     	;# 
   574     0088                     	;# 
   575     0089                     	;# 
   576     008C                     	;# 
   577     008D                     	;# 
   578     008E                     	;# 
   579     0091                     	;# 
   580     0092                     	;# 
   581     0093                     	;# 
   582     0094                     	;# 
   583     0098                     	;# 
   584     0099                     	;# 
   585     009C                     	;# 
   586     009D                     	;# 
   587     009E                     	;# 
   588     009F                     	;# 
   589     010C                     	;# 
   590     010D                     	;# 
   591     010E                     	;# 
   592     010F                     	;# 
   593     018C                     	;# 
   594     018D                     	;# 
   595     0000                     	;# 
   596     0001                     	;# 
   597     0002                     	;# 
   598     0003                     	;# 
   599     0004                     	;# 
   600     0005                     	;# 
   601     0006                     	;# 
   602     0007                     	;# 
   603     0008                     	;# 
   604     0009                     	;# 
   605     000A                     	;# 
   606     000B                     	;# 
   607     000C                     	;# 
   608     000D                     	;# 
   609     000E                     	;# 
   610     000E                     	;# 
   611     000F                     	;# 
   612     0010                     	;# 
   613     0011                     	;# 
   614     0012                     	;# 
   615     0013                     	;# 
   616     0014                     	;# 
   617     0015                     	;# 
   618     0015                     	;# 
   619     0016                     	;# 
   620     0017                     	;# 
   621     0018                     	;# 
   622     0019                     	;# 
   623     001A                     	;# 
   624     001B                     	;# 
   625     001B                     	;# 
   626     001C                     	;# 
   627     001D                     	;# 
   628     001E                     	;# 
   629     001F                     	;# 
   630     0081                     	;# 
   631     0085                     	;# 
   632     0086                     	;# 
   633     0087                     	;# 
   634     0088                     	;# 
   635     0089                     	;# 
   636     008C                     	;# 
   637     008D                     	;# 
   638     008E                     	;# 
   639     0091                     	;# 
   640     0092                     	;# 
   641     0093                     	;# 
   642     0094                     	;# 
   643     0098                     	;# 
   644     0099                     	;# 
   645     009C                     	;# 
   646     009D                     	;# 
   647     009E                     	;# 
   648     009F                     	;# 
   649     010C                     	;# 
   650     010D                     	;# 
   651     010E                     	;# 
   652     010F                     	;# 
   653     018C                     	;# 
   654     018D                     	;# 
   655     0000                     	;# 
   656     0001                     	;# 
   657     0002                     	;# 
   658     0003                     	;# 
   659     0004                     	;# 
   660     0005                     	;# 
   661     0006                     	;# 
   662     0007                     	;# 
   663     0008                     	;# 
   664     0009                     	;# 
   665     000A                     	;# 
   666     000B                     	;# 
   667     000C                     	;# 
   668     000D                     	;# 
   669     000E                     	;# 
   670     000E                     	;# 
   671     000F                     	;# 
   672     0010                     	;# 
   673     0011                     	;# 
   674     0012                     	;# 
   675     0013                     	;# 
   676     0014                     	;# 
   677     0015                     	;# 
   678     0015                     	;# 
   679     0016                     	;# 
   680     0017                     	;# 
   681     0018                     	;# 
   682     0019                     	;# 
   683     001A                     	;# 
   684     001B                     	;# 
   685     001B                     	;# 
   686     001C                     	;# 
   687     001D                     	;# 
   688     001E                     	;# 
   689     001F                     	;# 
   690     0081                     	;# 
   691     0085                     	;# 
   692     0086                     	;# 
   693     0087                     	;# 
   694     0088                     	;# 
   695     0089                     	;# 
   696     008C                     	;# 
   697     008D                     	;# 
   698     008E                     	;# 
   699     0091                     	;# 
   700     0092                     	;# 
   701     0093                     	;# 
   702     0094                     	;# 
   703     0098                     	;# 
   704     0099                     	;# 
   705     009C                     	;# 
   706     009D                     	;# 
   707     009E                     	;# 
   708     009F                     	;# 
   709     010C                     	;# 
   710     010D                     	;# 
   711     010E                     	;# 
   712     010F                     	;# 
   713     018C                     	;# 
   714     018D                     	;# 
   715     0000                     	;# 
   716     0001                     	;# 
   717     0002                     	;# 
   718     0003                     	;# 
   719     0004                     	;# 
   720     0005                     	;# 
   721     0006                     	;# 
   722     0007                     	;# 
   723     0008                     	;# 
   724     0009                     	;# 
   725     000A                     	;# 
   726     000B                     	;# 
   727     000C                     	;# 
   728     000D                     	;# 
   729     000E                     	;# 
   730     000E                     	;# 
   731     000F                     	;# 
   732     0010                     	;# 
   733     0011                     	;# 
   734     0012                     	;# 
   735     0013                     	;# 
   736     0014                     	;# 
   737     0015                     	;# 
   738     0015                     	;# 
   739     0016                     	;# 
   740     0017                     	;# 
   741     0018                     	;# 
   742     0019                     	;# 
   743     001A                     	;# 
   744     001B                     	;# 
   745     001B                     	;# 
   746     001C                     	;# 
   747     001D                     	;# 
   748     001E                     	;# 
   749     001F                     	;# 
   750     0081                     	;# 
   751     0085                     	;# 
   752     0086                     	;# 
   753     0087                     	;# 
   754     0088                     	;# 
   755     0089                     	;# 
   756     008C                     	;# 
   757     008D                     	;# 
   758     008E                     	;# 
   759     0091                     	;# 
   760     0092                     	;# 
   761     0093                     	;# 
   762     0094                     	;# 
   763     0098                     	;# 
   764     0099                     	;# 
   765     009C                     	;# 
   766     009D                     	;# 
   767     009E                     	;# 
   768     009F                     	;# 
   769     010C                     	;# 
   770     010D                     	;# 
   771     010E                     	;# 
   772     010F                     	;# 
   773     018C                     	;# 
   774     018D                     	;# 
   775                           
   776                           	psect	idataCOMMON
   777     0003                     __pidataCOMMON:
   778                           
   779                           ;initializer for _pos
   780     0003  34FF               	retlw	255
   781                           
   782                           	psect	idataBANK0
   783     117D                     __pidataBANK0:
   784                           
   785                           ;initializer for read_digital_keypad@once
   786     117D  3401               	retlw	1
   787                           
   788                           	psect	idataBANK1
   789     118B                     __pidataBANK1:
   790                           
   791                           ;initializer for _gear
   792     118B  3477               	retlw	low (STR_1| (0+32768))
   793     118C  3491               	retlw	high (STR_1| (0+32768))
   794     118D  347A               	retlw	low (STR_2| (0+32768))
   795     118E  3491               	retlw	high (STR_2| (0+32768))
   796     118F  346B               	retlw	low (STR_3| (0+32768))
   797     1190  3491               	retlw	high (STR_3| (0+32768))
   798     1191  346E               	retlw	low (STR_4| (0+32768))
   799     1192  3491               	retlw	high (STR_4| (0+32768))
   800     1193  3471               	retlw	low (STR_5| (0+32768))
   801     1194  3491               	retlw	high (STR_5| (0+32768))
   802     1195  3474               	retlw	low (STR_6| (0+32768))
   803     1196  3491               	retlw	high (STR_6| (0+32768))
   804                           
   805                           ;initializer for _menu
   806     1197  345A               	retlw	low (STR_13| (0+32768))
   807     1198  3491               	retlw	high (STR_13| (0+32768))
   808     1199  3435               	retlw	low (STR_14| (0+32768))
   809     119A  3491               	retlw	high (STR_14| (0+32768))
   810     119B  3428               	retlw	low (STR_15| (0+32768))
   811     119C  3491               	retlw	high (STR_15| (0+32768))
   812     119D  3451               	retlw	low (STR_16| (0+32768))
   813     119E  3491               	retlw	high (STR_16| (0+32768))
   814     119F  341A               	retlw	low (STR_17| (0+32768))
   815     11A0  3491               	retlw	high (STR_17| (0+32768))
   816                           
   817                           ;initializer for main@F1020
   818     11A1  344F               	retlw	79
   819     11A2  344E               	retlw	78
   820     11A3  3400               	retlw	0
   821     0019                     _TXREG	set	25
   822     001A                     _RCREG	set	26
   823     0001                     _TMR0	set	1
   824     0013                     _SSPBUF	set	19
   825     001E                     _ADRESH	set	30
   826     0006                     _PORTB	set	6
   827     0008                     _PORTD	set	8
   828     0064                     _TXIF	set	100
   829     0065                     _RCIF	set	101
   830     00C4                     _CREN	set	196
   831     00C7                     _SPEN	set	199
   832     0091                     _T2CKPS1	set	145
   833     0090                     _T2CKPS0	set	144
   834     005D                     _TMR0IE	set	93
   835     0061                     _TMR2IF	set	97
   836     00A5                     _SSPEN	set	165
   837     00A3                     _SSPM3	set	163
   838     00FA                     _nDONE	set	250
   839     00FA                     _GO	set	250
   840     00F8                     _ADON	set	248
   841     0049                     _RE1	set	73
   842     004A                     _RE2	set	74
   843     0092                     _TMR2ON	set	146
   844     005F                     _GIE	set	95
   845     005E                     _PEIE	set	94
   846     0099                     _SPBRG	set	153
   847     0092                     _PR2	set	146
   848     0091                     _SSPCON2	set	145
   849     0093                     _SSPADD	set	147
   850     009E                     _ADRESL	set	158
   851     0086                     _TRISB	set	134
   852     0088                     _TRISD	set	136
   853     0461                     _TMR2IE	set	1121
   854     040B                     _PSA	set	1035
   855     040D                     _T0CS	set	1037
   856     048E                     _ACKSTAT	set	1166
   857     048C                     _ACKEN	set	1164
   858     048D                     _ACKDT	set	1165
   859     048B                     _RCEN	set	1163
   860     048A                     _PEN	set	1162
   861     0488                     _SEN	set	1160
   862     04A2                     _R_nW	set	1186
   863     04FF                     _ADFM	set	1279
   864     0449                     _TRISE1	set	1097
   865     044A                     _TRISE2	set	1098
   866                           
   867                           	psect	strings
   868     1800                     __pstrings:
   869     1800                     stringtab:
   870     1800                     __stringtab:
   871                           
   872                           ;	String table - string pointers are 2 bytes each
   873     1800  1BFF               	btfsc	btemp+1,7
   874     1801  280A               	ljmp	stringcode
   875     1802  1383               	bcf	3,7
   876     1803  187F               	btfsc	btemp+1,0
   877     1804  1783               	bsf	3,7
   878     1805  0800               	movf	0,w
   879     1806  0A84               	incf	4,f
   880     1807  1903               	skipnz
   881     1808  0AFF               	incf	btemp+1,f
   882     1809  0008               	return
   883     180A                     stringcode:
   884     180A  087F               	movf	btemp+1,w
   885     180B  397F               	andlw	127
   886     180C  008A               	movwf	10
   887     180D  0804               	movf	4,w
   888     180E  0A84               	incf	4,f
   889     180F  1903               	skipnz
   890     1810  0AFF               	incf	btemp+1,f
   891     1811  0082               	movwf	2
   892     1812                     __stringbase:
   893     1812                     __end_of__stringtab:
   894                           
   895                           	psect	stringtext
   896     1000                     __pstringtext:
   897     1000                     STR_25:
   898     1000  3420               	retlw	32	;' '
   899     1001  3420               	retlw	32	;' '
   900     1002  3420               	retlw	32	;' '
   901     1003  3420               	retlw	32	;' '
   902     1004  3420               	retlw	32	;' '
   903     1005  344E               	retlw	78	;'N'
   904     1006  344F               	retlw	79	;'O'
   905     1007  3420               	retlw	32	;' '
   906     1008  344C               	retlw	76	;'L'
   907     1009  344F               	retlw	79	;'O'
   908     100A  3447               	retlw	71	;'G'
   909     100B  3453               	retlw	83	;'S'
   910     100C  3420               	retlw	32	;' '
   911     100D  3420               	retlw	32	;' '
   912     100E  3420               	retlw	32	;' '
   913     100F  3420               	retlw	32	;' '
   914     1010  3400               	retlw	0
   915     1011                     STR_30:
   916     1011  3420               	retlw	32	;' '
   917     1012  3420               	retlw	32	;' '
   918     1013  3420               	retlw	32	;' '
   919     1014  3420               	retlw	32	;' '
   920     1015  3420               	retlw	32	;' '
   921     1016  3449               	retlw	73	;'I'
   922     1017  344E               	retlw	78	;'N'
   923     1018  3420               	retlw	32	;' '
   924     1019  3455               	retlw	85	;'U'
   925     101A  3441               	retlw	65	;'A'
   926     101B  3452               	retlw	82	;'R'
   927     101C  3454               	retlw	84	;'T'
   928     101D  3420               	retlw	32	;' '
   929     101E  3420               	retlw	32	;' '
   930     101F  3420               	retlw	32	;' '
   931     1020  3420               	retlw	32	;' '
   932     1021  3400               	retlw	0
   933     1022                     STR_28:
   934     1022  3420               	retlw	32	;' '
   935     1023  3420               	retlw	32	;' '
   936     1024  3453               	retlw	83	;'S'
   937     1025  3455               	retlw	85	;'U'
   938     1026  3443               	retlw	67	;'C'
   939     1027  3443               	retlw	67	;'C'
   940     1028  3445               	retlw	69	;'E'
   941     1029  3453               	retlw	83	;'S'
   942     102A  3453               	retlw	83	;'S'
   943     102B  3446               	retlw	70	;'F'
   944     102C  3455               	retlw	85	;'U'
   945     102D  344C               	retlw	76	;'L'
   946     102E  344C               	retlw	76	;'L'
   947     102F  3459               	retlw	89	;'Y'
   948     1030  3420               	retlw	32	;' '
   949     1031  3420               	retlw	32	;' '
   950     1032  3400               	retlw	0
   951     1033                     STR_29:
   952     1033  3420               	retlw	32	;' '
   953     1034  344C               	retlw	76	;'L'
   954     1035  344F               	retlw	79	;'O'
   955     1036  3447               	retlw	71	;'G'
   956     1037  3453               	retlw	83	;'S'
   957     1038  3420               	retlw	32	;' '
   958     1039  3444               	retlw	68	;'D'
   959     103A  3449               	retlw	73	;'I'
   960     103B  3453               	retlw	83	;'S'
   961     103C  3450               	retlw	80	;'P'
   962     103D  344C               	retlw	76	;'L'
   963     103E  3441               	retlw	65	;'A'
   964     103F  3459               	retlw	89	;'Y'
   965     1040  3445               	retlw	69	;'E'
   966     1041  3444               	retlw	68	;'D'
   967     1042  3420               	retlw	32	;' '
   968     1043  3400               	retlw	0
   969     1044                     STR_26:
   970     1044  3420               	retlw	32	;' '
   971     1045  3420               	retlw	32	;' '
   972     1046  3441               	retlw	65	;'A'
   973     1047  3452               	retlw	82	;'R'
   974     1048  3445               	retlw	69	;'E'
   975     1049  3420               	retlw	32	;' '
   976     104A  3441               	retlw	65	;'A'
   977     104B  3456               	retlw	86	;'V'
   978     104C  3441               	retlw	65	;'A'
   979     104D  3449               	retlw	73	;'I'
   980     104E  344C               	retlw	76	;'L'
   981     104F  3441               	retlw	65	;'A'
   982     1050  3442               	retlw	66	;'B'
   983     1051  344C               	retlw	76	;'L'
   984     1052  3445               	retlw	69	;'E'
   985     1053  3420               	retlw	32	;' '
   986     1054  3400               	retlw	0
   987     1055                     STR_38:
   988     1055  3450               	retlw	80	;'P'
   989     1056  3441               	retlw	65	;'A'
   990     1057  3453               	retlw	83	;'S'
   991     1058  3453               	retlw	83	;'S'
   992     1059  3457               	retlw	87	;'W'
   993     105A  344F               	retlw	79	;'O'
   994     105B  3452               	retlw	82	;'R'
   995     105C  3444               	retlw	68	;'D'
   996     105D  3420               	retlw	32	;' '
   997     105E  3444               	retlw	68	;'D'
   998     105F  3449               	retlw	73	;'I'
   999     1060  3444               	retlw	68	;'D'
  1000     1061  344E               	retlw	78	;'N'
  1001     1062  3427               	retlw	39	;'''
  1002     1063  3454               	retlw	84	;'T'
  1003     1064  3420               	retlw	32	;' '
  1004     1065  3400               	retlw	0
  1005     1066                     STR_36:
  1006     1066  3450               	retlw	80	;'P'
  1007     1067  3441               	retlw	65	;'A'
  1008     1068  3453               	retlw	83	;'S'
  1009     1069  3453               	retlw	83	;'S'
  1010     106A  3457               	retlw	87	;'W'
  1011     106B  344F               	retlw	79	;'O'
  1012     106C  3452               	retlw	82	;'R'
  1013     106D  3444               	retlw	68	;'D'
  1014     106E  3420               	retlw	32	;' '
  1015     106F  3443               	retlw	67	;'C'
  1016     1070  3448               	retlw	72	;'H'
  1017     1071  3441               	retlw	65	;'A'
  1018     1072  344E               	retlw	78	;'N'
  1019     1073  3447               	retlw	71	;'G'
  1020     1074  3445               	retlw	69	;'E'
  1021     1075  3444               	retlw	68	;'D'
  1022     1076  3400               	retlw	0
  1023     1077                     STR_27:
  1024     1077  344C               	retlw	76	;'L'
  1025     1078  344F               	retlw	79	;'O'
  1026     1079  3447               	retlw	71	;'G'
  1027     107A  3453               	retlw	83	;'S'
  1028     107B  3420               	retlw	32	;' '
  1029     107C  3441               	retlw	65	;'A'
  1030     107D  3452               	retlw	82	;'R'
  1031     107E  3445               	retlw	69	;'E'
  1032     107F  3420               	retlw	32	;' '
  1033     1080  3443               	retlw	67	;'C'
  1034     1081  344C               	retlw	76	;'L'
  1035     1082  3445               	retlw	69	;'E'
  1036     1083  3441               	retlw	65	;'A'
  1037     1084  3452               	retlw	82	;'R'
  1038     1085  3445               	retlw	69	;'E'
  1039     1086  3444               	retlw	68	;'D'
  1040     1087  3400               	retlw	0
  1041     1088                     STR_39:
  1042     1088  344D               	retlw	77	;'M'
  1043     1089  3441               	retlw	65	;'A'
  1044     108A  3454               	retlw	84	;'T'
  1045     108B  3443               	retlw	67	;'C'
  1046     108C  3448               	retlw	72	;'H'
  1047     108D  342C               	retlw	44	;','
  1048     108E  3420               	retlw	32	;' '
  1049     108F  3454               	retlw	84	;'T'
  1050     1090  3452               	retlw	82	;'R'
  1051     1091  3459               	retlw	89	;'Y'
  1052     1092  3420               	retlw	32	;' '
  1053     1093  3441               	retlw	65	;'A'
  1054     1094  3447               	retlw	71	;'G'
  1055     1095  3441               	retlw	65	;'A'
  1056     1096  3449               	retlw	73	;'I'
  1057     1097  344E               	retlw	78	;'N'
  1058     1098  3400               	retlw	0
  1059     1099                     STR_18:
  1060     1099  3420               	retlw	32	;' '
  1061     109A  3420               	retlw	32	;' '
  1062     109B  3454               	retlw	84	;'T'
  1063     109C  3449               	retlw	73	;'I'
  1064     109D  344D               	retlw	77	;'M'
  1065     109E  3445               	retlw	69	;'E'
  1066     109F  3420               	retlw	32	;' '
  1067     10A0  3420               	retlw	32	;' '
  1068     10A1  3420               	retlw	32	;' '
  1069     10A2  3420               	retlw	32	;' '
  1070     10A3  3445               	retlw	69	;'E'
  1071     10A4  3456               	retlw	86	;'V'
  1072     10A5  3420               	retlw	32	;' '
  1073     10A6  3420               	retlw	32	;' '
  1074     10A7  3453               	retlw	83	;'S'
  1075     10A8  3450               	retlw	80	;'P'
  1076     10A9  3400               	retlw	0
  1077     10AA                     STR_24:
  1078     10AA  3420               	retlw	32	;' '
  1079     10AB  3420               	retlw	32	;' '
  1080     10AC  3420               	retlw	32	;' '
  1081     10AD  3454               	retlw	84	;'T'
  1082     10AE  3449               	retlw	73	;'I'
  1083     10AF  344D               	retlw	77	;'M'
  1084     10B0  3445               	retlw	69	;'E'
  1085     10B1  3420               	retlw	32	;' '
  1086     10B2  3420               	retlw	32	;' '
  1087     10B3  3420               	retlw	32	;' '
  1088     10B4  3420               	retlw	32	;' '
  1089     10B5  3445               	retlw	69	;'E'
  1090     10B6  3456               	retlw	86	;'V'
  1091     10B7  3420               	retlw	32	;' '
  1092     10B8  3453               	retlw	83	;'S'
  1093     10B9  3450               	retlw	80	;'P'
  1094     10BA  3400               	retlw	0
  1095     10BB                     STR_7:
  1096     10BB  3455               	retlw	85	;'U'
  1097     10BC  3441               	retlw	65	;'A'
  1098     10BD  3452               	retlw	82	;'R'
  1099     10BE  3454               	retlw	84	;'T'
  1100     10BF  3420               	retlw	32	;' '
  1101     10C0  3454               	retlw	84	;'T'
  1102     10C1  3465               	retlw	101	;'e'
  1103     10C2  3473               	retlw	115	;'s'
  1104     10C3  3474               	retlw	116	;'t'
  1105     10C4  3420               	retlw	32	;' '
  1106     10C5  3443               	retlw	67	;'C'
  1107     10C6  346F               	retlw	111	;'o'
  1108     10C7  3464               	retlw	100	;'d'
  1109     10C8  3465               	retlw	101	;'e'
  1110     10C9  340A               	retlw	10
  1111     10CA  340D               	retlw	13
  1112     10CB  3400               	retlw	0
  1113     10CC                     STR_12:
  1114     10CC  3420               	retlw	32	;' '
  1115     10CD  3445               	retlw	69	;'E'
  1116     10CE  344E               	retlw	78	;'N'
  1117     10CF  3454               	retlw	84	;'T'
  1118     10D0  3445               	retlw	69	;'E'
  1119     10D1  3452               	retlw	82	;'R'
  1120     10D2  3420               	retlw	32	;' '
  1121     10D3  3450               	retlw	80	;'P'
  1122     10D4  3441               	retlw	65	;'A'
  1123     10D5  3453               	retlw	83	;'S'
  1124     10D6  3453               	retlw	83	;'S'
  1125     10D7  3457               	retlw	87	;'W'
  1126     10D8  344F               	retlw	79	;'O'
  1127     10D9  3452               	retlw	82	;'R'
  1128     10DA  3444               	retlw	68	;'D'
  1129     10DB  3420               	retlw	32	;' '
  1130     10DC  3400               	retlw	0
  1131     10DD                     STR_21:
  1132     10DD  3420               	retlw	32	;' '
  1133     10DE  3457               	retlw	87	;'W'
  1134     10DF  3452               	retlw	82	;'R'
  1135     10E0  344F               	retlw	79	;'O'
  1136     10E1  344E               	retlw	78	;'N'
  1137     10E2  3447               	retlw	71	;'G'
  1138     10E3  3420               	retlw	32	;' '
  1139     10E4  3450               	retlw	80	;'P'
  1140     10E5  3441               	retlw	65	;'A'
  1141     10E6  3453               	retlw	83	;'S'
  1142     10E7  3453               	retlw	83	;'S'
  1143     10E8  3457               	retlw	87	;'W'
  1144     10E9  344F               	retlw	79	;'O'
  1145     10EA  3452               	retlw	82	;'R'
  1146     10EB  3444               	retlw	68	;'D'
  1147     10EC  3400               	retlw	0
  1148     10ED                     STR_19:
  1149     10ED  3459               	retlw	89	;'Y'
  1150     10EE  346F               	retlw	111	;'o'
  1151     10EF  3475               	retlw	117	;'u'
  1152     10F0  3420               	retlw	32	;' '
  1153     10F1  3461               	retlw	97	;'a'
  1154     10F2  3472               	retlw	114	;'r'
  1155     10F3  3465               	retlw	101	;'e'
  1156     10F4  3420               	retlw	32	;' '
  1157     10F5  3462               	retlw	98	;'b'
  1158     10F6  346C               	retlw	108	;'l'
  1159     10F7  346F               	retlw	111	;'o'
  1160     10F8  3463               	retlw	99	;'c'
  1161     10F9  346B               	retlw	107	;'k'
  1162     10FA  3465               	retlw	101	;'e'
  1163     10FB  3464               	retlw	100	;'d'
  1164     10FC  3400               	retlw	0
  1165     10FD                     STR_22:
  1166     10FD  3461               	retlw	97	;'a'
  1167     10FE  3474               	retlw	116	;'t'
  1168     10FF  3474               	retlw	116	;'t'
  1169     1100  3465               	retlw	101	;'e'
  1170     1101  346D               	retlw	109	;'m'
  1171     1102  3470               	retlw	112	;'p'
  1172     1103  3474               	retlw	116	;'t'
  1173     1104  3420               	retlw	32	;' '
  1174     1105  3472               	retlw	114	;'r'
  1175     1106  3465               	retlw	101	;'e'
  1176     1107  346D               	retlw	109	;'m'
  1177     1108  3461               	retlw	97	;'a'
  1178     1109  3469               	retlw	105	;'i'
  1179     110A  346E               	retlw	110	;'n'
  1180     110B  3400               	retlw	0
  1181     110C                     STR_20:
  1182     110C  3466               	retlw	102	;'f'
  1183     110D  346F               	retlw	111	;'o'
  1184     110E  3472               	retlw	114	;'r'
  1185     110F  3420               	retlw	32	;' '
  1186     1110  3439               	retlw	57	;'9'
  1187     1111  3430               	retlw	48	;'0'
  1188     1112  3430               	retlw	48	;'0'
  1189     1113  3420               	retlw	32	;' '
  1190     1114  3473               	retlw	115	;'s'
  1191     1115  3465               	retlw	101	;'e'
  1192     1116  3463               	retlw	99	;'c'
  1193     1117  342E               	retlw	46	;'.'
  1194     1118  342E               	retlw	46	;'.'
  1195     1119  3400               	retlw	0
  1196     111A                     STR_17:
  1197     111A  3443               	retlw	67	;'C'
  1198     111B  3468               	retlw	104	;'h'
  1199     111C  3461               	retlw	97	;'a'
  1200     111D  346E               	retlw	110	;'n'
  1201     111E  3467               	retlw	103	;'g'
  1202     111F  3465               	retlw	101	;'e'
  1203     1120  3420               	retlw	32	;' '
  1204     1121  3470               	retlw	112	;'p'
  1205     1122  3461               	retlw	97	;'a'
  1206     1123  3473               	retlw	115	;'s'
  1207     1124  3473               	retlw	115	;'s'
  1208     1125  3477               	retlw	119	;'w'
  1209     1126  3464               	retlw	100	;'d'
  1210     1127  3400               	retlw	0
  1211     1128                     STR_15:
  1212     1128  3444               	retlw	68	;'D'
  1213     1129  346F               	retlw	111	;'o'
  1214     112A  3477               	retlw	119	;'w'
  1215     112B  346E               	retlw	110	;'n'
  1216     112C  346C               	retlw	108	;'l'
  1217     112D  346F               	retlw	111	;'o'
  1218     112E  3461               	retlw	97	;'a'
  1219     112F  3464               	retlw	100	;'d'
  1220     1130  3420               	retlw	32	;' '
  1221     1131  346C               	retlw	108	;'l'
  1222     1132  346F               	retlw	111	;'o'
  1223     1133  3467               	retlw	103	;'g'
  1224     1134  3400               	retlw	0
  1225     1135                     STR_14:
  1226     1135  3443               	retlw	67	;'C'
  1227     1136  346C               	retlw	108	;'l'
  1228     1137  3465               	retlw	101	;'e'
  1229     1138  3461               	retlw	97	;'a'
  1230     1139  3472               	retlw	114	;'r'
  1231     113A  3420               	retlw	32	;' '
  1232     113B  346C               	retlw	108	;'l'
  1233     113C  346F               	retlw	111	;'o'
  1234     113D  3467               	retlw	103	;'g'
  1235     113E  3400               	retlw	0
  1236     113F                     STR_35:
  1237     113F  3452               	retlw	82	;'R'
  1238     1140  3445               	retlw	69	;'E'
  1239     1141  342D               	retlw	45	;'-'
  1240     1142  3445               	retlw	69	;'E'
  1241     1143  344E               	retlw	78	;'N'
  1242     1144  3454               	retlw	84	;'T'
  1243     1145  3445               	retlw	69	;'E'
  1244     1146  3452               	retlw	82	;'R'
  1245     1147  3400               	retlw	0
  1246     1148                     STR_33:
  1247     1148  3448               	retlw	72	;'H'
  1248     1149  3448               	retlw	72	;'H'
  1249     114A  3420               	retlw	32	;' '
  1250     114B  344D               	retlw	77	;'M'
  1251     114C  344D               	retlw	77	;'M'
  1252     114D  3420               	retlw	32	;' '
  1253     114E  3453               	retlw	83	;'S'
  1254     114F  3453               	retlw	83	;'S'
  1255     1150  3400               	retlw	0
  1256     1151                     STR_16:
  1257     1151  3453               	retlw	83	;'S'
  1258     1152  3465               	retlw	101	;'e'
  1259     1153  3474               	retlw	116	;'t'
  1260     1154  3420               	retlw	32	;' '
  1261     1155  3474               	retlw	116	;'t'
  1262     1156  3469               	retlw	105	;'i'
  1263     1157  346D               	retlw	109	;'m'
  1264     1158  3465               	retlw	101	;'e'
  1265     1159  3400               	retlw	0
  1266     115A                     STR_13:
  1267     115A  3456               	retlw	86	;'V'
  1268     115B  3469               	retlw	105	;'i'
  1269     115C  3465               	retlw	101	;'e'
  1270     115D  3477               	retlw	119	;'w'
  1271     115E  3420               	retlw	32	;' '
  1272     115F  346C               	retlw	108	;'l'
  1273     1160  346F               	retlw	111	;'o'
  1274     1161  3467               	retlw	103	;'g'
  1275     1162  3400               	retlw	0
  1276     1163                     STR_8:
  1277     1163  3431               	retlw	49	;'1'
  1278     1164  3430               	retlw	48	;'0'
  1279     1165  3431               	retlw	49	;'1'
  1280     1166  3430               	retlw	48	;'0'
  1281     1167  3400               	retlw	0
  1282     1168                     STR_9:
  1283     1168  3443               	retlw	67	;'C'
  1284     1169  3420               	retlw	32	;' '
  1285     116A  3400               	retlw	0
  1286     116B                     STR_3:
  1287     116B  3447               	retlw	71	;'G'
  1288     116C  3431               	retlw	49	;'1'
  1289     116D  3400               	retlw	0
  1290     116E                     STR_4:
  1291     116E  3447               	retlw	71	;'G'
  1292     116F  3432               	retlw	50	;'2'
  1293     1170  3400               	retlw	0
  1294     1171                     STR_5:
  1295     1171  3447               	retlw	71	;'G'
  1296     1172  3433               	retlw	51	;'3'
  1297     1173  3400               	retlw	0
  1298     1174                     STR_6:
  1299     1174  3447               	retlw	71	;'G'
  1300     1175  3434               	retlw	52	;'4'
  1301     1176  3400               	retlw	0
  1302     1177                     STR_1:
  1303     1177  3447               	retlw	71	;'G'
  1304     1178  344E               	retlw	78	;'N'
  1305     1179  3400               	retlw	0
  1306     117A                     STR_2:
  1307     117A  3447               	retlw	71	;'G'
  1308     117B  3452               	retlw	82	;'R'
  1309     117C  3400               	retlw	0
  1310     1000                     
  1311                           	psect	cinit
  1312     0011                     start_initialization:	
  1313                           ; #config settings
  1314                           
  1315     0011                     __initialization:
  1316                           
  1317                           ; Initialize objects allocated to BANK1
  1318     0011  1383               	bcf	3,7	;select IRP bank0
  1319     0012  30F0               	movlw	low (__pdataBANK1+25)
  1320     0013  00FD               	movwf	btemp+-1
  1321     0014  3011               	movlw	high __pidataBANK1
  1322     0015  00FE               	movwf	btemp
  1323     0016  308B               	movlw	low __pidataBANK1
  1324     0017  00FF               	movwf	btemp+1
  1325     0018  30D7               	movlw	low __pdataBANK1
  1326     0019  0084               	movwf	4
  1327     001A  160A  158A  27C7  120A  118A  	fcall	init_ram0
  1328                           
  1329                           ; Initialize objects allocated to BANK0
  1330     001F  160A  118A  217D  120A  118A  	fcall	__pidataBANK0	;fetch initializer
  1331     0024  00EA               	movwf	__pdataBANK0& (0+127)
  1332                           
  1333                           ; Initialize objects allocated to COMMON
  1334     0025  120A  118A  2003  120A  118A  	fcall	__pidataCOMMON	;fetch initializer
  1335     002A  00FA               	movwf	__pdataCOMMON& (0+127)
  1336                           
  1337                           ; Clear objects allocated to BANK1
  1338     002B  30A0               	movlw	low __pbssBANK1
  1339     002C  0084               	movwf	4
  1340     002D  30D7               	movlw	low (__pbssBANK1+55)
  1341     002E  160A  158A  274E  120A  118A  	fcall	clear_ram0
  1342                           
  1343                           ; Clear objects allocated to BANK0
  1344     0033  304D               	movlw	low __pbssBANK0
  1345     0034  0084               	movwf	4
  1346     0035  306A               	movlw	low (__pbssBANK0+29)
  1347     0036  160A  158A  274E  120A  118A  	fcall	clear_ram0
  1348                           
  1349                           ; Clear objects allocated to COMMON
  1350     003B  01F9               	clrf	__pbssCOMMON& (0+127)
  1351     003C                     end_of_initialization:	
  1352                           ;End of C runtime variable initialization code
  1353                           
  1354     003C                     __end_of__initialization:
  1355     003C  0183               	clrf	3
  1356     003D  120A  118A  2840   	ljmp	_main	;jump to C main() function
  1357                           
  1358                           	psect	bssCOMMON
  1359     0079                     __pbssCOMMON:
  1360     0079                     _log_count:
  1361     0079                     	ds	1
  1362                           
  1363                           	psect	dataCOMMON
  1364     007A                     __pdataCOMMON:
  1365     007A                     _pos:
  1366     007A                     	ds	1
  1367                           
  1368                           	psect	bssBANK0
  1369     004D                     __pbssBANK0:
  1370     004D                     _sec:
  1371     004D                     	ds	4
  1372     0051                     change_password@j:
  1373     0051                     	ds	2
  1374     0053                     change_password@i:
  1375     0053                     	ds	2
  1376     0055                     edit_time@blink_flag:
  1377     0055                     	ds	2
  1378     0057                     edit_time@blink_delay:
  1379     0057                     	ds	2
  1380     0059                     edit_time@j:
  1381     0059                     	ds	2
  1382     005B                     edit_time@i:
  1383     005B                     	ds	2
  1384     005D                     _press:
  1385     005D                     	ds	2
  1386     005F                     _return_time:
  1387     005F                     	ds	2
  1388     0061                     view_log@log_pos:
  1389     0061                     	ds	1
  1390     0062                     login_menu@menu_pos:
  1391     0062                     	ds	1
  1392     0063                     login@attempt_rem:
  1393     0063                     	ds	1
  1394     0064                     login@i:
  1395     0064                     	ds	1
  1396     0065                     _new_hr:
  1397     0065                     	ds	1
  1398     0066                     _new_min:
  1399     0066                     	ds	1
  1400     0067                     _new_sec:
  1401     0067                     	ds	1
  1402     0068                     _pre_control_flag:
  1403     0068                     	ds	1
  1404     0069                     _pre_key:
  1405     0069                     	ds	1
  1406                           
  1407                           	psect	dataBANK0
  1408     006A                     __pdataBANK0:
  1409     006A                     read_digital_keypad@once:
  1410     006A                     	ds	1
  1411                           
  1412                           	psect	bssBANK1
  1413     00A0                     __pbssBANK1:
  1414     00A0                     _saved_time:
  1415     00A0                     	ds	7
  1416     00A7                     _saved_event:
  1417     00A7                     	ds	3
  1418     00AA                     _saved_speed:
  1419     00AA                     	ds	3
  1420     00AD                     _clock_reg:
  1421     00AD                     	ds	3
  1422     00B0                     isr@count:
  1423     00B0                     	ds	2
  1424     00B2                     _log:
  1425     00B2                     	ds	11
  1426     00BD                     edit_time@new_time:
  1427     00BD                     	ds	7
  1428     00C4                     _time:
  1429     00C4                     	ds	7
  1430     00CB                     change_password@new_passwd_2:
  1431     00CB                     	ds	4
  1432     00CF                     change_password@new_passwd_1:
  1433     00CF                     	ds	4
  1434     00D3                     login@new_passwd:
  1435     00D3                     	ds	4
  1436                           
  1437                           	psect	dataBANK1
  1438     00D7                     __pdataBANK1:
  1439     00D7                     _gear:
  1440     00D7                     	ds	12
  1441     00E3                     _menu:
  1442     00E3                     	ds	10
  1443     00ED                     main@F1020:
  1444     00ED                     	ds	3
  1445                           
  1446                           	psect	inittext
  1447     1FC3                     init_fetch0:	
  1448                           ;	Called with low address in FSR and high address in W
  1449                           
  1450     1FC3  087E               	movf	btemp,w
  1451     1FC4  008A               	movwf	10
  1452     1FC5  087F               	movf	btemp+1,w
  1453     1FC6  0082               	movwf	2
  1454     1FC7                     init_ram0:	
  1455                           ;Called with:
  1456                           ;	high address of idata address in btemp 
  1457                           ;	low address of idata address in btemp+1 
  1458                           ;	low address of data in FSR
  1459                           ;	high address + 1 of data in btemp-1
  1460                           
  1461     1FC7  160A  158A  27C3  160A  158A  	fcall	init_fetch0
  1462     1FCC  0080               	movwf	0
  1463     1FCD  0A84               	incf	4,f
  1464     1FCE  0804               	movf	4,w
  1465     1FCF  067D               	xorwf	btemp+-1,w
  1466     1FD0  1903               	btfsc	3,2
  1467     1FD1  3400               	retlw	0
  1468     1FD2  0AFF               	incf	btemp+1,f
  1469     1FD3  1903               	btfsc	3,2
  1470     1FD4  0AFE               	incf	btemp,f
  1471     1FD5  2FC7               	goto	init_ram0
  1472                           
  1473                           	psect	clrtext
  1474     1F4E                     clear_ram0:	
  1475                           ;	Called with FSR containing the base address, and
  1476                           ;	W with the last address+1
  1477                           
  1478     1F4E  0064               	clrwdt	;clear the watchdog before getting into this loop
  1479     1F4F                     clrloop0:
  1480     1F4F  0180               	clrf	0	;clear RAM location pointed to by FSR
  1481     1F50  0A84               	incf	4,f	;increment pointer
  1482     1F51  0604               	xorwf	4,w	;XOR with final address
  1483     1F52  1903               	btfsc	3,2	;have we reached the end yet?
  1484     1F53  3400               	retlw	0	;all done for this memory range, return
  1485     1F54  0604               	xorwf	4,w	;XOR again to restore value
  1486     1F55  2F4F               	goto	clrloop0	;do the next byte
  1487                           
  1488                           	psect	cstackBANK3
  1489     0190                     __pcstackBANK3:
  1490     0190                     main@menu_pos:
  1491                           
  1492                           ; 1 bytes @ 0x0
  1493     0190                     	ds	1
  1494     0191                     main@return_val:
  1495                           
  1496                           ; 1 bytes @ 0x1
  1497     0191                     	ds	1
  1498     0192                     main@event:
  1499                           
  1500                           ; 3 bytes @ 0x2
  1501     0192                     	ds	3
  1502     0195                     main@gr:
  1503                           
  1504                           ; 1 bytes @ 0x5
  1505     0195                     	ds	1
  1506     0196                     main@speed:
  1507                           
  1508                           ; 1 bytes @ 0x6
  1509     0196                     	ds	1
  1510     0197                     main@reset_flag:
  1511                           
  1512                           ; 1 bytes @ 0x7
  1513     0197                     	ds	1
  1514     0198                     main@key:
  1515                           
  1516                           ; 1 bytes @ 0x8
  1517     0198                     	ds	1
  1518     0199                     main@control_flag:
  1519                           
  1520                           ; 1 bytes @ 0x9
  1521     0199                     	ds	1
  1522                           
  1523                           	psect	cstackCOMMON
  1524     0070                     __pcstackCOMMON:
  1525     0070                     ?_init_clcd:
  1526     0070                     ?_init_adc:	
  1527                           ; 1 bytes @ 0x0
  1528                           
  1529     0070                     ?_init_digital_keypad:	
  1530                           ; 1 bytes @ 0x0
  1531                           
  1532     0070                     ?_init_ds1307:	
  1533                           ; 1 bytes @ 0x0
  1534                           
  1535     0070                     ?_init_timer2:	
  1536                           ; 1 bytes @ 0x0
  1537                           
  1538     0070                     ?_read_digital_keypad:	
  1539                           ; 1 bytes @ 0x0
  1540                           
  1541     0070                     ?_clear_screen:	
  1542                           ; 1 bytes @ 0x0
  1543                           
  1544     0070                     ?_clear_log:	
  1545                           ; 1 bytes @ 0x0
  1546                           
  1547     0070                     ?_download_log:	
  1548                           ; 1 bytes @ 0x0
  1549                           
  1550     0070                     ?_read_ds1307:	
  1551                           ; 1 bytes @ 0x0
  1552                           
  1553     0070                     ?_i2c_start:	
  1554                           ; 1 bytes @ 0x0
  1555                           
  1556     0070                     ?_i2c_rep_start:	
  1557                           ; 1 bytes @ 0x0
  1558                           
  1559     0070                     ?_i2c_read:	
  1560                           ; 1 bytes @ 0x0
  1561                           
  1562     0070                     ?_i2c_stop:	
  1563                           ; 1 bytes @ 0x0
  1564                           
  1565     0070                     ?_ext_eeprom_24C02_read:	
  1566                           ; 1 bytes @ 0x0
  1567                           
  1568     0070                     ?_putchar:	
  1569                           ; 1 bytes @ 0x0
  1570                           
  1571     0070                     ?_init_config:	
  1572                           ; 1 bytes @ 0x0
  1573                           
  1574     0070                     ?_main:	
  1575                           ; 1 bytes @ 0x0
  1576                           
  1577     0070                     ?_init_display_controller:	
  1578                           ; 1 bytes @ 0x0
  1579                           
  1580     0070                     ?_i2c_wait_for_idle:	
  1581                           ; 1 bytes @ 0x0
  1582                           
  1583     0070                     ?_get_time:	
  1584                           ; 1 bytes @ 0x0
  1585                           
  1586     0070                     ?_display_time:	
  1587                           ; 1 bytes @ 0x0
  1588                           
  1589     0070                     ?_log_event:	
  1590                           ; 1 bytes @ 0x0
  1591                           
  1592     0070                     ?_get_saved_log:	
  1593                           ; 1 bytes @ 0x0
  1594                           
  1595     0070                     ?_print_log:	
  1596                           ; 1 bytes @ 0x0
  1597                           
  1598     0070                     ?_display_log_in_uart:	
  1599                           ; 1 bytes @ 0x0
  1600                           
  1601     0070                     ?_isr:	
  1602                           ; 1 bytes @ 0x0
  1603                           
  1604     0070                     ??_isr:	
  1605                           ; 1 bytes @ 0x0
  1606                           
  1607     0070                     ?_i2c_write:	
  1608                           ; 1 bytes @ 0x0
  1609                           
  1610                           
  1611                           ; 2 bytes @ 0x0
  1612     0070                     	ds	3
  1613     0073                     ??_init_adc:
  1614     0073                     ??_init_digital_keypad:	
  1615                           ; 1 bytes @ 0x3
  1616                           
  1617     0073                     ??_init_timer2:	
  1618                           ; 1 bytes @ 0x3
  1619                           
  1620     0073                     ??_read_digital_keypad:	
  1621                           ; 1 bytes @ 0x3
  1622                           
  1623     0073                     ?_clcd_write:	
  1624                           ; 1 bytes @ 0x3
  1625                           
  1626     0073                     ??_i2c_start:	
  1627                           ; 1 bytes @ 0x3
  1628                           
  1629     0073                     ??_i2c_write:	
  1630                           ; 1 bytes @ 0x3
  1631                           
  1632     0073                     ??_i2c_rep_start:	
  1633                           ; 1 bytes @ 0x3
  1634                           
  1635     0073                     ??_i2c_read:	
  1636                           ; 1 bytes @ 0x3
  1637                           
  1638     0073                     ??_i2c_stop:	
  1639                           ; 1 bytes @ 0x3
  1640                           
  1641     0073                     ?_strncpy:	
  1642                           ; 1 bytes @ 0x3
  1643                           
  1644     0073                     ??_putchar:	
  1645                           ; 1 bytes @ 0x3
  1646                           
  1647     0073                     ??_i2c_wait_for_idle:	
  1648                           ; 1 bytes @ 0x3
  1649                           
  1650     0073                     ?___bmul:	
  1651                           ; 1 bytes @ 0x3
  1652                           
  1653     0073                     ??___lldiv:	
  1654                           ; 1 bytes @ 0x3
  1655                           
  1656     0073                     ??___almod:	
  1657                           ; 1 bytes @ 0x3
  1658                           
  1659     0073                     ?_read_adc:	
  1660                           ; 1 bytes @ 0x3
  1661                           
  1662     0073                     ?_strcmp:	
  1663                           ; 2 bytes @ 0x3
  1664                           
  1665     0073                     ?_strcpy:	
  1666                           ; 2 bytes @ 0x3
  1667                           
  1668     0073                     ?_strncmp:	
  1669                           ; 2 bytes @ 0x3
  1670                           
  1671     0073                     ?___awdiv:	
  1672                           ; 2 bytes @ 0x3
  1673                           
  1674     0073                     ?___awmod:	
  1675                           ; 2 bytes @ 0x3
  1676                           
  1677     0073                     clcd_write@mode:	
  1678                           ; 2 bytes @ 0x3
  1679                           
  1680     0073                     i2c_read@ack:	
  1681                           ; 1 bytes @ 0x3
  1682                           
  1683     0073                     i2c_write@data:	
  1684                           ; 1 bytes @ 0x3
  1685                           
  1686     0073                     putchar@data:	
  1687                           ; 1 bytes @ 0x3
  1688                           
  1689     0073                     ___bmul@multiplicand:	
  1690                           ; 1 bytes @ 0x3
  1691                           
  1692     0073                     strncmp@s2:	
  1693                           ; 1 bytes @ 0x3
  1694                           
  1695     0073                     ___awdiv@divisor:	
  1696                           ; 1 bytes @ 0x3
  1697                           
  1698     0073                     ___awmod@divisor:	
  1699                           ; 2 bytes @ 0x3
  1700                           
  1701     0073                     strcmp@s2:	
  1702                           ; 2 bytes @ 0x3
  1703                           
  1704     0073                     strcpy@to:	
  1705                           ; 2 bytes @ 0x3
  1706                           
  1707     0073                     strncpy@from:	
  1708                           ; 2 bytes @ 0x3
  1709                           
  1710                           
  1711                           ; 2 bytes @ 0x3
  1712     0073                     	ds	1
  1713     0074                     ?_puts:
  1714     0074                     ??_clcd_write:	
  1715                           ; 1 bytes @ 0x4
  1716                           
  1717     0074                     ?_ext_eeprom_24C02_byte_write:	
  1718                           ; 1 bytes @ 0x4
  1719                           
  1720     0074                     ??_display_log_in_uart:	
  1721                           ; 1 bytes @ 0x4
  1722                           
  1723     0074                     ??___bmul:	
  1724                           ; 1 bytes @ 0x4
  1725                           
  1726     0074                     read_digital_keypad@mode:	
  1727                           ; 1 bytes @ 0x4
  1728                           
  1729     0074                     i2c_read@data:	
  1730                           ; 1 bytes @ 0x4
  1731                           
  1732     0074                     display_log_in_uart@log_pos:	
  1733                           ; 1 bytes @ 0x4
  1734                           
  1735     0074                     ext_eeprom_24C02_byte_write@data:	
  1736                           ; 1 bytes @ 0x4
  1737                           
  1738     0074                     ___almod@counter:	
  1739                           ; 1 bytes @ 0x4
  1740                           
  1741     0074                     puts@s:	
  1742                           ; 1 bytes @ 0x4
  1743                           
  1744     0074                     strncmp@len:	
  1745                           ; 2 bytes @ 0x4
  1746                           
  1747     0074                     ___lldiv@quotient:	
  1748                           ; 2 bytes @ 0x4
  1749                           
  1750                           
  1751                           ; 4 bytes @ 0x4
  1752     0074                     	ds	1
  1753     0075                     ??_read_adc:
  1754     0075                     ??_strcmp:	
  1755                           ; 1 bytes @ 0x5
  1756                           
  1757     0075                     ??_read_ds1307:	
  1758                           ; 1 bytes @ 0x5
  1759                           
  1760     0075                     ??_ext_eeprom_24C02_read:	
  1761                           ; 1 bytes @ 0x5
  1762                           
  1763     0075                     ??_ext_eeprom_24C02_byte_write:	
  1764                           ; 1 bytes @ 0x5
  1765                           
  1766     0075                     read_ds1307@addr:	
  1767                           ; 1 bytes @ 0x5
  1768                           
  1769     0075                     ext_eeprom_24C02_read@addr:	
  1770                           ; 1 bytes @ 0x5
  1771                           
  1772     0075                     ext_eeprom_24C02_byte_write@addr:	
  1773                           ; 1 bytes @ 0x5
  1774                           
  1775     0075                     ___bmul@product:	
  1776                           ; 1 bytes @ 0x5
  1777                           
  1778     0075                     ___almod@sign:	
  1779                           ; 1 bytes @ 0x5
  1780                           
  1781     0075                     read_adc@adc_reg_val:	
  1782                           ; 1 bytes @ 0x5
  1783                           
  1784     0075                     ___awdiv@dividend:	
  1785                           ; 2 bytes @ 0x5
  1786                           
  1787     0075                     ___awmod@dividend:	
  1788                           ; 2 bytes @ 0x5
  1789                           
  1790     0075                     strcpy@from:	
  1791                           ; 2 bytes @ 0x5
  1792                           
  1793     0075                     strncpy@size:	
  1794                           ; 2 bytes @ 0x5
  1795                           
  1796                           
  1797                           ; 2 bytes @ 0x5
  1798     0075                     	ds	1
  1799     0076                     ??_puts:
  1800     0076                     ?_ext_eeprom_24C02_str_write:	
  1801                           ; 1 bytes @ 0x6
  1802                           
  1803     0076                     ??_strncmp:	
  1804                           ; 1 bytes @ 0x6
  1805                           
  1806     0076                     ??___aldiv:	
  1807                           ; 1 bytes @ 0x6
  1808                           
  1809     0076                     clcd_write@byte:	
  1810                           ; 1 bytes @ 0x6
  1811                           
  1812     0076                     read_ds1307@data:	
  1813                           ; 1 bytes @ 0x6
  1814                           
  1815     0076                     ext_eeprom_24C02_read@data:	
  1816                           ; 1 bytes @ 0x6
  1817                           
  1818     0076                     ___bmul@multiplier:	
  1819                           ; 1 bytes @ 0x6
  1820                           
  1821     0076                     ext_eeprom_24C02_str_write@str:	
  1822                           ; 1 bytes @ 0x6
  1823                           
  1824                           
  1825                           ; 2 bytes @ 0x6
  1826     0076                     	ds	1
  1827     0077                     ??_strcpy:
  1828     0077                     ??_clear_screen:	
  1829                           ; 1 bytes @ 0x7
  1830                           
  1831     0077                     ??_clcd_print:	
  1832                           ; 1 bytes @ 0x7
  1833                           
  1834     0077                     ??_init_display_controller:	
  1835                           ; 1 bytes @ 0x7
  1836                           
  1837     0077                     ??_get_time:	
  1838                           ; 1 bytes @ 0x7
  1839                           
  1840     0077                     ??_get_saved_log:	
  1841                           ; 1 bytes @ 0x7
  1842                           
  1843     0077                     ??___awdiv:	
  1844                           ; 1 bytes @ 0x7
  1845                           
  1846     0077                     ??___awmod:	
  1847                           ; 1 bytes @ 0x7
  1848                           
  1849     0077                     ??___lwdiv:	
  1850                           ; 1 bytes @ 0x7
  1851                           
  1852     0077                     clear_log@reset_flag:	
  1853                           ; 1 bytes @ 0x7
  1854                           
  1855     0077                     strcmp@r:	
  1856                           ; 1 bytes @ 0x7
  1857                           
  1858     0077                     strncpy@to:	
  1859                           ; 1 bytes @ 0x7
  1860                           
  1861                           
  1862                           ; 1 bytes @ 0x7
  1863     0077                     	ds	1
  1864     0078                     ??_ext_eeprom_24C02_str_write:
  1865     0078                     ??_clcd_putch:	
  1866                           ; 1 bytes @ 0x8
  1867                           
  1868     0078                     ?_write_ds1307:	
  1869                           ; 1 bytes @ 0x8
  1870                           
  1871     0078                     clcd_putch@data:	
  1872                           ; 1 bytes @ 0x8
  1873                           
  1874     0078                     write_ds1307@data:	
  1875                           ; 1 bytes @ 0x8
  1876                           
  1877     0078                     download_log@i:	
  1878                           ; 1 bytes @ 0x8
  1879                           
  1880     0078                     ___lldiv@counter:	
  1881                           ; 1 bytes @ 0x8
  1882                           
  1883     0078                     strcmp@s1:	
  1884                           ; 1 bytes @ 0x8
  1885                           
  1886     0078                     strncmp@s1:	
  1887                           ; 1 bytes @ 0x8
  1888                           
  1889     0078                     strncpy@cp:	
  1890                           ; 1 bytes @ 0x8
  1891                           
  1892                           
  1893                           ; 1 bytes @ 0x8
  1894     0078                     	ds	1
  1895     0079                     ??_init_clcd:
  1896     0079                     ??_init_ds1307:	
  1897                           ; 1 bytes @ 0x9
  1898                           
  1899     0079                     ??_write_ds1307:	
  1900                           ; 1 bytes @ 0x9
  1901                           
  1902     0079                     ??_init_config:	
  1903                           ; 1 bytes @ 0x9
  1904                           
  1905     0079                     ??_display_time:	
  1906                           ; 1 bytes @ 0x9
  1907                           
  1908     0079                     ??_print_log:	
  1909                           ; 1 bytes @ 0x9
  1910                           
  1911                           
  1912                           	psect	cstackBANK0
  1913     0020                     __pcstackBANK0:	
  1914                           ; 1 bytes @ 0x9
  1915                           
  1916     0020                     ?_clcd_print:
  1917     0020                     ??_strncpy:	
  1918                           ; 1 bytes @ 0x0
  1919                           
  1920     0020                     ?___lwdiv:	
  1921                           ; 1 bytes @ 0x0
  1922                           
  1923     0020                     ?___lldiv:	
  1924                           ; 2 bytes @ 0x0
  1925                           
  1926     0020                     ?___almod:	
  1927                           ; 4 bytes @ 0x0
  1928                           
  1929     0020                     get_saved_log@log_pos:	
  1930                           ; 4 bytes @ 0x0
  1931                           
  1932     0020                     ext_eeprom_24C02_str_write@addr:	
  1933                           ; 1 bytes @ 0x0
  1934                           
  1935     0020                     ___awdiv@counter:	
  1936                           ; 1 bytes @ 0x0
  1937                           
  1938     0020                     ___awmod@counter:	
  1939                           ; 1 bytes @ 0x0
  1940                           
  1941     0020                     clcd_print@str:	
  1942                           ; 1 bytes @ 0x0
  1943                           
  1944     0020                     ___lwdiv@divisor:	
  1945                           ; 2 bytes @ 0x0
  1946                           
  1947     0020                     strcpy@cp:	
  1948                           ; 2 bytes @ 0x0
  1949                           
  1950     0020                     ___lldiv@divisor:	
  1951                           ; 2 bytes @ 0x0
  1952                           
  1953     0020                     ___almod@divisor:	
  1954                           ; 4 bytes @ 0x0
  1955                           
  1956                           
  1957                           ; 4 bytes @ 0x0
  1958     0020                     	ds	1
  1959     0021                     ??_log_event:
  1960     0021                     get_saved_log@addr:	
  1961                           ; 1 bytes @ 0x1
  1962                           
  1963     0021                     ___awdiv@sign:	
  1964                           ; 1 bytes @ 0x1
  1965                           
  1966     0021                     ___awmod@sign:	
  1967                           ; 1 bytes @ 0x1
  1968                           
  1969                           
  1970                           ; 1 bytes @ 0x1
  1971     0021                     	ds	1
  1972     0022                     clcd_print@addr:
  1973     0022                     log_event@addr:	
  1974                           ; 1 bytes @ 0x2
  1975                           
  1976     0022                     get_saved_log@i:	
  1977                           ; 1 bytes @ 0x2
  1978                           
  1979     0022                     ___awdiv@quotient:	
  1980                           ; 1 bytes @ 0x2
  1981                           
  1982     0022                     ___lwdiv@dividend:	
  1983                           ; 2 bytes @ 0x2
  1984                           
  1985                           
  1986                           ; 2 bytes @ 0x2
  1987     0022                     	ds	1
  1988     0023                     ??_clear_log:
  1989     0023                     ??_download_log:	
  1990                           ; 1 bytes @ 0x3
  1991                           
  1992                           
  1993                           ; 1 bytes @ 0x3
  1994     0023                     	ds	1
  1995     0024                     ?_log_car_event:
  1996     0024                     write_ds1307@addr:	
  1997                           ; 1 bytes @ 0x4
  1998                           
  1999     0024                     log_car_event@speed:	
  2000                           ; 1 bytes @ 0x4
  2001                           
  2002     0024                     ___lwdiv@counter:	
  2003                           ; 1 bytes @ 0x4
  2004                           
  2005     0024                     ___lldiv@dividend:	
  2006                           ; 1 bytes @ 0x4
  2007                           
  2008     0024                     ___almod@dividend:	
  2009                           ; 4 bytes @ 0x4
  2010                           
  2011                           
  2012                           ; 4 bytes @ 0x4
  2013     0024                     	ds	1
  2014     0025                     ??_log_car_event:
  2015     0025                     init_ds1307@dummy:	
  2016                           ; 1 bytes @ 0x5
  2017                           
  2018     0025                     ___lwdiv@quotient:	
  2019                           ; 1 bytes @ 0x5
  2020                           
  2021                           
  2022                           ; 2 bytes @ 0x5
  2023     0025                     	ds	2
  2024     0027                     log_car_event@event:
  2025                           
  2026                           ; 1 bytes @ 0x7
  2027     0027                     	ds	1
  2028     0028                     ?_init_i2c:
  2029     0028                     ?_init_uart:	
  2030                           ; 1 bytes @ 0x8
  2031                           
  2032     0028                     ?___aldiv:	
  2033                           ; 1 bytes @ 0x8
  2034                           
  2035     0028                     init_i2c@baud:	
  2036                           ; 4 bytes @ 0x8
  2037                           
  2038     0028                     init_uart@baud:	
  2039                           ; 4 bytes @ 0x8
  2040                           
  2041     0028                     ___aldiv@divisor:	
  2042                           ; 4 bytes @ 0x8
  2043                           
  2044                           
  2045                           ; 4 bytes @ 0x8
  2046     0028                     	ds	4
  2047     002C                     ??_init_i2c:
  2048     002C                     ??_init_uart:	
  2049                           ; 1 bytes @ 0xC
  2050                           
  2051     002C                     ___aldiv@dividend:	
  2052                           ; 1 bytes @ 0xC
  2053                           
  2054                           
  2055                           ; 4 bytes @ 0xC
  2056     002C                     	ds	4
  2057     0030                     ___aldiv@counter:
  2058                           
  2059                           ; 1 bytes @ 0x10
  2060     0030                     	ds	1
  2061     0031                     ___aldiv@sign:
  2062                           
  2063                           ; 1 bytes @ 0x11
  2064     0031                     	ds	1
  2065     0032                     ___aldiv@quotient:
  2066                           
  2067                           ; 4 bytes @ 0x12
  2068     0032                     	ds	4
  2069     0036                     ?_clcd_putch:
  2070     0036                     clcd_putch@addr:	
  2071                           ; 1 bytes @ 0x16
  2072                           
  2073                           
  2074                           ; 1 bytes @ 0x16
  2075     0036                     	ds	1
  2076     0037                     ?_display_default_screen:
  2077     0037                     ?_login:	
  2078                           ; 1 bytes @ 0x17
  2079                           
  2080     0037                     ?_login_menu:	
  2081                           ; 1 bytes @ 0x17
  2082                           
  2083     0037                     ?_edit_time:	
  2084                           ; 1 bytes @ 0x17
  2085                           
  2086     0037                     ?_change_password:	
  2087                           ; 1 bytes @ 0x17
  2088                           
  2089     0037                     display_default_screen@speed:	
  2090                           ; 1 bytes @ 0x17
  2091                           
  2092     0037                     login@key:	
  2093                           ; 1 bytes @ 0x17
  2094                           
  2095     0037                     login_menu@key:	
  2096                           ; 1 bytes @ 0x17
  2097                           
  2098     0037                     print_log@log_pos:	
  2099                           ; 1 bytes @ 0x17
  2100                           
  2101     0037                     edit_time@key:	
  2102                           ; 1 bytes @ 0x17
  2103                           
  2104     0037                     change_password@key:	
  2105                           ; 1 bytes @ 0x17
  2106                           
  2107                           
  2108                           ; 1 bytes @ 0x17
  2109     0037                     	ds	1
  2110     0038                     ??_display_default_screen:
  2111     0038                     ??_login:	
  2112                           ; 1 bytes @ 0x18
  2113                           
  2114     0038                     ??_login_menu:	
  2115                           ; 1 bytes @ 0x18
  2116                           
  2117     0038                     ?_view_log:	
  2118                           ; 1 bytes @ 0x18
  2119                           
  2120     0038                     ??_edit_time:	
  2121                           ; 1 bytes @ 0x18
  2122                           
  2123     0038                     ??_change_password:	
  2124                           ; 1 bytes @ 0x18
  2125                           
  2126     0038                     view_log@key:	
  2127                           ; 1 bytes @ 0x18
  2128                           
  2129                           
  2130                           ; 1 bytes @ 0x18
  2131     0038                     	ds	1
  2132     0039                     ??_view_log:
  2133                           
  2134                           ; 1 bytes @ 0x19
  2135     0039                     	ds	1
  2136     003A                     display_default_screen@event:
  2137     003A                     login_menu@reset_flag:	
  2138                           ; 1 bytes @ 0x1A
  2139                           
  2140     003A                     edit_time@reset_flag:	
  2141                           ; 1 bytes @ 0x1A
  2142                           
  2143                           
  2144                           ; 1 bytes @ 0x1A
  2145     003A                     	ds	1
  2146     003B                     change_password@reset_flag:
  2147     003B                     login@saved_passwd:	
  2148                           ; 1 bytes @ 0x1B
  2149                           
  2150                           
  2151                           ; 4 bytes @ 0x1B
  2152     003B                     	ds	1
  2153     003C                     view_log@reset_flag:
  2154     003C                     change_password@i_442:	
  2155                           ; 1 bytes @ 0x1C
  2156                           
  2157                           
  2158                           ; 2 bytes @ 0x1C
  2159     003C                     	ds	3
  2160     003F                     _login$1140:
  2161                           
  2162                           ; 4 bytes @ 0x1F
  2163     003F                     	ds	4
  2164     0043                     login@reset_flag:
  2165                           
  2166                           ; 1 bytes @ 0x23
  2167     0043                     	ds	1
  2168     0044                     login@j:
  2169                           
  2170                           ; 2 bytes @ 0x24
  2171     0044                     	ds	2
  2172     0046                     ??_main:
  2173                           
  2174                           ; 1 bytes @ 0x26
  2175     0046                     	ds	7
  2176                           
  2177                           	psect	maintext
  2178     0040                     __pmaintext:	
  2179 ;;
  2180 ;;Main: autosize = 0, tempsize = 7, incstack = 0, save=0
  2181 ;;
  2182 ;; *************** function _main *****************
  2183 ;; Defined at:
  2184 ;;		line 45 in file "main.c"
  2185 ;; Parameters:    Size  Location     Type
  2186 ;;		None
  2187 ;; Auto vars:     Size  Location     Type
  2188 ;;  event           3    2[BANK3 ] unsigned char [3]
  2189 ;;  control_flag    1    9[BANK3 ] unsigned char 
  2190 ;;  key             1    8[BANK3 ] unsigned char 
  2191 ;;  reset_flag      1    7[BANK3 ] unsigned char 
  2192 ;;  speed           1    6[BANK3 ] unsigned char 
  2193 ;;  gr              1    5[BANK3 ] unsigned char 
  2194 ;;  return_val      1    1[BANK3 ] unsigned char 
  2195 ;;  menu_pos        1    0[BANK3 ] unsigned char 
  2196 ;; Return value:  Size  Location     Type
  2197 ;;                  1    wreg      void 
  2198 ;; Registers used:
  2199 ;;		wreg, fsr0l, fsr0h, status,2, status,0, btemp+1, pclath, cstack
  2200 ;; Tracked objects:
  2201 ;;		On entry : B00/0
  2202 ;;		On exit  : 0/0
  2203 ;;		Unchanged: 0/0
  2204 ;; Data sizes:     COMMON   BANK0   BANK1   BANK3   BANK2
  2205 ;;      Params:         0       0       0       0       0
  2206 ;;      Locals:         0       0       0      10       0
  2207 ;;      Temps:          0       7       0       0       0
  2208 ;;      Totals:         0       7       0      10       0
  2209 ;;Total ram usage:       17 bytes
  2210 ;; Hardware stack levels required when called: 8
  2211 ;; This function calls:
  2212 ;;		___awdiv
  2213 ;;		___awmod
  2214 ;;		___lwdiv
  2215 ;;		_change_password
  2216 ;;		_clcd_print
  2217 ;;		_clcd_putch
  2218 ;;		_clcd_write
  2219 ;;		_clear_log
  2220 ;;		_clear_screen
  2221 ;;		_display_default_screen
  2222 ;;		_download_log
  2223 ;;		_edit_time
  2224 ;;		_ext_eeprom_24C02_str_write
  2225 ;;		_init_config
  2226 ;;		_log_car_event
  2227 ;;		_login
  2228 ;;		_login_menu
  2229 ;;		_read_adc
  2230 ;;		_read_digital_keypad
  2231 ;;		_strcmp
  2232 ;;		_strcpy
  2233 ;;		_view_log
  2234 ;;		_write_ds1307
  2235 ;; This function is called by:
  2236 ;;		Startup code after reset
  2237 ;; This function uses a non-reentrant model
  2238 ;;
  2239                           
  2240     0040                     _main:	
  2241                           ;psect for function _main
  2242                           
  2243     0040                     l5637:	
  2244                           ;incstack = 0
  2245                           ; Regs used in _main: [wreg-fsr0h+status,2+status,0+btemp+1+pclath+cstack]
  2246                           
  2247                           
  2248                           ;main.c: 46: 
  2249     0040  1683               	bsf	3,5	;RP0=1, select bank3
  2250     0041  1703               	bsf	3,6	;RP1=1, select bank3
  2251     0042  0199               	clrf	main@control_flag^(0+384)
  2252     0043  0A99               	incf	main@control_flag^(0+384),f
  2253     0044                     l5639:
  2254                           
  2255                           ;main.c: 47:     ext_eeprom_24C02_str_write(0x00, "1010");
  2256     0044  1683               	bsf	3,5	;RP0=1, select bank1
  2257     0045  1303               	bcf	3,6	;RP1=0, select bank1
  2258     0046  086D               	movf	main@F1020^(0+128),w
  2259     0047  1683               	bsf	3,5	;RP0=1, select bank3
  2260     0048  1703               	bsf	3,6	;RP1=1, select bank3
  2261     0049  0092               	movwf	main@event^(0+384)
  2262     004A  1683               	bsf	3,5	;RP0=1, select bank1
  2263     004B  1303               	bcf	3,6	;RP1=0, select bank1
  2264     004C  086E               	movf	(main@F1020+1)^(0+128),w
  2265     004D  1683               	bsf	3,5	;RP0=1, select bank3
  2266     004E  1703               	bsf	3,6	;RP1=1, select bank3
  2267     004F  0093               	movwf	(main@event+1)^(0+384)
  2268     0050  1683               	bsf	3,5	;RP0=1, select bank1
  2269     0051  1303               	bcf	3,6	;RP1=0, select bank1
  2270     0052  086F               	movf	(main@F1020+2)^(0+128),w
  2271     0053  1683               	bsf	3,5	;RP0=1, select bank3
  2272     0054  1703               	bsf	3,6	;RP1=1, select bank3
  2273     0055  0094               	movwf	(main@event+2)^(0+384)
  2274     0056                     l5641:
  2275     0056                     l5643:
  2276     0056  0195               	clrf	main@gr^(0+384)
  2277     0057                     l5645:
  2278                           
  2279                           ;main.c: 49:     while (1) {;main.c: 52:         if (speed > 99)
  2280     0057  160A  118A  245C  120A  118A  	fcall	_init_config
  2281     005C                     l5647:
  2282                           
  2283                           ;main.c: 55:         }
  2284     005C  1283               	bcf	3,5	;RP0=0, select bank0
  2285     005D  1303               	bcf	3,6	;RP1=0, select bank0
  2286     005E  01A4               	clrf	log_car_event@speed
  2287     005F  3092               	movlw	(low (main@event| (0+256)))& (0+255)
  2288     0060  160A  118A  2682  120A  118A  	fcall	_log_car_event
  2289     0065                     l5649:
  2290                           
  2291                           ;main.c: 59:         if ((key != 0x3F) && (key != 0x1F))
  2292     0065  3063               	movlw	low (STR_8| (0+32768))
  2293     0066  00F6               	movwf	ext_eeprom_24C02_str_write@str
  2294     0067  3091               	movlw	high (STR_8| (0+32768))
  2295     0068  00F7               	movwf	ext_eeprom_24C02_str_write@str+1
  2296     0069  3000               	movlw	0
  2297     006A  160A  118A  22F5  120A  118A  	fcall	_ext_eeprom_24C02_str_write
  2298     006F                     l5651:
  2299                           
  2300                           ;main.c: 63:                 press++;
  2301     006F  300A               	movlw	10
  2302     0070  1283               	bcf	3,5	;RP0=0, select bank0
  2303     0071  1303               	bcf	3,6	;RP1=0, select bank0
  2304     0072  00A0               	movwf	___lwdiv@divisor
  2305     0073  3000               	movlw	0
  2306     0074  00A1               	movwf	___lwdiv@divisor+1
  2307     0075  160A  158A  279E  120A  118A  	fcall	_read_adc
  2308     007A  0874               	movf	?_read_adc+1,w
  2309     007B  1283               	bcf	3,5	;RP0=0, select bank0
  2310     007C  1303               	bcf	3,6	;RP1=0, select bank0
  2311     007D  00A3               	movwf	___lwdiv@dividend+1
  2312     007E  0873               	movf	?_read_adc,w
  2313     007F  00A2               	movwf	___lwdiv@dividend
  2314     0080  160A  118A  249F  120A  118A  	fcall	___lwdiv
  2315     0085  1283               	bcf	3,5	;RP0=0, select bank0
  2316     0086  1303               	bcf	3,6	;RP1=0, select bank0
  2317     0087  0820               	movf	?___lwdiv,w
  2318     0088  1683               	bsf	3,5	;RP0=1, select bank3
  2319     0089  1703               	bsf	3,6	;RP1=1, select bank3
  2320     008A  0096               	movwf	main@speed^(0+384)
  2321     008B                     l5653:
  2322                           
  2323                           ;main.c: 64:                 pre_key = key;
  2324     008B  3064               	movlw	100
  2325     008C  0216               	subwf	main@speed^(0+384),w
  2326     008D  1C03               	skipc
  2327     008E  2890               	goto	u5771
  2328     008F  2891               	goto	u5770
  2329     0090                     u5771:
  2330     0090  2893               	goto	l5657
  2331     0091                     u5770:
  2332     0091                     l5655:
  2333                           
  2334                           ;main.c: 65:             };main.c: 66:         }
  2335     0091  3063               	movlw	99
  2336     0092  0096               	movwf	main@speed^(0+384)
  2337     0093                     l5657:
  2338                           
  2339                           ;main.c: 70: 
  2340     0093  3000               	movlw	0
  2341     0094  160A  118A  2275  120A  118A  	fcall	_read_digital_keypad
  2342     0099  1683               	bsf	3,5	;RP0=1, select bank3
  2343     009A  1703               	bsf	3,6	;RP1=1, select bank3
  2344     009B  0098               	movwf	main@key^(0+384)
  2345     009C                     l5659:
  2346                           
  2347                           ;main.c: 71: 
  2348     009C  303F               	movlw	63
  2349     009D  0618               	xorwf	main@key^(0+384),w
  2350     009E  1903               	btfsc	3,2
  2351     009F  28A1               	goto	u5781
  2352     00A0  28A2               	goto	u5780
  2353     00A1                     u5781:
  2354     00A1  28BD               	goto	l5667
  2355     00A2                     u5780:
  2356     00A2                     l5661:
  2357     00A2  301F               	movlw	31
  2358     00A3  0618               	xorwf	main@key^(0+384),w
  2359     00A4  1903               	btfsc	3,2
  2360     00A5  28A7               	goto	u5791
  2361     00A6  28A8               	goto	u5790
  2362     00A7                     u5791:
  2363     00A7  28BD               	goto	l5667
  2364     00A8                     u5790:
  2365     00A8                     l5663:
  2366                           
  2367                           ;main.c: 72: ;main.c: 73:         if (key == 0x3F)
  2368     00A8  3004               	movlw	4
  2369     00A9  1283               	bcf	3,5	;RP0=0, select bank0
  2370     00AA  1303               	bcf	3,6	;RP1=0, select bank0
  2371     00AB  0668               	xorwf	_pre_control_flag,w
  2372     00AC  1903               	btfsc	3,2
  2373     00AD  28AF               	goto	u5801
  2374     00AE  28B0               	goto	u5800
  2375     00AF                     u5801:
  2376     00AF  28CA               	goto	l5671
  2377     00B0                     u5800:
  2378     00B0                     l5665:
  2379                           
  2380                           ;main.c: 74:         {;main.c: 75:             if (control_flag == 0x01)
  2381     00B0  3001               	movlw	1
  2382     00B1  07DD               	addwf	_press,f
  2383     00B2  1803               	skipnc
  2384     00B3  0ADE               	incf	_press+1,f
  2385     00B4  3000               	movlw	0
  2386     00B5  07DE               	addwf	_press+1,f
  2387                           
  2388                           ;main.c: 76:             {
  2389     00B6  1683               	bsf	3,5	;RP0=1, select bank3
  2390     00B7  1703               	bsf	3,6	;RP1=1, select bank3
  2391     00B8  0818               	movf	main@key^(0+384),w
  2392     00B9  1283               	bcf	3,5	;RP0=0, select bank0
  2393     00BA  1303               	bcf	3,6	;RP1=0, select bank0
  2394     00BB  00E9               	movwf	_pre_key
  2395     00BC  28CA               	goto	l5671
  2396     00BD                     l5667:
  2397     00BD  303F               	movlw	63
  2398     00BE  0618               	xorwf	main@key^(0+384),w
  2399     00BF  1D03               	btfss	3,2
  2400     00C0  28C2               	goto	u5811
  2401     00C1  28C3               	goto	u5810
  2402     00C2                     u5811:
  2403     00C2  28CA               	goto	l5671
  2404     00C3                     u5810:
  2405     00C3                     l5669:
  2406                           
  2407                           ;main.c: 80:                     log_car_event(event, speed);
  2408     00C3  1283               	bcf	3,5	;RP0=0, select bank0
  2409     00C4  1303               	bcf	3,6	;RP1=0, select bank0
  2410     00C5  01E8               	clrf	_pre_control_flag
  2411     00C6  3000               	movlw	0
  2412     00C7  00DD               	movwf	_press
  2413     00C8  3000               	movlw	0
  2414     00C9  00DE               	movwf	_press+1
  2415     00CA                     l5671:
  2416                           
  2417                           ;main.c: 85:                 {
  2418     00CA  303F               	movlw	63
  2419     00CB  1683               	bsf	3,5	;RP0=1, select bank3
  2420     00CC  1703               	bsf	3,6	;RP1=1, select bank3
  2421     00CD  0618               	xorwf	main@key^(0+384),w
  2422     00CE  1D03               	btfss	3,2
  2423     00CF  28D1               	goto	u5821
  2424     00D0  28D2               	goto	u5820
  2425     00D1                     u5821:
  2426     00D1  29D5               	goto	l5725
  2427     00D2                     u5820:
  2428     00D2                     l5673:
  2429                           
  2430                           ;main.c: 86:                     strcpy(event, gear[gr]);;main.c: 87:                   
      +                            gr++;
  2431     00D2  0319               	decf	main@control_flag^(0+384),w
  2432     00D3  1D03               	btfss	3,2
  2433     00D4  28D6               	goto	u5831
  2434     00D5  28D7               	goto	u5830
  2435     00D6                     u5831:
  2436     00D6  29D5               	goto	l5725
  2437     00D7                     u5830:
  2438     00D7                     l5675:
  2439                           
  2440                           ;main.c: 88:                     log_car_event(event, speed);;main.c: 89:               
      +                                pre_key = press = 0;
  2441     00D7  303E               	movlw	62
  2442     00D8  1283               	bcf	3,5	;RP0=0, select bank0
  2443     00D9  1303               	bcf	3,6	;RP1=0, select bank0
  2444     00DA  0669               	xorwf	_pre_key,w
  2445     00DB  1D03               	btfss	3,2
  2446     00DC  28DE               	goto	u5841
  2447     00DD  28DF               	goto	u5840
  2448     00DE                     u5841:
  2449     00DE  2912               	goto	l5683
  2450     00DF                     u5840:
  2451     00DF                     l5677:
  2452     00DF  3068               	movlw	low (STR_9| (0+32768))
  2453     00E0  00F3               	movwf	strcmp@s2
  2454     00E1  3091               	movlw	high (STR_9| (0+32768))
  2455     00E2  00F4               	movwf	strcmp@s2+1
  2456     00E3  3092               	movlw	(low (main@event| (0+256)))& (0+255)
  2457     00E4  160A  118A  2386  120A  118A  	fcall	_strcmp
  2458     00E9  0873               	movf	?_strcmp,w
  2459     00EA  0474               	iorwf	?_strcmp+1,w
  2460     00EB  1903               	btfsc	3,2
  2461     00EC  28EE               	goto	u5851
  2462     00ED  28EF               	goto	u5850
  2463     00EE                     u5851:
  2464     00EE  2912               	goto	l5683
  2465     00EF                     u5850:
  2466     00EF                     l5679:
  2467                           
  2468                           ;main.c: 90:                 };main.c: 91: 
  2469     00EF  3092               	movlw	(low (main@event| (0+256)))& (0+255)
  2470     00F0  00F3               	movwf	strcpy@to
  2471     00F1  3001               	movlw	1
  2472     00F2  00F4               	movwf	strcpy@to+1
  2473     00F3  3068               	movlw	low (STR_9| (0+32768))
  2474     00F4  00F5               	movwf	strcpy@from
  2475     00F5  3091               	movlw	high (STR_9| (0+32768))
  2476     00F6  00F6               	movwf	strcpy@from+1
  2477     00F7  160A  118A  224B  120A  118A  	fcall	_strcpy
  2478                           
  2479                           ;main.c: 92:                 else if (pre_key == 0x3B && gr > 0)
  2480     00FC  1683               	bsf	3,5	;RP0=1, select bank3
  2481     00FD  1703               	bsf	3,6	;RP1=1, select bank3
  2482     00FE  0816               	movf	main@speed^(0+384),w
  2483     00FF  1283               	bcf	3,5	;RP0=0, select bank0
  2484     0100  1303               	bcf	3,6	;RP1=0, select bank0
  2485     0101  00A4               	movwf	log_car_event@speed
  2486     0102  3092               	movlw	(low (main@event| (0+256)))& (0+255)
  2487     0103  160A  118A  2682  120A  118A  	fcall	_log_car_event
  2488     0108                     l5681:
  2489                           
  2490                           ;main.c: 93:                 {
  2491     0108  1283               	bcf	3,5	;RP0=0, select bank0
  2492     0109  1303               	bcf	3,6	;RP1=0, select bank0
  2493     010A  01DD               	clrf	_press
  2494     010B  01DE               	clrf	_press+1
  2495     010C  1003               	clrc
  2496     010D  3000               	movlw	0
  2497     010E  1803               	btfsc	3,0
  2498     010F  3001               	movlw	1
  2499     0110  00E9               	movwf	_pre_key
  2500                           
  2501                           ;main.c: 94:                     gr--;
  2502     0111  29D5               	goto	l5725
  2503     0112                     l5683:
  2504     0112  303D               	movlw	61
  2505     0113  1283               	bcf	3,5	;RP0=0, select bank0
  2506     0114  1303               	bcf	3,6	;RP1=0, select bank0
  2507     0115  0669               	xorwf	_pre_key,w
  2508     0116  1D03               	btfss	3,2
  2509     0117  2919               	goto	u5861
  2510     0118  291A               	goto	u5860
  2511     0119                     u5861:
  2512     0119  2955               	goto	l5693
  2513     011A                     u5860:
  2514     011A                     l5685:
  2515     011A  3006               	movlw	6
  2516     011B  1683               	bsf	3,5	;RP0=1, select bank3
  2517     011C  1703               	bsf	3,6	;RP1=1, select bank3
  2518     011D  0215               	subwf	main@gr^(0+384),w
  2519     011E  1803               	skipnc
  2520     011F  2921               	goto	u5871
  2521     0120  2922               	goto	u5870
  2522     0121                     u5871:
  2523     0121  2955               	goto	l5693
  2524     0122                     u5870:
  2525     0122                     l5687:
  2526                           
  2527                           ;main.c: 97:                     pre_key = press = 0;;main.c: 98:                 }
  2528     0122  3092               	movlw	(low (main@event| (0+256)))& (0+255)
  2529     0123  00F3               	movwf	strcpy@to
  2530     0124  3001               	movlw	1
  2531     0125  00F4               	movwf	strcpy@to+1
  2532     0126  0815               	movf	main@gr^(0+384),w
  2533     0127  1283               	bcf	3,5	;RP0=0, select bank0
  2534     0128  1303               	bcf	3,6	;RP1=0, select bank0
  2535     0129  00C6               	movwf	??_main
  2536     012A  0746               	addwf	??_main,w
  2537     012B  3ED7               	addlw	(low (_gear| 0))& (0+255)
  2538     012C  0084               	movwf	4
  2539     012D  1383               	bcf	3,7	;select IRP bank1
  2540     012E  0800               	movf	0,w
  2541     012F  00F5               	movwf	strcpy@from
  2542     0130  0A84               	incf	4,f
  2543     0131  0800               	movf	0,w
  2544     0132  0384               	decf	4,f
  2545     0133  00F6               	movwf	strcpy@from+1
  2546     0134  160A  118A  224B  120A  118A  	fcall	_strcpy
  2547     0139                     l5689:
  2548                           
  2549                           ;main.c: 99: 
  2550     0139  3001               	movlw	1
  2551     013A  1283               	bcf	3,5	;RP0=0, select bank0
  2552     013B  1303               	bcf	3,6	;RP1=0, select bank0
  2553     013C  00C6               	movwf	??_main
  2554     013D  0846               	movf	??_main,w
  2555     013E  1683               	bsf	3,5	;RP0=1, select bank3
  2556     013F  1703               	bsf	3,6	;RP1=1, select bank3
  2557     0140  0795               	addwf	main@gr^(0+384),f
  2558     0141                     l5691:
  2559                           
  2560                           ;main.c: 100: 
  2561     0141  0816               	movf	main@speed^(0+384),w
  2562     0142  1283               	bcf	3,5	;RP0=0, select bank0
  2563     0143  1303               	bcf	3,6	;RP1=0, select bank0
  2564     0144  00A4               	movwf	log_car_event@speed
  2565     0145  3092               	movlw	(low (main@event| (0+256)))& (0+255)
  2566     0146  160A  118A  2682  120A  118A  	fcall	_log_car_event
  2567                           
  2568                           ;main.c: 101:                 else if (pre_key == 0x37 || pre_key == 0x2F)
  2569     014B  1283               	bcf	3,5	;RP0=0, select bank0
  2570     014C  1303               	bcf	3,6	;RP1=0, select bank0
  2571     014D  01DD               	clrf	_press
  2572     014E  01DE               	clrf	_press+1
  2573     014F  1003               	clrc
  2574     0150  3000               	movlw	0
  2575     0151  1803               	btfsc	3,0
  2576     0152  3001               	movlw	1
  2577     0153  00E9               	movwf	_pre_key
  2578                           
  2579                           ;main.c: 102:                 {
  2580     0154  29D5               	goto	l5725
  2581     0155                     l5693:
  2582     0155  303B               	movlw	59
  2583     0156  1283               	bcf	3,5	;RP0=0, select bank0
  2584     0157  1303               	bcf	3,6	;RP1=0, select bank0
  2585     0158  0669               	xorwf	_pre_key,w
  2586     0159  1D03               	btfss	3,2
  2587     015A  295C               	goto	u5881
  2588     015B  295D               	goto	u5880
  2589     015C                     u5881:
  2590     015C  2993               	goto	l5703
  2591     015D                     u5880:
  2592     015D                     l5695:
  2593     015D  1683               	bsf	3,5	;RP0=1, select bank3
  2594     015E  1703               	bsf	3,6	;RP1=1, select bank3
  2595     015F  0815               	movf	main@gr^(0+384),w
  2596     0160  1903               	btfsc	3,2
  2597     0161  2963               	goto	u5891
  2598     0162  2964               	goto	u5890
  2599     0163                     u5891:
  2600     0163  2993               	goto	l5703
  2601     0164                     u5890:
  2602     0164                     l5697:
  2603                           
  2604                           ;main.c: 105:                     clcd_putch(' ', (0xC0 + 5));;main.c: 106:             
      +                                  clcd_write(0x0F, 0);
  2605     0164  3001               	movlw	1
  2606     0165  0295               	subwf	main@gr^(0+384),f
  2607     0166                     l5699:
  2608                           
  2609                           ;main.c: 107:                     _delay((unsigned long)((100)*(20000000/4000000.0)));
  2610     0166  3092               	movlw	(low (main@event| (0+256)))& (0+255)
  2611     0167  00F3               	movwf	strcpy@to
  2612     0168  3001               	movlw	1
  2613     0169  00F4               	movwf	strcpy@to+1
  2614     016A  0815               	movf	main@gr^(0+384),w
  2615     016B  1283               	bcf	3,5	;RP0=0, select bank0
  2616     016C  1303               	bcf	3,6	;RP1=0, select bank0
  2617     016D  00C6               	movwf	??_main
  2618     016E  0746               	addwf	??_main,w
  2619     016F  3ED7               	addlw	(low (_gear| 0))& (0+255)
  2620     0170  0084               	movwf	4
  2621     0171  1383               	bcf	3,7	;select IRP bank1
  2622     0172  0800               	movf	0,w
  2623     0173  00F5               	movwf	strcpy@from
  2624     0174  0A84               	incf	4,f
  2625     0175  0800               	movf	0,w
  2626     0176  0384               	decf	4,f
  2627     0177  00F6               	movwf	strcpy@from+1
  2628     0178  160A  118A  224B  120A  118A  	fcall	_strcpy
  2629     017D                     l5701:
  2630                           
  2631                           ;main.c: 108:                     control_flag = 0x02;
  2632     017D  1683               	bsf	3,5	;RP0=1, select bank3
  2633     017E  1703               	bsf	3,6	;RP1=1, select bank3
  2634     017F  0816               	movf	main@speed^(0+384),w
  2635     0180  1283               	bcf	3,5	;RP0=0, select bank0
  2636     0181  1303               	bcf	3,6	;RP1=0, select bank0
  2637     0182  00A4               	movwf	log_car_event@speed
  2638     0183  3092               	movlw	(low (main@event| (0+256)))& (0+255)
  2639     0184  160A  118A  2682  120A  118A  	fcall	_log_car_event
  2640                           
  2641                           ;main.c: 109:                     reset_flag = 0x01;
  2642     0189  1283               	bcf	3,5	;RP0=0, select bank0
  2643     018A  1303               	bcf	3,6	;RP1=0, select bank0
  2644     018B  01DD               	clrf	_press
  2645     018C  01DE               	clrf	_press+1
  2646     018D  1003               	clrc
  2647     018E  3000               	movlw	0
  2648     018F  1803               	btfsc	3,0
  2649     0190  3001               	movlw	1
  2650     0191  00E9               	movwf	_pre_key
  2651                           
  2652                           ;main.c: 110:                     TMR2ON = 1;
  2653     0192  29D5               	goto	l5725
  2654     0193                     l5703:
  2655     0193  3037               	movlw	55
  2656     0194  1283               	bcf	3,5	;RP0=0, select bank0
  2657     0195  1303               	bcf	3,6	;RP1=0, select bank0
  2658     0196  0669               	xorwf	_pre_key,w
  2659     0197  1903               	btfsc	3,2
  2660     0198  299A               	goto	u5901
  2661     0199  299B               	goto	u5900
  2662     019A                     u5901:
  2663     019A  29A1               	goto	l5707
  2664     019B                     u5900:
  2665     019B                     l5705:
  2666     019B  302F               	movlw	47
  2667     019C  0669               	xorwf	_pre_key,w
  2668     019D  1D03               	btfss	3,2
  2669     019E  29A0               	goto	u5911
  2670     019F  29A1               	goto	u5910
  2671     01A0                     u5911:
  2672     01A0  29D5               	goto	l97
  2673     01A1                     u5910:
  2674     01A1                     l5707:
  2675                           
  2676                           ;main.c: 114:         };main.c: 115: 
  2677     01A1  160A  158A  278D  120A  118A  	fcall	_clear_screen
  2678     01A6                     l5709:
  2679                           
  2680                           ;main.c: 116: 
  2681     01A6  30CC               	movlw	low (STR_12| (0+32768))
  2682     01A7  1283               	bcf	3,5	;RP0=0, select bank0
  2683     01A8  1303               	bcf	3,6	;RP1=0, select bank0
  2684     01A9  00A0               	movwf	clcd_print@str
  2685     01AA  3090               	movlw	high (STR_12| (0+32768))
  2686     01AB  00A1               	movwf	clcd_print@str+1
  2687     01AC  3080               	movlw	128
  2688     01AD  00A2               	movwf	clcd_print@addr
  2689     01AE  160A  118A  23B8  120A  118A  	fcall	_clcd_print
  2690     01B3                     l5711:
  2691                           
  2692                           ;main.c: 117:         if (press > 13)
  2693     01B3  30C5               	movlw	197
  2694     01B4  1283               	bcf	3,5	;RP0=0, select bank0
  2695     01B5  1303               	bcf	3,6	;RP1=0, select bank0
  2696     01B6  00B6               	movwf	clcd_putch@addr
  2697     01B7  3020               	movlw	32
  2698     01B8  160A  158A  27B0  120A  118A  	fcall	_clcd_putch
  2699     01BD                     l5713:
  2700                           
  2701                           ;main.c: 118:         {
  2702     01BD  01F3               	clrf	clcd_write@mode
  2703     01BE  300F               	movlw	15
  2704     01BF  160A  118A  21C2  120A  118A  	fcall	_clcd_write
  2705     01C4                     l5715:
  2706                           
  2707                           ;main.c: 119:             if (pre_key == 0x37)
  2708     01C4  30A5               	movlw	165
  2709     01C5  1283               	bcf	3,5	;RP0=0, select bank0
  2710     01C6  1303               	bcf	3,6	;RP1=0, select bank0
  2711     01C7  00C6               	movwf	??_main
  2712     01C8                     u6137:
  2713     01C8  0BC6               	decfsz	??_main,f
  2714     01C9  29C8               	goto	u6137
  2715     01CA  29CB               	nop2
  2716     01CB                     l5717:
  2717                           
  2718                           ;main.c: 120:             {
  2719     01CB  3002               	movlw	2
  2720     01CC  1683               	bsf	3,5	;RP0=1, select bank3
  2721     01CD  1703               	bsf	3,6	;RP1=1, select bank3
  2722     01CE  0099               	movwf	main@control_flag^(0+384)
  2723     01CF                     l5719:
  2724                           
  2725                           ;main.c: 121:                 if (control_flag == 0x04)
  2726     01CF  0197               	clrf	main@reset_flag^(0+384)
  2727     01D0  0A97               	incf	main@reset_flag^(0+384),f
  2728     01D1                     l5721:
  2729                           
  2730                           ;main.c: 122:                 {
  2731     01D1  1283               	bcf	3,5	;RP0=0, select bank0
  2732     01D2  1303               	bcf	3,6	;RP1=0, select bank0
  2733     01D3  1512               	bsf	18,2	;volatile
  2734     01D4  2908               	goto	l5681
  2735     01D5                     l97:
  2736     01D5                     l5725:
  2737                           
  2738                           ;main.c: 129:                             reset_flag = 0x08;
  2739     01D5  1283               	bcf	3,5	;RP0=0, select bank0
  2740     01D6  1303               	bcf	3,6	;RP1=0, select bank0
  2741     01D7  085E               	movf	_press+1,w
  2742     01D8  3A80               	xorlw	128
  2743     01D9  00FF               	movwf	btemp+1
  2744     01DA  3080               	movlw	128
  2745     01DB  027F               	subwf	btemp+1,w
  2746     01DC  1D03               	skipz
  2747     01DD  29E0               	goto	u5925
  2748     01DE  300E               	movlw	14
  2749     01DF  025D               	subwf	_press,w
  2750     01E0                     u5925:
  2751     01E0  1C03               	skipc
  2752     01E1  29E3               	goto	u5921
  2753     01E2  29E4               	goto	u5920
  2754     01E3                     u5921:
  2755     01E3  2B65               	goto	l105
  2756     01E4                     u5920:
  2757     01E4                     l5727:
  2758                           
  2759                           ;main.c: 130:                             break;;main.c: 131:                         ca
      +                          se 1:
  2760     01E4  3037               	movlw	55
  2761     01E5  1283               	bcf	3,5	;RP0=0, select bank0
  2762     01E6  1303               	bcf	3,6	;RP1=0, select bank0
  2763     01E7  0669               	xorwf	_pre_key,w
  2764     01E8  1D03               	btfss	3,2
  2765     01E9  29EB               	goto	u5931
  2766     01EA  29EC               	goto	u5930
  2767     01EB                     u5931:
  2768     01EB  2B1E               	goto	l5771
  2769     01EC                     u5930:
  2770     01EC                     l5729:
  2771                           
  2772                           ;main.c: 132: ;main.c: 133:                             control_flag = 0x10;
  2773     01EC  3004               	movlw	4
  2774     01ED  1683               	bsf	3,5	;RP0=1, select bank3
  2775     01EE  1703               	bsf	3,6	;RP1=1, select bank3
  2776     01EF  0619               	xorwf	main@control_flag^(0+384),w
  2777     01F0  1D03               	btfss	3,2
  2778     01F1  29F3               	goto	u5941
  2779     01F2  29F4               	goto	u5940
  2780     01F3                     u5941:
  2781     01F3  2A37               	goto	l5749
  2782     01F4                     u5940:
  2783     01F4                     l5731:
  2784                           
  2785                           ;main.c: 134:                             reset_flag = 0x04;;main.c: 135:               
      +                                        break;
  2786     01F4  3004               	movlw	4
  2787     01F5  1283               	bcf	3,5	;RP0=0, select bank0
  2788     01F6  1303               	bcf	3,6	;RP1=0, select bank0
  2789     01F7  00E8               	movwf	_pre_control_flag
  2790                           
  2791                           ;main.c: 136:                         case 2:
  2792     01F8  2A1A               	goto	l5747
  2793     01F9                     l5733:
  2794                           
  2795                           ;main.c: 140:                         case 3:
  2796     01F9  3008               	movlw	8
  2797     01FA  1683               	bsf	3,5	;RP0=1, select bank3
  2798     01FB  1703               	bsf	3,6	;RP1=1, select bank3
  2799     01FC  0099               	movwf	main@control_flag^(0+384)
  2800                           
  2801                           ;main.c: 141: 
  2802     01FD  3008               	movlw	8
  2803     01FE  0097               	movwf	main@reset_flag^(0+384)
  2804                           
  2805                           ;main.c: 142:                             control_flag = 0x40;
  2806     01FF  2B14               	goto	l5769
  2807     0200                     l5735:
  2808                           
  2809                           ;main.c: 145:                         case 4:
  2810     0200  3010               	movlw	16
  2811     0201  1683               	bsf	3,5	;RP0=1, select bank3
  2812     0202  1703               	bsf	3,6	;RP1=1, select bank3
  2813     0203  0099               	movwf	main@control_flag^(0+384)
  2814                           
  2815                           ;main.c: 146: 
  2816     0204  3004               	movlw	4
  2817     0205  0097               	movwf	main@reset_flag^(0+384)
  2818                           
  2819                           ;main.c: 147:                             control_flag = 0x80;
  2820     0206  2B14               	goto	l5769
  2821     0207                     l5737:
  2822                           
  2823                           ;main.c: 150:                     }
  2824     0207  3020               	movlw	32
  2825     0208  1683               	bsf	3,5	;RP0=1, select bank3
  2826     0209  1703               	bsf	3,6	;RP1=1, select bank3
  2827     020A  0099               	movwf	main@control_flag^(0+384)
  2828                           
  2829                           ;main.c: 151:                 }
  2830     020B  2B14               	goto	l5769
  2831     020C                     l5739:
  2832                           
  2833                           ;main.c: 154:                     control_flag = 0x04;
  2834     020C  3040               	movlw	64
  2835     020D  1683               	bsf	3,5	;RP0=1, select bank3
  2836     020E  1703               	bsf	3,6	;RP1=1, select bank3
  2837     020F  0099               	movwf	main@control_flag^(0+384)
  2838                           
  2839                           ;main.c: 155:                     reset_flag = 0x05;
  2840     0210  3010               	movlw	16
  2841     0211  0097               	movwf	main@reset_flag^(0+384)
  2842                           
  2843                           ;main.c: 156:                     clcd_write(0x0C, 0);
  2844     0212  2B14               	goto	l5769
  2845     0213                     l5741:
  2846                           
  2847                           ;main.c: 159:                 else if (control_flag == 0x40)
  2848     0213  3080               	movlw	128
  2849     0214  1683               	bsf	3,5	;RP0=1, select bank3
  2850     0215  1703               	bsf	3,6	;RP1=1, select bank3
  2851     0216  0099               	movwf	main@control_flag^(0+384)
  2852     0217                     l5743:
  2853                           
  2854                           ;main.c: 160:                 {
  2855     0217  0197               	clrf	main@reset_flag^(0+384)
  2856     0218  0A97               	incf	main@reset_flag^(0+384),f
  2857                           
  2858                           ;main.c: 161:                     control_flag = 0x04;
  2859     0219  2B14               	goto	l5769
  2860     021A                     l5747:
  2861     021A  1683               	bsf	3,5	;RP0=1, select bank3
  2862     021B  1703               	bsf	3,6	;RP1=1, select bank3
  2863     021C  0810               	movf	main@menu_pos^(0+384),w
  2864     021D  1283               	bcf	3,5	;RP0=0, select bank0
  2865     021E  1303               	bcf	3,6	;RP1=0, select bank0
  2866     021F  00C6               	movwf	??_main
  2867     0220  01C7               	clrf	??_main+1
  2868                           
  2869                           ; Switch on 2 bytes has been partitioned into a top level switch of size 1, and 1 sub-sw
      +                          itches
  2870                           ; Switch size 1, requested type "simple"
  2871                           ; Number of cases is 1, Range of values is 0 to 0
  2872                           ; switch strategies available:
  2873                           ; Name         Instructions Cycles
  2874                           ; simple_byte            4     3 (average)
  2875                           ; direct_byte           11     8 (fixed)
  2876                           ; jumptable            260     6 (fixed)
  2877                           ;	Chosen strategy is simple_byte
  2878     0221  0847               	movf	??_main+1,w
  2879     0222  3A00               	xorlw	0	; case 0
  2880     0223  1903               	skipnz
  2881     0224  2A26               	goto	l6007
  2882     0225  2B14               	goto	l5769
  2883     0226                     l6007:
  2884                           
  2885                           ; Switch size 1, requested type "simple"
  2886                           ; Number of cases is 5, Range of values is 0 to 4
  2887                           ; switch strategies available:
  2888                           ; Name         Instructions Cycles
  2889                           ; simple_byte           16     9 (average)
  2890                           ; direct_byte           23     8 (fixed)
  2891                           ; jumptable            260     6 (fixed)
  2892                           ;	Chosen strategy is simple_byte
  2893     0226  0846               	movf	??_main,w
  2894     0227  3A00               	xorlw	0	; case 0
  2895     0228  1903               	skipnz
  2896     0229  29F9               	goto	l5733
  2897     022A  3A01               	xorlw	1	; case 1
  2898     022B  1903               	skipnz
  2899     022C  2A00               	goto	l5735
  2900     022D  3A03               	xorlw	3	; case 2
  2901     022E  1903               	skipnz
  2902     022F  2A07               	goto	l5737
  2903     0230  3A01               	xorlw	1	; case 3
  2904     0231  1903               	skipnz
  2905     0232  2A0C               	goto	l5739
  2906     0233  3A07               	xorlw	7	; case 4
  2907     0234  1903               	skipnz
  2908     0235  2A13               	goto	l5741
  2909     0236  2B14               	goto	l5769
  2910     0237                     l5749:
  2911     0237  3008               	movlw	8
  2912     0238  0619               	xorwf	main@control_flag^(0+384),w
  2913     0239  1903               	btfsc	3,2
  2914     023A  2A3C               	goto	u5951
  2915     023B  2A3D               	goto	u5950
  2916     023C                     u5951:
  2917     023C  2A43               	goto	l5753
  2918     023D                     u5950:
  2919     023D                     l5751:
  2920     023D  3080               	movlw	128
  2921     023E  0619               	xorwf	main@control_flag^(0+384),w
  2922     023F  1D03               	btfss	3,2
  2923     0240  2A42               	goto	u5961
  2924     0241  2A43               	goto	u5960
  2925     0242                     u5961:
  2926     0242  2A56               	goto	l5759
  2927     0243                     u5960:
  2928     0243                     l5753:
  2929                           
  2930                           ;main.c: 165:                     write_ds1307(0x02, (new_hr / 10 << 4) | (new_hr % 10))
      +                          ;;main.c: 166:                 }
  2931     0243  3004               	movlw	4
  2932     0244  0099               	movwf	main@control_flag^(0+384)
  2933                           
  2934                           ;main.c: 167:                 pre_key = press = 0;
  2935     0245  3005               	movlw	5
  2936     0246  0097               	movwf	main@reset_flag^(0+384)
  2937     0247                     l5755:
  2938                           
  2939                           ;main.c: 168:             }
  2940     0247  01F3               	clrf	clcd_write@mode
  2941     0248  300C               	movlw	12
  2942     0249  160A  118A  21C2  120A  118A  	fcall	_clcd_write
  2943     024E                     l5757:
  2944                           
  2945                           ;main.c: 169: 
  2946     024E  30A5               	movlw	165
  2947     024F  1283               	bcf	3,5	;RP0=0, select bank0
  2948     0250  1303               	bcf	3,6	;RP1=0, select bank0
  2949     0251  00C6               	movwf	??_main
  2950     0252                     u6147:
  2951     0252  0BC6               	decfsz	??_main,f
  2952     0253  2A52               	goto	u6147
  2953     0254  2A55               	nop2
  2954                           
  2955                           ;main.c: 170:             else if (pre_key == 0x2F)
  2956     0255  2B14               	goto	l5769
  2957     0256                     l5759:
  2958     0256  3040               	movlw	64
  2959     0257  0619               	xorwf	main@control_flag^(0+384),w
  2960     0258  1D03               	btfss	3,2
  2961     0259  2A5B               	goto	u5971
  2962     025A  2A5C               	goto	u5970
  2963     025B                     u5971:
  2964     025B  2B14               	goto	l5769
  2965     025C                     u5970:
  2966     025C                     l5761:
  2967                           
  2968                           ;main.c: 172:                 if (control_flag == 0x04 || control_flag == 0x08 || contro
      +                          l_flag == 0x40 || control_flag == 0x80);main.c: 173:                 {
  2969     025C  3004               	movlw	4
  2970     025D  0099               	movwf	main@control_flag^(0+384)
  2971                           
  2972                           ;main.c: 174:                     clear_screen();
  2973     025E  3005               	movlw	5
  2974     025F  0097               	movwf	main@reset_flag^(0+384)
  2975     0260                     l5763:
  2976                           
  2977                           ;main.c: 175:                     pre_control_flag = 0x04;
  2978     0260  300A               	movlw	10
  2979     0261  00F3               	movwf	___awmod@divisor
  2980     0262  3000               	movlw	0
  2981     0263  00F4               	movwf	___awmod@divisor+1
  2982     0264  1283               	bcf	3,5	;RP0=0, select bank0
  2983     0265  1303               	bcf	3,6	;RP1=0, select bank0
  2984     0266  0867               	movf	_new_sec,w
  2985     0267  00C6               	movwf	??_main
  2986     0268  01C7               	clrf	??_main+1
  2987     0269  0846               	movf	??_main,w
  2988     026A  00F5               	movwf	___awmod@dividend
  2989     026B  0847               	movf	??_main+1,w
  2990     026C  00F6               	movwf	___awmod@dividend+1
  2991     026D  160A  118A  2627  120A  118A  	fcall	___awmod
  2992     0272  0873               	movf	?___awmod,w
  2993     0273  1283               	bcf	3,5	;RP0=0, select bank0
  2994     0274  1303               	bcf	3,6	;RP1=0, select bank0
  2995     0275  00C8               	movwf	??_main+2
  2996     0276  0874               	movf	?___awmod+1,w
  2997     0277  00C9               	movwf	??_main+3
  2998     0278  300A               	movlw	10
  2999     0279  00F3               	movwf	___awdiv@divisor
  3000     027A  3000               	movlw	0
  3001     027B  00F4               	movwf	___awdiv@divisor+1
  3002     027C  0867               	movf	_new_sec,w
  3003     027D  00CA               	movwf	??_main+4
  3004     027E  01CB               	clrf	??_main+5
  3005     027F  084A               	movf	??_main+4,w
  3006     0280  00F5               	movwf	___awdiv@dividend
  3007     0281  084B               	movf	??_main+5,w
  3008     0282  00F6               	movwf	___awdiv@dividend+1
  3009     0283  120A  118A  278C  120A  118A  	fcall	___awdiv
  3010     0288  0873               	movf	?___awdiv,w
  3011     0289  1283               	bcf	3,5	;RP0=0, select bank0
  3012     028A  1303               	bcf	3,6	;RP1=0, select bank0
  3013     028B  00CC               	movwf	??_main+6
  3014     028C  3003               	movlw	3
  3015     028D                     u5985:
  3016     028D  1003               	clrc
  3017     028E  0DCC               	rlf	??_main+6,f
  3018     028F  3EFF               	addlw	-1
  3019     0290  1D03               	skipz
  3020     0291  2A8D               	goto	u5985
  3021     0292  1003               	clrc
  3022     0293  0D4C               	rlf	??_main+6,w
  3023     0294  0448               	iorwf	??_main+2,w
  3024     0295  00F8               	movwf	write_ds1307@data
  3025     0296  3000               	movlw	0
  3026     0297  160A  118A  2203  120A  118A  	fcall	_write_ds1307
  3027     029C                     l5765:
  3028                           
  3029                           ;main.c: 176:                     control_flag = 0x01;
  3030     029C  300A               	movlw	10
  3031     029D  00F3               	movwf	___awmod@divisor
  3032     029E  3000               	movlw	0
  3033     029F  00F4               	movwf	___awmod@divisor+1
  3034     02A0  1283               	bcf	3,5	;RP0=0, select bank0
  3035     02A1  1303               	bcf	3,6	;RP1=0, select bank0
  3036     02A2  0866               	movf	_new_min,w
  3037     02A3  00C6               	movwf	??_main
  3038     02A4  01C7               	clrf	??_main+1
  3039     02A5  0846               	movf	??_main,w
  3040     02A6  00F5               	movwf	___awmod@dividend
  3041     02A7  0847               	movf	??_main+1,w
  3042     02A8  00F6               	movwf	___awmod@dividend+1
  3043     02A9  160A  118A  2627  120A  118A  	fcall	___awmod
  3044     02AE  0873               	movf	?___awmod,w
  3045     02AF  1283               	bcf	3,5	;RP0=0, select bank0
  3046     02B0  1303               	bcf	3,6	;RP1=0, select bank0
  3047     02B1  00C8               	movwf	??_main+2
  3048     02B2  0874               	movf	?___awmod+1,w
  3049     02B3  00C9               	movwf	??_main+3
  3050     02B4  300A               	movlw	10
  3051     02B5  00F3               	movwf	___awdiv@divisor
  3052     02B6  3000               	movlw	0
  3053     02B7  00F4               	movwf	___awdiv@divisor+1
  3054     02B8  0866               	movf	_new_min,w
  3055     02B9  00CA               	movwf	??_main+4
  3056     02BA  01CB               	clrf	??_main+5
  3057     02BB  084A               	movf	??_main+4,w
  3058     02BC  00F5               	movwf	___awdiv@dividend
  3059     02BD  084B               	movf	??_main+5,w
  3060     02BE  00F6               	movwf	___awdiv@dividend+1
  3061     02BF  120A  118A  278C  120A  118A  	fcall	___awdiv
  3062     02C4  0873               	movf	?___awdiv,w
  3063     02C5  1283               	bcf	3,5	;RP0=0, select bank0
  3064     02C6  1303               	bcf	3,6	;RP1=0, select bank0
  3065     02C7  00CC               	movwf	??_main+6
  3066     02C8  3003               	movlw	3
  3067     02C9                     u5995:
  3068     02C9  1003               	clrc
  3069     02CA  0DCC               	rlf	??_main+6,f
  3070     02CB  3EFF               	addlw	-1
  3071     02CC  1D03               	skipz
  3072     02CD  2AC9               	goto	u5995
  3073     02CE  1003               	clrc
  3074     02CF  0D4C               	rlf	??_main+6,w
  3075     02D0  0448               	iorwf	??_main+2,w
  3076     02D1  00F8               	movwf	write_ds1307@data
  3077     02D2  3001               	movlw	1
  3078     02D3  160A  118A  2203  120A  118A  	fcall	_write_ds1307
  3079     02D8                     l5767:
  3080                           
  3081                           ;main.c: 177:                     pre_key = press = 0;
  3082     02D8  300A               	movlw	10
  3083     02D9  00F3               	movwf	___awmod@divisor
  3084     02DA  3000               	movlw	0
  3085     02DB  00F4               	movwf	___awmod@divisor+1
  3086     02DC  1283               	bcf	3,5	;RP0=0, select bank0
  3087     02DD  1303               	bcf	3,6	;RP1=0, select bank0
  3088     02DE  0865               	movf	_new_hr,w
  3089     02DF  00C6               	movwf	??_main
  3090     02E0  01C7               	clrf	??_main+1
  3091     02E1  0846               	movf	??_main,w
  3092     02E2  00F5               	movwf	___awmod@dividend
  3093     02E3  0847               	movf	??_main+1,w
  3094     02E4  00F6               	movwf	___awmod@dividend+1
  3095     02E5  160A  118A  2627  120A  118A  	fcall	___awmod
  3096     02EA  0873               	movf	?___awmod,w
  3097     02EB  1283               	bcf	3,5	;RP0=0, select bank0
  3098     02EC  1303               	bcf	3,6	;RP1=0, select bank0
  3099     02ED  00C8               	movwf	??_main+2
  3100     02EE  0874               	movf	?___awmod+1,w
  3101     02EF  00C9               	movwf	??_main+3
  3102     02F0  300A               	movlw	10
  3103     02F1  00F3               	movwf	___awdiv@divisor
  3104     02F2  3000               	movlw	0
  3105     02F3  00F4               	movwf	___awdiv@divisor+1
  3106     02F4  0865               	movf	_new_hr,w
  3107     02F5  00CA               	movwf	??_main+4
  3108     02F6  01CB               	clrf	??_main+5
  3109     02F7  084A               	movf	??_main+4,w
  3110     02F8  00F5               	movwf	___awdiv@dividend
  3111     02F9  084B               	movf	??_main+5,w
  3112     02FA  00F6               	movwf	___awdiv@dividend+1
  3113     02FB  120A  118A  278C  120A  118A  	fcall	___awdiv
  3114     0300  0873               	movf	?___awdiv,w
  3115     0301  1283               	bcf	3,5	;RP0=0, select bank0
  3116     0302  1303               	bcf	3,6	;RP1=0, select bank0
  3117     0303  00CC               	movwf	??_main+6
  3118     0304  3003               	movlw	3
  3119     0305                     u6005:
  3120     0305  1003               	clrc
  3121     0306  0DCC               	rlf	??_main+6,f
  3122     0307  3EFF               	addlw	-1
  3123     0308  1D03               	skipz
  3124     0309  2B05               	goto	u6005
  3125     030A  1003               	clrc
  3126     030B  0D4C               	rlf	??_main+6,w
  3127     030C  0448               	iorwf	??_main+2,w
  3128     030D  00F8               	movwf	write_ds1307@data
  3129     030E  3002               	movlw	2
  3130     030F  160A  118A  2203  120A  118A  	fcall	_write_ds1307
  3131     0314                     l5769:
  3132                           
  3133                           ;main.c: 179:                     _delay((unsigned long)((100)*(20000000/4000000.0)));
  3134     0314  1283               	bcf	3,5	;RP0=0, select bank0
  3135     0315  1303               	bcf	3,6	;RP1=0, select bank0
  3136     0316  01DD               	clrf	_press
  3137     0317  01DE               	clrf	_press+1
  3138     0318  1003               	clrc
  3139     0319  3000               	movlw	0
  3140     031A  1803               	btfsc	3,0
  3141     031B  3001               	movlw	1
  3142     031C  00E9               	movwf	_pre_key
  3143                           
  3144                           ;main.c: 180:                     TMR2ON = 0;
  3145     031D  2B65               	goto	l105
  3146     031E                     l5771:
  3147     031E  302F               	movlw	47
  3148     031F  0669               	xorwf	_pre_key,w
  3149     0320  1D03               	btfss	3,2
  3150     0321  2B23               	goto	u6011
  3151     0322  2B24               	goto	u6010
  3152     0323                     u6011:
  3153     0323  2B65               	goto	l105
  3154     0324                     u6010:
  3155     0324                     l5773:
  3156                           
  3157                           ;main.c: 183:         };main.c: 184: 
  3158     0324  3004               	movlw	4
  3159     0325  1683               	bsf	3,5	;RP0=1, select bank3
  3160     0326  1703               	bsf	3,6	;RP1=1, select bank3
  3161     0327  0619               	xorwf	main@control_flag^(0+384),w
  3162     0328  1903               	btfsc	3,2
  3163     0329  2B2B               	goto	u6021
  3164     032A  2B2C               	goto	u6020
  3165     032B                     u6021:
  3166     032B  2B3E               	goto	l5781
  3167     032C                     u6020:
  3168     032C                     l5775:
  3169     032C  3008               	movlw	8
  3170     032D  0619               	xorwf	main@control_flag^(0+384),w
  3171     032E  1903               	btfsc	3,2
  3172     032F  2B31               	goto	u6031
  3173     0330  2B32               	goto	u6030
  3174     0331                     u6031:
  3175     0331  2B3E               	goto	l5781
  3176     0332                     u6030:
  3177     0332                     l5777:
  3178     0332  3040               	movlw	64
  3179     0333  0619               	xorwf	main@control_flag^(0+384),w
  3180     0334  1903               	btfsc	3,2
  3181     0335  2B37               	goto	u6041
  3182     0336  2B38               	goto	u6040
  3183     0337                     u6041:
  3184     0337  2B3E               	goto	l5781
  3185     0338                     u6040:
  3186     0338                     l5779:
  3187     0338  3080               	movlw	128
  3188     0339  0619               	xorwf	main@control_flag^(0+384),w
  3189     033A  1D03               	btfss	3,2
  3190     033B  2B3D               	goto	u6051
  3191     033C  2B3E               	goto	u6050
  3192     033D                     u6051:
  3193     033D  2B65               	goto	l105
  3194     033E                     u6050:
  3195     033E                     l5781:
  3196                           
  3197                           ;main.c: 185:         if (pre_control_flag == 0x04);main.c: 186:             pre_key = p
      +                          ress = 0;
  3198     033E  160A  158A  278D  120A  118A  	fcall	_clear_screen
  3199     0343                     l5783:
  3200                           
  3201                           ;main.c: 187: 
  3202     0343  3004               	movlw	4
  3203     0344  1283               	bcf	3,5	;RP0=0, select bank0
  3204     0345  1303               	bcf	3,6	;RP1=0, select bank0
  3205     0346  00E8               	movwf	_pre_control_flag
  3206     0347                     l5785:
  3207                           
  3208                           ;main.c: 188:         switch(control_flag)
  3209     0347  1683               	bsf	3,5	;RP0=1, select bank3
  3210     0348  1703               	bsf	3,6	;RP1=1, select bank3
  3211     0349  0199               	clrf	main@control_flag^(0+384)
  3212     034A  0A99               	incf	main@control_flag^(0+384),f
  3213     034B                     l5787:
  3214                           
  3215                           ;main.c: 189:         {
  3216     034B  1283               	bcf	3,5	;RP0=0, select bank0
  3217     034C  1303               	bcf	3,6	;RP1=0, select bank0
  3218     034D  01DD               	clrf	_press
  3219     034E  01DE               	clrf	_press+1
  3220     034F  1003               	clrc
  3221     0350  3000               	movlw	0
  3222     0351  1803               	btfsc	3,0
  3223     0352  3001               	movlw	1
  3224     0353  00E9               	movwf	_pre_key
  3225     0354                     l5789:
  3226                           
  3227                           ;main.c: 190:             case 0x01:
  3228     0354  01F3               	clrf	clcd_write@mode
  3229     0355  300C               	movlw	12
  3230     0356  160A  118A  21C2  120A  118A  	fcall	_clcd_write
  3231     035B                     l5791:
  3232                           
  3233                           ;main.c: 191:                 display_default_screen(event, speed);
  3234     035B  30A5               	movlw	165
  3235     035C  1283               	bcf	3,5	;RP0=0, select bank0
  3236     035D  1303               	bcf	3,6	;RP1=0, select bank0
  3237     035E  00C6               	movwf	??_main
  3238     035F                     u6157:
  3239     035F  0BC6               	decfsz	??_main,f
  3240     0360  2B5F               	goto	u6157
  3241     0361  2B62               	nop2
  3242     0362                     l5793:
  3243                           
  3244                           ;main.c: 192:                 break;
  3245     0362  1283               	bcf	3,5	;RP0=0, select bank0
  3246     0363  1303               	bcf	3,6	;RP1=0, select bank0
  3247     0364  1112               	bcf	18,2	;volatile
  3248     0365                     l105:	
  3249                           ;main.c: 195:                 {
  3250                           
  3251                           
  3252                           ;main.c: 197:                         clear_screen();
  3253     0365  3004               	movlw	4
  3254     0366  1283               	bcf	3,5	;RP0=0, select bank0
  3255     0367  1303               	bcf	3,6	;RP1=0, select bank0
  3256     0368  0668               	xorwf	_pre_control_flag,w
  3257     0369  1D03               	btfss	3,2
  3258     036A  2B6C               	goto	u6061
  3259     036B  2B6D               	goto	u6060
  3260     036C                     u6061:
  3261     036C  2C81               	goto	l5895
  3262     036D                     u6060:
  3263     036D                     l5795:
  3264                           
  3265                           ;main.c: 198:                         control_flag = 0x01;
  3266     036D  01DD               	clrf	_press
  3267     036E  01DE               	clrf	_press+1
  3268     036F  1003               	clrc
  3269     0370  3000               	movlw	0
  3270     0371  1803               	btfsc	3,0
  3271     0372  3001               	movlw	1
  3272     0373  00E9               	movwf	_pre_key
  3273     0374  2C81               	goto	l5895
  3274     0375                     l5797:
  3275                           
  3276                           ;main.c: 203:                     case 0x01:
  3277     0375  1683               	bsf	3,5	;RP0=1, select bank3
  3278     0376  1703               	bsf	3,6	;RP1=1, select bank3
  3279     0377  0816               	movf	main@speed^(0+384),w
  3280     0378  1283               	bcf	3,5	;RP0=0, select bank0
  3281     0379  1303               	bcf	3,6	;RP1=0, select bank0
  3282     037A  00B7               	movwf	display_default_screen@speed
  3283     037B  3092               	movlw	(low (main@event| (0+256)))& (0+255)
  3284     037C  160A  118A  2579  120A  118A  	fcall	_display_default_screen
  3285                           
  3286                           ;main.c: 204:                         control_flag = 0x04;
  3287     0381  2CA7               	goto	l5897
  3288     0382                     l5799:
  3289                           
  3290                           ;main.c: 209:                         break;
  3291     0382  160A  158A  278D  120A  118A  	fcall	_clear_screen
  3292     0387                     l5801:
  3293                           
  3294                           ;main.c: 210:                 }
  3295     0387  1683               	bsf	3,5	;RP0=1, select bank3
  3296     0388  1703               	bsf	3,6	;RP1=1, select bank3
  3297     0389  0199               	clrf	main@control_flag^(0+384)
  3298     038A  0A99               	incf	main@control_flag^(0+384),f
  3299                           
  3300                           ;main.c: 211:                 break;
  3301     038B  01F3               	clrf	clcd_write@mode
  3302     038C  300C               	movlw	12
  3303     038D  160A  118A  21C2  120A  118A  	fcall	_clcd_write
  3304     0392                     l5803:
  3305                           
  3306                           ;main.c: 212:             case 0x04:
  3307     0392  30A5               	movlw	165
  3308     0393  1283               	bcf	3,5	;RP0=0, select bank0
  3309     0394  1303               	bcf	3,6	;RP1=0, select bank0
  3310     0395  00C6               	movwf	??_main
  3311     0396                     u6167:
  3312     0396  0BC6               	decfsz	??_main,f
  3313     0397  2B96               	goto	u6167
  3314     0398  2B99               	nop2
  3315     0399                     l5805:
  3316                           
  3317                           ;main.c: 213:                 menu_pos = login_menu(reset_flag,key);
  3318     0399  1283               	bcf	3,5	;RP0=0, select bank0
  3319     039A  1303               	bcf	3,6	;RP1=0, select bank0
  3320     039B  1112               	bcf	18,2	;volatile
  3321                           
  3322                           ;main.c: 214:                 if (return_time == 0)
  3323     039C  2CA7               	goto	l5897
  3324     039D                     l5807:
  3325                           
  3326                           ;main.c: 216:                     clear_screen();
  3327     039D  3004               	movlw	4
  3328     039E  1683               	bsf	3,5	;RP0=1, select bank3
  3329     039F  1703               	bsf	3,6	;RP1=1, select bank3
  3330     03A0  0099               	movwf	main@control_flag^(0+384)
  3331                           
  3332                           ;main.c: 217:                     control_flag = 0x01;
  3333     03A1  3005               	movlw	5
  3334     03A2  0097               	movwf	main@reset_flag^(0+384)
  3335     03A3                     l5809:
  3336                           
  3337                           ;main.c: 218:                     TMR2ON = 0;
  3338     03A3  01F3               	clrf	clcd_write@mode
  3339     03A4  300C               	movlw	12
  3340     03A5  160A  118A  21C2  120A  118A  	fcall	_clcd_write
  3341     03AA                     l5811:
  3342                           
  3343                           ;main.c: 219:                 }
  3344     03AA  30A5               	movlw	165
  3345     03AB  1283               	bcf	3,5	;RP0=0, select bank0
  3346     03AC  1303               	bcf	3,6	;RP1=0, select bank0
  3347     03AD  00C6               	movwf	??_main
  3348     03AE                     u6177:
  3349     03AE  0BC6               	decfsz	??_main,f
  3350     03AF  2BAE               	goto	u6177
  3351     03B0  2BB1               	nop2
  3352                           
  3353                           ;main.c: 220:                 break;
  3354     03B1  286F               	goto	l5651
  3355     03B2                     l5817:
  3356     03B2  1683               	bsf	3,5	;RP0=1, select bank3
  3357     03B3  1703               	bsf	3,6	;RP1=1, select bank3
  3358     03B4  0818               	movf	main@key^(0+384),w
  3359     03B5  1283               	bcf	3,5	;RP0=0, select bank0
  3360     03B6  1303               	bcf	3,6	;RP1=0, select bank0
  3361     03B7  00B7               	movwf	login@key
  3362     03B8  1683               	bsf	3,5	;RP0=1, select bank3
  3363     03B9  1703               	bsf	3,6	;RP1=1, select bank3
  3364     03BA  0817               	movf	main@reset_flag^(0+384),w
  3365     03BB  120A  118A  24AE  120A  118A  	fcall	_login
  3366     03C0  1283               	bcf	3,5	;RP0=0, select bank0
  3367     03C1  1303               	bcf	3,6	;RP1=0, select bank0
  3368     03C2  00C6               	movwf	??_main
  3369     03C3  01C7               	clrf	??_main+1
  3370                           
  3371                           ; Switch on 2 bytes has been partitioned into a top level switch of size 1, and 1 sub-sw
      +                          itches
  3372                           ; Switch size 1, requested type "simple"
  3373                           ; Number of cases is 1, Range of values is 0 to 0
  3374                           ; switch strategies available:
  3375                           ; Name         Instructions Cycles
  3376                           ; simple_byte            4     3 (average)
  3377                           ; direct_byte           11     8 (fixed)
  3378                           ; jumptable            260     6 (fixed)
  3379                           ;	Chosen strategy is simple_byte
  3380     03C4  0847               	movf	??_main+1,w
  3381     03C5  3A00               	xorlw	0	; case 0
  3382     03C6  1903               	skipnz
  3383     03C7  2BC9               	goto	l6009
  3384     03C8  2CA7               	goto	l5897
  3385     03C9                     l6009:
  3386                           
  3387                           ; Switch size 1, requested type "simple"
  3388                           ; Number of cases is 2, Range of values is 1 to 3
  3389                           ; switch strategies available:
  3390                           ; Name         Instructions Cycles
  3391                           ; simple_byte            7     4 (average)
  3392                           ; direct_byte           20    11 (fixed)
  3393                           ; jumptable            263     9 (fixed)
  3394                           ;	Chosen strategy is simple_byte
  3395     03C9  0846               	movf	??_main,w
  3396     03CA  3A01               	xorlw	1	; case 1
  3397     03CB  1903               	skipnz
  3398     03CC  2B9D               	goto	l5807
  3399     03CD  3A02               	xorlw	2	; case 3
  3400     03CE  1903               	skipnz
  3401     03CF  2B82               	goto	l5799
  3402     03D0  2CA7               	goto	l5897
  3403     03D1                     l5819:
  3404                           
  3405                           ;main.c: 225:                 {
  3406     03D1  1683               	bsf	3,5	;RP0=1, select bank3
  3407     03D2  1703               	bsf	3,6	;RP1=1, select bank3
  3408     03D3  0818               	movf	main@key^(0+384),w
  3409     03D4  1283               	bcf	3,5	;RP0=0, select bank0
  3410     03D5  1303               	bcf	3,6	;RP1=0, select bank0
  3411     03D6  00B7               	movwf	login_menu@key
  3412     03D7  1683               	bsf	3,5	;RP0=1, select bank3
  3413     03D8  1703               	bsf	3,6	;RP1=1, select bank3
  3414     03D9  0817               	movf	main@reset_flag^(0+384),w
  3415     03DA  120A  118A  26B3  120A  118A  	fcall	_login_menu
  3416     03DF  1683               	bsf	3,5	;RP0=1, select bank3
  3417     03E0  1703               	bsf	3,6	;RP1=1, select bank3
  3418     03E1  0090               	movwf	main@menu_pos^(0+384)
  3419     03E2                     l5821:
  3420                           
  3421                           ;main.c: 226:                     control_flag = 0x04;
  3422     03E2  1283               	bcf	3,5	;RP0=0, select bank0
  3423     03E3  1303               	bcf	3,6	;RP1=0, select bank0
  3424     03E4  085F               	movf	_return_time,w
  3425     03E5  0460               	iorwf	_return_time+1,w
  3426     03E6  1D03               	btfss	3,2
  3427     03E7  2BE9               	goto	u6071
  3428     03E8  2BEA               	goto	u6070
  3429     03E9                     u6071:
  3430     03E9  2CA7               	goto	l5897
  3431     03EA                     u6070:
  3432     03EA                     l5823:
  3433                           
  3434                           ;main.c: 227:                     reset_flag = 0x05;;main.c: 228:                     co
      +                          ntinue;
  3435     03EA  160A  158A  278D  120A  118A  	fcall	_clear_screen
  3436     03EF                     l5825:
  3437                           
  3438                           ;main.c: 229:                 }
  3439     03EF  1683               	bsf	3,5	;RP0=1, select bank3
  3440     03F0  1703               	bsf	3,6	;RP1=1, select bank3
  3441     03F1  0199               	clrf	main@control_flag^(0+384)
  3442     03F2  0A99               	incf	main@control_flag^(0+384),f
  3443     03F3  2B99               	goto	l5805
  3444     03F4                     l5829:
  3445                           
  3446                           ;main.c: 234:                     TMR2ON = 0;
  3447     03F4  1683               	bsf	3,5	;RP0=1, select bank3
  3448     03F5  1703               	bsf	3,6	;RP1=1, select bank3
  3449     03F6  0818               	movf	main@key^(0+384),w
  3450     03F7  1283               	bcf	3,5	;RP0=0, select bank0
  3451     03F8  1303               	bcf	3,6	;RP1=0, select bank0
  3452     03F9  00B8               	movwf	view_log@key
  3453     03FA  1683               	bsf	3,5	;RP0=1, select bank3
  3454     03FB  1703               	bsf	3,6	;RP1=1, select bank3
  3455     03FC  0817               	movf	main@reset_flag^(0+384),w
  3456     03FD  120A  158A  2346  120A  118A  	fcall	_view_log
  3457     0402  1683               	bsf	3,5	;RP0=1, select bank3
  3458     0403  1703               	bsf	3,6	;RP1=1, select bank3
  3459     0404  0091               	movwf	main@return_val^(0+384)
  3460     0405                     l5831:
  3461                           
  3462                           ;main.c: 236:                 break;
  3463     0405  3022               	movlw	34
  3464     0406  0611               	xorwf	main@return_val^(0+384),w
  3465     0407  1D03               	btfss	3,2
  3466     0408  2C0A               	goto	u6081
  3467     0409  2C0B               	goto	u6080
  3468     040A                     u6081:
  3469     040A  2C10               	goto	l5837
  3470     040B                     u6080:
  3471     040B                     l5833:
  3472                           
  3473                           ;main.c: 237:             case 0x10:;main.c: 238:                 clear_log(reset_flag);
  3474     040B  3004               	movlw	4
  3475     040C  0099               	movwf	main@control_flag^(0+384)
  3476                           
  3477                           ;main.c: 239:                 control_flag = 0x04;
  3478     040D  3005               	movlw	5
  3479     040E  0097               	movwf	main@reset_flag^(0+384)
  3480                           
  3481                           ;main.c: 240:                 reset_flag = 0x05;
  3482     040F  286F               	goto	l5651
  3483     0410                     l5837:
  3484     0410  1283               	bcf	3,5	;RP0=0, select bank0
  3485     0411  1303               	bcf	3,6	;RP1=0, select bank0
  3486     0412  085F               	movf	_return_time,w
  3487     0413  0460               	iorwf	_return_time+1,w
  3488     0414  1D03               	btfss	3,2
  3489     0415  2C17               	goto	u6091
  3490     0416  2C18               	goto	u6090
  3491     0417                     u6091:
  3492     0417  2CA7               	goto	l5897
  3493     0418                     u6090:
  3494     0418  2BEA               	goto	l5823
  3495     0419                     l5845:
  3496                           
  3497                           ;main.c: 250:                 edit_time(reset_flag, key);
  3498     0419  1683               	bsf	3,5	;RP0=1, select bank3
  3499     041A  1703               	bsf	3,6	;RP1=1, select bank3
  3500     041B  0817               	movf	main@reset_flag^(0+384),w
  3501     041C  160A  118A  23EB  120A  118A  	fcall	_clear_log
  3502     0421                     l5847:
  3503                           
  3504                           ;main.c: 251:                 if (return_time == 0)
  3505     0421  3004               	movlw	4
  3506     0422  1683               	bsf	3,5	;RP0=1, select bank3
  3507     0423  1703               	bsf	3,6	;RP1=1, select bank3
  3508     0424  0099               	movwf	main@control_flag^(0+384)
  3509     0425                     l5849:
  3510                           
  3511                           ;main.c: 252:                 {
  3512     0425  3005               	movlw	5
  3513     0426  0097               	movwf	main@reset_flag^(0+384)
  3514                           
  3515                           ;main.c: 253:                     clear_screen();
  3516     0427  286F               	goto	l5651
  3517     0428                     l5853:
  3518                           
  3519                           ;main.c: 256:                 }
  3520     0428  160A  118A  279C  120A  118A  	fcall	_download_log
  3521     042D  2C21               	goto	l5847
  3522     042E                     l5861:
  3523                           
  3524                           ;main.c: 262:                     control_flag = 0x04;
  3525     042E  1683               	bsf	3,5	;RP0=1, select bank3
  3526     042F  1703               	bsf	3,6	;RP1=1, select bank3
  3527     0430  0818               	movf	main@key^(0+384),w
  3528     0431  1283               	bcf	3,5	;RP0=0, select bank0
  3529     0432  1303               	bcf	3,6	;RP1=0, select bank0
  3530     0433  00B7               	movwf	edit_time@key
  3531     0434  1683               	bsf	3,5	;RP0=1, select bank3
  3532     0435  1703               	bsf	3,6	;RP1=1, select bank3
  3533     0436  0817               	movf	main@reset_flag^(0+384),w
  3534     0437  120A  158A  260A  120A  118A  	fcall	_edit_time
  3535     043C                     l5863:
  3536                           
  3537                           ;main.c: 263:                     reset_flag = 0x05;
  3538     043C  1283               	bcf	3,5	;RP0=0, select bank0
  3539     043D  1303               	bcf	3,6	;RP1=0, select bank0
  3540     043E  085F               	movf	_return_time,w
  3541     043F  0460               	iorwf	_return_time+1,w
  3542     0440  1D03               	btfss	3,2
  3543     0441  2C43               	goto	u6101
  3544     0442  2C44               	goto	u6100
  3545     0443                     u6101:
  3546     0443  2CA7               	goto	l5897
  3547     0444                     u6100:
  3548     0444  2BEA               	goto	l5823
  3549     0445                     l5871:
  3550                           
  3551                           ;main.c: 271:                     control_flag = 0x01;
  3552     0445  1683               	bsf	3,5	;RP0=1, select bank3
  3553     0446  1703               	bsf	3,6	;RP1=1, select bank3
  3554     0447  0818               	movf	main@key^(0+384),w
  3555     0448  1283               	bcf	3,5	;RP0=0, select bank0
  3556     0449  1303               	bcf	3,6	;RP1=0, select bank0
  3557     044A  00B7               	movwf	change_password@key
  3558     044B  1683               	bsf	3,5	;RP0=1, select bank3
  3559     044C  1703               	bsf	3,6	;RP1=1, select bank3
  3560     044D  0817               	movf	main@reset_flag^(0+384),w
  3561     044E  120A  158A  241C  120A  118A  	fcall	_change_password
  3562     0453  1683               	bsf	3,5	;RP0=1, select bank3
  3563     0454  1703               	bsf	3,6	;RP1=1, select bank3
  3564     0455  0091               	movwf	main@return_val^(0+384)
  3565     0456                     l5873:
  3566                           
  3567                           ;main.c: 272:                     clcd_write(0x0C, 0);
  3568     0456  3011               	movlw	17
  3569     0457  0611               	xorwf	main@return_val^(0+384),w
  3570     0458  1D03               	btfss	3,2
  3571     0459  2C5B               	goto	u6111
  3572     045A  2C5C               	goto	u6110
  3573     045B                     u6111:
  3574     045B  2C68               	goto	l5883
  3575     045C                     u6110:
  3576     045C                     l5875:
  3577                           
  3578                           ;main.c: 273:                     _delay((unsigned long)((100)*(20000000/4000000.0)));;m
      +                          ain.c: 274:                     TMR2ON = 0;
  3579     045C  3004               	movlw	4
  3580     045D  0099               	movwf	main@control_flag^(0+384)
  3581                           
  3582                           ;main.c: 275:                 }
  3583     045E  3005               	movlw	5
  3584     045F  0097               	movwf	main@reset_flag^(0+384)
  3585     0460                     l5877:
  3586                           
  3587                           ;main.c: 276:                 break;
  3588     0460  01F3               	clrf	clcd_write@mode
  3589     0461  300C               	movlw	12
  3590     0462  160A  118A  21C2  120A  118A  	fcall	_clcd_write
  3591     0467  2BAA               	goto	l5811
  3592     0468                     l5883:
  3593     0468  1283               	bcf	3,5	;RP0=0, select bank0
  3594     0469  1303               	bcf	3,6	;RP1=0, select bank0
  3595     046A  085F               	movf	_return_time,w
  3596     046B  0460               	iorwf	_return_time+1,w
  3597     046C  1D03               	btfss	3,2
  3598     046D  2C6F               	goto	u6121
  3599     046E  2C70               	goto	u6120
  3600     046F                     u6121:
  3601     046F  2CA7               	goto	l5897
  3602     0470                     u6120:
  3603     0470                     l5885:
  3604                           
  3605                           ;main.c: 281:     };main.c: 282:     return;
  3606     0470  160A  158A  278D  120A  118A  	fcall	_clear_screen
  3607     0475                     l5887:
  3608                           
  3609                           ;main.c: 283: }
  3610     0475  1683               	bsf	3,5	;RP0=1, select bank3
  3611     0476  1703               	bsf	3,6	;RP1=1, select bank3
  3612     0477  0199               	clrf	main@control_flag^(0+384)
  3613     0478  0A99               	incf	main@control_flag^(0+384),f
  3614     0479  01F3               	clrf	clcd_write@mode
  3615     047A  300C               	movlw	12
  3616     047B  160A  118A  21C2  120A  118A  	fcall	_clcd_write
  3617     0480  2B92               	goto	l5803
  3618     0481                     l5895:
  3619     0481  1683               	bsf	3,5	;RP0=1, select bank3
  3620     0482  1703               	bsf	3,6	;RP1=1, select bank3
  3621     0483  0819               	movf	main@control_flag^(0+384),w
  3622     0484  1283               	bcf	3,5	;RP0=0, select bank0
  3623     0485  1303               	bcf	3,6	;RP1=0, select bank0
  3624     0486  00C6               	movwf	??_main
  3625     0487  01C7               	clrf	??_main+1
  3626                           
  3627                           ; Switch on 2 bytes has been partitioned into a top level switch of size 1, and 1 sub-sw
      +                          itches
  3628                           ; Switch size 1, requested type "simple"
  3629                           ; Number of cases is 1, Range of values is 0 to 0
  3630                           ; switch strategies available:
  3631                           ; Name         Instructions Cycles
  3632                           ; simple_byte            4     3 (average)
  3633                           ; direct_byte           11     8 (fixed)
  3634                           ; jumptable            260     6 (fixed)
  3635                           ;	Chosen strategy is simple_byte
  3636     0488  0847               	movf	??_main+1,w
  3637     0489  3A00               	xorlw	0	; case 0
  3638     048A  1903               	skipnz
  3639     048B  2C8D               	goto	l6011
  3640     048C  2CA7               	goto	l5897
  3641     048D                     l6011:
  3642                           
  3643                           ; Switch size 1, requested type "simple"
  3644                           ; Number of cases is 8, Range of values is 1 to 128
  3645                           ; switch strategies available:
  3646                           ; Name         Instructions Cycles
  3647                           ; simple_byte           25    13 (average)
  3648                           ; jumptable            263     9 (fixed)
  3649                           ;	Chosen strategy is simple_byte
  3650     048D  0846               	movf	??_main,w
  3651     048E  3A01               	xorlw	1	; case 1
  3652     048F  1903               	skipnz
  3653     0490  2B75               	goto	l5797
  3654     0491  3A03               	xorlw	3	; case 2
  3655     0492  1903               	skipnz
  3656     0493  2BB2               	goto	l5817
  3657     0494  3A06               	xorlw	6	; case 4
  3658     0495  1903               	skipnz
  3659     0496  2BD1               	goto	l5819
  3660     0497  3A0C               	xorlw	12	; case 8
  3661     0498  1903               	skipnz
  3662     0499  2BF4               	goto	l5829
  3663     049A  3A18               	xorlw	24	; case 16
  3664     049B  1903               	skipnz
  3665     049C  2C19               	goto	l5845
  3666     049D  3A30               	xorlw	48	; case 32
  3667     049E  1903               	skipnz
  3668     049F  2C28               	goto	l5853
  3669     04A0  3A60               	xorlw	96	; case 64
  3670     04A1  1903               	skipnz
  3671     04A2  2C2E               	goto	l5861
  3672     04A3  3AC0               	xorlw	192	; case 128
  3673     04A4  1903               	skipnz
  3674     04A5  2C45               	goto	l5871
  3675     04A6  2CA7               	goto	l5897
  3676     04A7                     l5897:
  3677     04A7  1683               	bsf	3,5	;RP0=1, select bank3
  3678     04A8  1703               	bsf	3,6	;RP1=1, select bank3
  3679     04A9  0197               	clrf	main@reset_flag^(0+384)
  3680     04AA  286F               	goto	l5651
  3681     04AB  120A  118A  280E   	ljmp	start
  3682     04AE                     __end_of_main:
  3683                           
  3684                           	psect	text1
  3685     0B46                     __ptext1:	
  3686 ;; *************** function _view_log *****************
  3687 ;; Defined at:
  3688 ;;		line 277 in file "car_black_box_def.c"
  3689 ;; Parameters:    Size  Location     Type
  3690 ;;  reset_flag      1    wreg     unsigned char 
  3691 ;;  key             1   24[BANK0 ] unsigned char 
  3692 ;; Auto vars:     Size  Location     Type
  3693 ;;  reset_flag      1   28[BANK0 ] unsigned char 
  3694 ;; Return value:  Size  Location     Type
  3695 ;;                  1    wreg      unsigned char 
  3696 ;; Registers used:
  3697 ;;		wreg, fsr0l, fsr0h, status,2, status,0, btemp+1, pclath, cstack
  3698 ;; Tracked objects:
  3699 ;;		On entry : 0/0
  3700 ;;		On exit  : 0/0
  3701 ;;		Unchanged: 0/0
  3702 ;; Data sizes:     COMMON   BANK0   BANK1   BANK3   BANK2
  3703 ;;      Params:         0       1       0       0       0
  3704 ;;      Locals:         0       1       0       0       0
  3705 ;;      Temps:          0       3       0       0       0
  3706 ;;      Totals:         0       5       0       0       0
  3707 ;;Total ram usage:        5 bytes
  3708 ;; Hardware stack levels used: 1
  3709 ;; Hardware stack levels required when called: 6
  3710 ;; This function calls:
  3711 ;;		_clcd_print
  3712 ;;		_clear_screen
  3713 ;;		_get_saved_log
  3714 ;;		_print_log
  3715 ;; This function is called by:
  3716 ;;		_main
  3717 ;; This function uses a non-reentrant model
  3718 ;;
  3719                           
  3720     0B46                     _view_log:	
  3721                           ;psect for function _view_log
  3722                           
  3723                           
  3724                           ;incstack = 0
  3725                           ; Regs used in _view_log: [wreg-fsr0h+status,2+status,0+btemp+1+pclath+cstack]
  3726                           ;view_log@reset_flag stored from wreg
  3727     0B46  1283               	bcf	3,5	;RP0=0, select bank0
  3728     0B47  1303               	bcf	3,6	;RP1=0, select bank0
  3729     0B48  00BC               	movwf	view_log@reset_flag
  3730     0B49                     l4799:
  3731                           
  3732                           ;car_black_box_def.c: 277: char view_log(unsigned char reset_flag, unsigned char key);ca
      +                          r_black_box_def.c: 278: {;car_black_box_def.c: 279:     static char log_pos;;car_black_b
      +                          ox_def.c: 281:     if (reset_flag == 0x08)
  3733     0B49  3008               	movlw	8
  3734     0B4A  063C               	xorwf	view_log@reset_flag,w
  3735     0B4B  1D03               	btfss	3,2
  3736     0B4C  2B4E               	goto	u4711
  3737     0B4D  2B4F               	goto	u4710
  3738     0B4E                     u4711:
  3739     0B4E  2B7A               	goto	l4815
  3740     0B4F                     u4710:
  3741     0B4F                     l4801:
  3742                           
  3743                           ;car_black_box_def.c: 282:     {;car_black_box_def.c: 283:         clear_screen();
  3744     0B4F  160A  158A  278D  120A  158A  	fcall	_clear_screen
  3745     0B54                     l4803:
  3746                           
  3747                           ;car_black_box_def.c: 284:         return_time = 5;
  3748     0B54  3005               	movlw	5
  3749     0B55  1283               	bcf	3,5	;RP0=0, select bank0
  3750     0B56  1303               	bcf	3,6	;RP1=0, select bank0
  3751     0B57  00DF               	movwf	_return_time
  3752     0B58  3000               	movlw	0
  3753     0B59  00E0               	movwf	_return_time+1
  3754     0B5A                     l4805:
  3755                           
  3756                           ;car_black_box_def.c: 285:         if (log_count > 0)
  3757     0B5A  0879               	movf	_log_count,w
  3758     0B5B  1903               	btfsc	3,2
  3759     0B5C  2B5E               	goto	u4721
  3760     0B5D  2B5F               	goto	u4720
  3761     0B5E                     u4721:
  3762     0B5E  2B7A               	goto	l4815
  3763     0B5F                     u4720:
  3764     0B5F                     l4807:
  3765                           
  3766                           ;car_black_box_def.c: 286:         {;car_black_box_def.c: 287:             clcd_print(" 
      +                            TIME    EV SP", (0x80 + 0));
  3767     0B5F  30AA               	movlw	low (STR_24| (0+32768))
  3768     0B60  00A0               	movwf	clcd_print@str
  3769     0B61  3090               	movlw	high (STR_24| (0+32768))
  3770     0B62  00A1               	movwf	clcd_print@str+1
  3771     0B63  3080               	movlw	128
  3772     0B64  00A2               	movwf	clcd_print@addr
  3773     0B65  160A  118A  23B8  120A  158A  	fcall	_clcd_print
  3774     0B6A                     l4809:
  3775                           
  3776                           ;car_black_box_def.c: 288:             log_pos = 1;
  3777     0B6A  1283               	bcf	3,5	;RP0=0, select bank0
  3778     0B6B  1303               	bcf	3,6	;RP1=0, select bank0
  3779     0B6C  01E1               	clrf	view_log@log_pos
  3780     0B6D  0AE1               	incf	view_log@log_pos,f
  3781     0B6E                     l4811:
  3782                           
  3783                           ;car_black_box_def.c: 289:             get_saved_log(log_pos);
  3784     0B6E  3001               	movlw	1
  3785     0B6F  160A  118A  26DD  120A  158A  	fcall	_get_saved_log
  3786     0B74                     l4813:
  3787                           
  3788                           ;car_black_box_def.c: 290:             print_log(log_pos);
  3789     0B74  3001               	movlw	1
  3790     0B75  120A  158A  2210  120A  158A  	fcall	_print_log
  3791     0B7A                     l4815:
  3792                           
  3793                           ;car_black_box_def.c: 294:     if (log_count > 0)
  3794     0B7A  0879               	movf	_log_count,w
  3795     0B7B  1903               	btfsc	3,2
  3796     0B7C  2B7E               	goto	u4731
  3797     0B7D  2B7F               	goto	u4730
  3798     0B7E                     u4731:
  3799     0B7E  2BE2               	goto	l4849
  3800     0B7F                     u4730:
  3801     0B7F                     l4817:
  3802                           
  3803                           ;car_black_box_def.c: 295:     {;car_black_box_def.c: 296:         if (key == 0x3F && pr
      +                          ess < 13)
  3804     0B7F  303F               	movlw	63
  3805     0B80  1283               	bcf	3,5	;RP0=0, select bank0
  3806     0B81  1303               	bcf	3,6	;RP1=0, select bank0
  3807     0B82  0638               	xorwf	view_log@key,w
  3808     0B83  1D03               	btfss	3,2
  3809     0B84  2B86               	goto	u4741
  3810     0B85  2B87               	goto	u4740
  3811     0B86                     u4741:
  3812     0B86  2C0C               	goto	l4857
  3813     0B87                     u4740:
  3814     0B87                     l4819:
  3815     0B87  085E               	movf	_press+1,w
  3816     0B88  3A80               	xorlw	128
  3817     0B89  00FF               	movwf	btemp+1
  3818     0B8A  3080               	movlw	128
  3819     0B8B  027F               	subwf	btemp+1,w
  3820     0B8C  1D03               	skipz
  3821     0B8D  2B90               	goto	u4755
  3822     0B8E  300D               	movlw	13
  3823     0B8F  025D               	subwf	_press,w
  3824     0B90                     u4755:
  3825     0B90  1803               	skipnc
  3826     0B91  2B93               	goto	u4751
  3827     0B92  2B94               	goto	u4750
  3828     0B93                     u4751:
  3829     0B93  2C0C               	goto	l4857
  3830     0B94                     u4750:
  3831     0B94                     l4821:
  3832                           
  3833                           ;car_black_box_def.c: 297:         {;car_black_box_def.c: 298:             if (pre_key =
      +                          = 0x37)
  3834     0B94  3037               	movlw	55
  3835     0B95  1283               	bcf	3,5	;RP0=0, select bank0
  3836     0B96  1303               	bcf	3,6	;RP1=0, select bank0
  3837     0B97  0669               	xorwf	_pre_key,w
  3838     0B98  1D03               	btfss	3,2
  3839     0B99  2B9B               	goto	u4761
  3840     0B9A  2B9C               	goto	u4760
  3841     0B9B                     u4761:
  3842     0B9B  2BC0               	goto	l4835
  3843     0B9C                     u4760:
  3844     0B9C                     l4823:
  3845                           
  3846                           ;car_black_box_def.c: 299:             {;car_black_box_def.c: 300:                 if (-
      +                          -log_pos < 1)
  3847     0B9C  3001               	movlw	1
  3848     0B9D  02E1               	subwf	view_log@log_pos,f
  3849     0B9E  1D03               	btfss	3,2
  3850     0B9F  2BA1               	goto	u4771
  3851     0BA0  2BA2               	goto	u4770
  3852     0BA1                     u4771:
  3853     0BA1  2BA4               	goto	l4827
  3854     0BA2                     u4770:
  3855     0BA2                     l4825:
  3856                           
  3857                           ;car_black_box_def.c: 301:                     log_pos = log_count;
  3858     0BA2  0879               	movf	_log_count,w
  3859     0BA3  00E1               	movwf	view_log@log_pos
  3860     0BA4                     l4827:
  3861                           
  3862                           ;car_black_box_def.c: 302:                 get_saved_log(log_pos);
  3863     0BA4  0861               	movf	view_log@log_pos,w
  3864     0BA5  160A  118A  26DD  120A  158A  	fcall	_get_saved_log
  3865     0BAA                     l4829:
  3866                           
  3867                           ;car_black_box_def.c: 303:                 print_log(log_pos);
  3868     0BAA  1283               	bcf	3,5	;RP0=0, select bank0
  3869     0BAB  1303               	bcf	3,6	;RP1=0, select bank0
  3870     0BAC  0861               	movf	view_log@log_pos,w
  3871     0BAD  120A  158A  2210  120A  158A  	fcall	_print_log
  3872     0BB2                     l4831:
  3873                           
  3874                           ;car_black_box_def.c: 304:                 pre_key = press = 0;
  3875     0BB2  1283               	bcf	3,5	;RP0=0, select bank0
  3876     0BB3  1303               	bcf	3,6	;RP1=0, select bank0
  3877     0BB4  01DD               	clrf	_press
  3878     0BB5  01DE               	clrf	_press+1
  3879     0BB6  1003               	clrc
  3880     0BB7  3000               	movlw	0
  3881     0BB8  1803               	btfsc	3,0
  3882     0BB9  3001               	movlw	1
  3883     0BBA  00E9               	movwf	_pre_key
  3884     0BBB                     l4833:
  3885                           
  3886                           ;car_black_box_def.c: 305:                 return_time = 5;
  3887     0BBB  3005               	movlw	5
  3888     0BBC  00DF               	movwf	_return_time
  3889     0BBD  3000               	movlw	0
  3890     0BBE  00E0               	movwf	_return_time+1
  3891                           
  3892                           ;car_black_box_def.c: 306:             }
  3893     0BBF  2C0C               	goto	l4857
  3894     0BC0                     l4835:
  3895     0BC0  302F               	movlw	47
  3896     0BC1  0669               	xorwf	_pre_key,w
  3897     0BC2  1D03               	btfss	3,2
  3898     0BC3  2BC5               	goto	u4781
  3899     0BC4  2BC6               	goto	u4780
  3900     0BC5                     u4781:
  3901     0BC5  2BE1               	goto	l428
  3902     0BC6                     u4780:
  3903     0BC6                     l4837:
  3904                           
  3905                           ;car_black_box_def.c: 308:             {;car_black_box_def.c: 309:                 if (+
      +                          +log_pos > log_count)
  3906     0BC6  3001               	movlw	1
  3907     0BC7  00B9               	movwf	??_view_log
  3908     0BC8  0839               	movf	??_view_log,w
  3909     0BC9  07E1               	addwf	view_log@log_pos,f
  3910     0BCA  0861               	movf	view_log@log_pos,w
  3911     0BCB  0279               	subwf	_log_count,w
  3912     0BCC  1803               	skipnc
  3913     0BCD  2BCF               	goto	u4791
  3914     0BCE  2BD0               	goto	u4790
  3915     0BCF                     u4791:
  3916     0BCF  2BD2               	goto	l4841
  3917     0BD0                     u4790:
  3918     0BD0                     l4839:
  3919                           
  3920                           ;car_black_box_def.c: 310:                     log_pos = 1;
  3921     0BD0  01E1               	clrf	view_log@log_pos
  3922     0BD1  0AE1               	incf	view_log@log_pos,f
  3923     0BD2                     l4841:
  3924                           
  3925                           ;car_black_box_def.c: 311:                 get_saved_log(log_pos);
  3926     0BD2  0861               	movf	view_log@log_pos,w
  3927     0BD3  160A  118A  26DD  120A  158A  	fcall	_get_saved_log
  3928     0BD8                     l4843:
  3929                           
  3930                           ;car_black_box_def.c: 312:                 print_log(log_pos);
  3931     0BD8  1283               	bcf	3,5	;RP0=0, select bank0
  3932     0BD9  1303               	bcf	3,6	;RP1=0, select bank0
  3933     0BDA  0861               	movf	view_log@log_pos,w
  3934     0BDB  120A  158A  2210  120A  158A  	fcall	_print_log
  3935     0BE0  2BB2               	goto	l4831
  3936     0BE1                     l428:	
  3937                           ;car_black_box_def.c: 316:         }
  3938                           
  3939                           
  3940                           ;car_black_box_def.c: 317:     }
  3941     0BE1  2C0C               	goto	l4857
  3942     0BE2                     l4849:
  3943                           
  3944                           ;car_black_box_def.c: 320:     {;car_black_box_def.c: 321:         clcd_print("     NO L
      +                          OGS    ", (0x80 + 0));
  3945     0BE2  3000               	movlw	low (STR_25| (0+32768))
  3946     0BE3  1283               	bcf	3,5	;RP0=0, select bank0
  3947     0BE4  1303               	bcf	3,6	;RP1=0, select bank0
  3948     0BE5  00A0               	movwf	clcd_print@str
  3949     0BE6  3090               	movlw	high (STR_25| (0+32768))
  3950     0BE7  00A1               	movwf	clcd_print@str+1
  3951     0BE8  3080               	movlw	128
  3952     0BE9  00A2               	movwf	clcd_print@addr
  3953     0BEA  160A  118A  23B8  120A  158A  	fcall	_clcd_print
  3954                           
  3955                           ;car_black_box_def.c: 322:         clcd_print("  ARE AVAILABLE ", (0xC0 + 0));
  3956     0BEF  3044               	movlw	low (STR_26| (0+32768))
  3957     0BF0  1283               	bcf	3,5	;RP0=0, select bank0
  3958     0BF1  1303               	bcf	3,6	;RP1=0, select bank0
  3959     0BF2  00A0               	movwf	clcd_print@str
  3960     0BF3  3090               	movlw	high (STR_26| (0+32768))
  3961     0BF4  00A1               	movwf	clcd_print@str+1
  3962     0BF5  30C0               	movlw	192
  3963     0BF6  00A2               	movwf	clcd_print@addr
  3964     0BF7  160A  118A  23B8  120A  158A  	fcall	_clcd_print
  3965     0BFC                     l4851:
  3966                           
  3967                           ;car_black_box_def.c: 323:         _delay((unsigned long)((3000)*(20000000/4000.0)));
  3968     0BFC  304D               	movlw	77
  3969     0BFD  1283               	bcf	3,5	;RP0=0, select bank0
  3970     0BFE  1303               	bcf	3,6	;RP1=0, select bank0
  3971     0BFF  00BB               	movwf	??_view_log+2
  3972     0C00  3019               	movlw	25
  3973     0C01  00BA               	movwf	??_view_log+1
  3974     0C02  304F               	movlw	79
  3975     0C03  00B9               	movwf	??_view_log
  3976     0C04                     u6187:
  3977     0C04  0BB9               	decfsz	??_view_log,f
  3978     0C05  2C04               	goto	u6187
  3979     0C06  0BBA               	decfsz	??_view_log+1,f
  3980     0C07  2C04               	goto	u6187
  3981     0C08  0BBB               	decfsz	??_view_log+2,f
  3982     0C09  2C04               	goto	u6187
  3983     0C0A                     l4853:
  3984                           
  3985                           ;car_black_box_def.c: 324:         return 0x22;
  3986     0C0A  3022               	movlw	34
  3987     0C0B  2C1B               	goto	l435
  3988     0C0C                     l4857:
  3989                           
  3990                           ;car_black_box_def.c: 326:     _delay((unsigned long)((81)*(20000000/4000.0)));
  3991     0C0C  3003               	movlw	3
  3992     0C0D  1283               	bcf	3,5	;RP0=0, select bank0
  3993     0C0E  1303               	bcf	3,6	;RP1=0, select bank0
  3994     0C0F  00BB               	movwf	??_view_log+2
  3995     0C10  300E               	movlw	14
  3996     0C11  00BA               	movwf	??_view_log+1
  3997     0C12  30F5               	movlw	245
  3998     0C13  00B9               	movwf	??_view_log
  3999     0C14                     u6197:
  4000     0C14  0BB9               	decfsz	??_view_log,f
  4001     0C15  2C14               	goto	u6197
  4002     0C16  0BBA               	decfsz	??_view_log+1,f
  4003     0C17  2C14               	goto	u6197
  4004     0C18  0BBB               	decfsz	??_view_log+2,f
  4005     0C19  2C14               	goto	u6197
  4006                           
  4007                           ;car_black_box_def.c: 327:     return 0x11;
  4008     0C1A  3011               	movlw	17
  4009     0C1B                     l435:
  4010     0C1B  0008               	return
  4011     0C1C                     __end_of_view_log:
  4012                           
  4013                           	psect	text2
  4014     0A10                     __ptext2:	
  4015 ;; *************** function _print_log *****************
  4016 ;; Defined at:
  4017 ;;		line 258 in file "car_black_box_def.c"
  4018 ;; Parameters:    Size  Location     Type
  4019 ;;  log_pos         1    wreg     unsigned char 
  4020 ;; Auto vars:     Size  Location     Type
  4021 ;;  log_pos         1   23[BANK0 ] unsigned char 
  4022 ;; Return value:  Size  Location     Type
  4023 ;;                  1    wreg      void 
  4024 ;; Registers used:
  4025 ;;		wreg, status,2, status,0, pclath, cstack
  4026 ;; Tracked objects:
  4027 ;;		On entry : 0/0
  4028 ;;		On exit  : 0/0
  4029 ;;		Unchanged: 0/0
  4030 ;; Data sizes:     COMMON   BANK0   BANK1   BANK3   BANK2
  4031 ;;      Params:         0       0       0       0       0
  4032 ;;      Locals:         0       1       0       0       0
  4033 ;;      Temps:          0       0       0       0       0
  4034 ;;      Totals:         0       1       0       0       0
  4035 ;;Total ram usage:        1 bytes
  4036 ;; Hardware stack levels used: 1
  4037 ;; Hardware stack levels required when called: 3
  4038 ;; This function calls:
  4039 ;;		_clcd_putch
  4040 ;; This function is called by:
  4041 ;;		_view_log
  4042 ;; This function uses a non-reentrant model
  4043 ;;
  4044                           
  4045     0A10                     _print_log:	
  4046                           ;psect for function _print_log
  4047                           
  4048                           
  4049                           ;incstack = 0
  4050                           ; Regs used in _print_log: [wreg+status,2+status,0+pclath+cstack]
  4051                           ;print_log@log_pos stored from wreg
  4052     0A10  1283               	bcf	3,5	;RP0=0, select bank0
  4053     0A11  1303               	bcf	3,6	;RP1=0, select bank0
  4054     0A12  00B7               	movwf	print_log@log_pos
  4055     0A13                     l4395:
  4056                           
  4057                           ;car_black_box_def.c: 258: void print_log(char log_pos);car_black_box_def.c: 259: {;car_
      +                          black_box_def.c: 260:     clcd_putch(log_pos - 1 + '0', (0xC0 + 0));
  4058     0A13  30C0               	movlw	192
  4059     0A14  00B6               	movwf	clcd_putch@addr
  4060     0A15  0837               	movf	print_log@log_pos,w
  4061     0A16  3E2F               	addlw	47
  4062     0A17  160A  158A  27B0  120A  158A  	fcall	_clcd_putch
  4063                           
  4064                           ;car_black_box_def.c: 261:     clcd_putch(saved_time[0], (0xC0 + 2));
  4065     0A1C  30C2               	movlw	194
  4066     0A1D  1283               	bcf	3,5	;RP0=0, select bank0
  4067     0A1E  1303               	bcf	3,6	;RP1=0, select bank0
  4068     0A1F  00B6               	movwf	clcd_putch@addr
  4069     0A20  1683               	bsf	3,5	;RP0=1, select bank1
  4070     0A21  1303               	bcf	3,6	;RP1=0, select bank1
  4071     0A22  0820               	movf	_saved_time^(0+128),w
  4072     0A23  160A  158A  27B0  120A  158A  	fcall	_clcd_putch
  4073                           
  4074                           ;car_black_box_def.c: 262:     clcd_putch(saved_time[1], (0xC0 + 3));
  4075     0A28  30C3               	movlw	195
  4076     0A29  1283               	bcf	3,5	;RP0=0, select bank0
  4077     0A2A  1303               	bcf	3,6	;RP1=0, select bank0
  4078     0A2B  00B6               	movwf	clcd_putch@addr
  4079     0A2C  1683               	bsf	3,5	;RP0=1, select bank1
  4080     0A2D  1303               	bcf	3,6	;RP1=0, select bank1
  4081     0A2E  0821               	movf	(_saved_time^(0+128)+1),w
  4082     0A2F  160A  158A  27B0  120A  158A  	fcall	_clcd_putch
  4083                           
  4084                           ;car_black_box_def.c: 263:     clcd_putch(':', (0xC0 + 4));
  4085     0A34  30C4               	movlw	196
  4086     0A35  1283               	bcf	3,5	;RP0=0, select bank0
  4087     0A36  1303               	bcf	3,6	;RP1=0, select bank0
  4088     0A37  00B6               	movwf	clcd_putch@addr
  4089     0A38  303A               	movlw	58
  4090     0A39  160A  158A  27B0  120A  158A  	fcall	_clcd_putch
  4091                           
  4092                           ;car_black_box_def.c: 264:     clcd_putch(saved_time[2], (0xC0 + 5));
  4093     0A3E  30C5               	movlw	197
  4094     0A3F  1283               	bcf	3,5	;RP0=0, select bank0
  4095     0A40  1303               	bcf	3,6	;RP1=0, select bank0
  4096     0A41  00B6               	movwf	clcd_putch@addr
  4097     0A42  1683               	bsf	3,5	;RP0=1, select bank1
  4098     0A43  1303               	bcf	3,6	;RP1=0, select bank1
  4099     0A44  0822               	movf	(_saved_time^(0+128)+2),w
  4100     0A45  160A  158A  27B0  120A  158A  	fcall	_clcd_putch
  4101                           
  4102                           ;car_black_box_def.c: 265:     clcd_putch(saved_time[3], (0xC0 + 6));
  4103     0A4A  30C6               	movlw	198
  4104     0A4B  1283               	bcf	3,5	;RP0=0, select bank0
  4105     0A4C  1303               	bcf	3,6	;RP1=0, select bank0
  4106     0A4D  00B6               	movwf	clcd_putch@addr
  4107     0A4E  1683               	bsf	3,5	;RP0=1, select bank1
  4108     0A4F  1303               	bcf	3,6	;RP1=0, select bank1
  4109     0A50  0823               	movf	(_saved_time^(0+128)+3),w
  4110     0A51  160A  158A  27B0  120A  158A  	fcall	_clcd_putch
  4111                           
  4112                           ;car_black_box_def.c: 266:     clcd_putch(':', (0xC0 + 7));
  4113     0A56  30C7               	movlw	199
  4114     0A57  1283               	bcf	3,5	;RP0=0, select bank0
  4115     0A58  1303               	bcf	3,6	;RP1=0, select bank0
  4116     0A59  00B6               	movwf	clcd_putch@addr
  4117     0A5A  303A               	movlw	58
  4118     0A5B  160A  158A  27B0  120A  158A  	fcall	_clcd_putch
  4119                           
  4120                           ;car_black_box_def.c: 267:     clcd_putch(saved_time[4], (0xC0 + 8));
  4121     0A60  30C8               	movlw	200
  4122     0A61  1283               	bcf	3,5	;RP0=0, select bank0
  4123     0A62  1303               	bcf	3,6	;RP1=0, select bank0
  4124     0A63  00B6               	movwf	clcd_putch@addr
  4125     0A64  1683               	bsf	3,5	;RP0=1, select bank1
  4126     0A65  1303               	bcf	3,6	;RP1=0, select bank1
  4127     0A66  0824               	movf	(_saved_time^(0+128)+4),w
  4128     0A67  160A  158A  27B0  120A  158A  	fcall	_clcd_putch
  4129                           
  4130                           ;car_black_box_def.c: 268:     clcd_putch(saved_time[5], (0xC0 + 9));
  4131     0A6C  30C9               	movlw	201
  4132     0A6D  1283               	bcf	3,5	;RP0=0, select bank0
  4133     0A6E  1303               	bcf	3,6	;RP1=0, select bank0
  4134     0A6F  00B6               	movwf	clcd_putch@addr
  4135     0A70  1683               	bsf	3,5	;RP0=1, select bank1
  4136     0A71  1303               	bcf	3,6	;RP1=0, select bank1
  4137     0A72  0825               	movf	(_saved_time^(0+128)+5),w
  4138     0A73  160A  158A  27B0  120A  158A  	fcall	_clcd_putch
  4139                           
  4140                           ;car_black_box_def.c: 270:     clcd_putch(saved_event[0], (0xC0 + 11));
  4141     0A78  30CB               	movlw	203
  4142     0A79  1283               	bcf	3,5	;RP0=0, select bank0
  4143     0A7A  1303               	bcf	3,6	;RP1=0, select bank0
  4144     0A7B  00B6               	movwf	clcd_putch@addr
  4145     0A7C  1683               	bsf	3,5	;RP0=1, select bank1
  4146     0A7D  1303               	bcf	3,6	;RP1=0, select bank1
  4147     0A7E  0827               	movf	_saved_event^(0+128),w
  4148     0A7F  160A  158A  27B0  120A  158A  	fcall	_clcd_putch
  4149                           
  4150                           ;car_black_box_def.c: 271:     clcd_putch(saved_event[1], (0xC0 + 12));
  4151     0A84  30CC               	movlw	204
  4152     0A85  1283               	bcf	3,5	;RP0=0, select bank0
  4153     0A86  1303               	bcf	3,6	;RP1=0, select bank0
  4154     0A87  00B6               	movwf	clcd_putch@addr
  4155     0A88  1683               	bsf	3,5	;RP0=1, select bank1
  4156     0A89  1303               	bcf	3,6	;RP1=0, select bank1
  4157     0A8A  0828               	movf	(_saved_event^(0+128)+1),w
  4158     0A8B  160A  158A  27B0  120A  158A  	fcall	_clcd_putch
  4159                           
  4160                           ;car_black_box_def.c: 273:     clcd_putch(saved_speed[0], (0xC0 + 14));
  4161     0A90  30CE               	movlw	206
  4162     0A91  1283               	bcf	3,5	;RP0=0, select bank0
  4163     0A92  1303               	bcf	3,6	;RP1=0, select bank0
  4164     0A93  00B6               	movwf	clcd_putch@addr
  4165     0A94  1683               	bsf	3,5	;RP0=1, select bank1
  4166     0A95  1303               	bcf	3,6	;RP1=0, select bank1
  4167     0A96  082A               	movf	_saved_speed^(0+128),w
  4168     0A97  160A  158A  27B0  120A  158A  	fcall	_clcd_putch
  4169                           
  4170                           ;car_black_box_def.c: 274:     clcd_putch(saved_speed[1], (0xC0 + 15));
  4171     0A9C  30CF               	movlw	207
  4172     0A9D  1283               	bcf	3,5	;RP0=0, select bank0
  4173     0A9E  1303               	bcf	3,6	;RP1=0, select bank0
  4174     0A9F  00B6               	movwf	clcd_putch@addr
  4175     0AA0  1683               	bsf	3,5	;RP0=1, select bank1
  4176     0AA1  1303               	bcf	3,6	;RP1=0, select bank1
  4177     0AA2  082B               	movf	(_saved_speed^(0+128)+1),w
  4178     0AA3  160A  158A  27B0  120A  158A  	fcall	_clcd_putch
  4179     0AA8                     l420:
  4180     0AA8  0008               	return
  4181     0AA9                     __end_of_print_log:
  4182                           
  4183                           	psect	text3
  4184     1386                     __ptext3:	
  4185 ;; *************** function _strcmp *****************
  4186 ;; Defined at:
  4187 ;;		line 33 in file "C:\Program Files\Microchip\xc8\v2.40\pic\sources\c90\common\strcmp.c"
  4188 ;; Parameters:    Size  Location     Type
  4189 ;;  s1              1    wreg     PTR const unsigned char 
  4190 ;;		 -> main@event(3), 
  4191 ;;  s2              2    3[COMMON] PTR const unsigned char 
  4192 ;;		 -> STR_10(3), 
  4193 ;; Auto vars:     Size  Location     Type
  4194 ;;  s1              1    8[COMMON] PTR const unsigned char 
  4195 ;;		 -> main@event(3), 
  4196 ;;  r               1    7[COMMON] char 
  4197 ;; Return value:  Size  Location     Type
  4198 ;;                  2    3[COMMON] int 
  4199 ;; Registers used:
  4200 ;;		wreg, fsr0l, fsr0h, status,2, status,0, btemp+1, pclath
  4201 ;; Tracked objects:
  4202 ;;		On entry : 0/0
  4203 ;;		On exit  : 0/0
  4204 ;;		Unchanged: 0/0
  4205 ;; Data sizes:     COMMON   BANK0   BANK1   BANK3   BANK2
  4206 ;;      Params:         2       0       0       0       0
  4207 ;;      Locals:         2       0       0       0       0
  4208 ;;      Temps:          2       0       0       0       0
  4209 ;;      Totals:         6       0       0       0       0
  4210 ;;Total ram usage:        6 bytes
  4211 ;; Hardware stack levels used: 2
  4212 ;; Hardware stack levels required when called: 1
  4213 ;; This function calls:
  4214 ;;		Nothing
  4215 ;; This function is called by:
  4216 ;;		_main
  4217 ;; This function uses a non-reentrant model
  4218 ;;
  4219                           
  4220     1386                     _strcmp:	
  4221                           ;psect for function _strcmp
  4222                           
  4223                           
  4224                           ;incstack = 0
  4225                           ; Regs used in _strcmp: [wreg-fsr0h+status,2+status,0+btemp+1+pclath]
  4226                           ;strcmp@s1 stored from wreg
  4227     1386  00F8               	movwf	strcmp@s1
  4228     1387                     l4617:
  4229     1387  2B92               	goto	l4621
  4230     1388                     l4619:
  4231     1388  3001               	movlw	1
  4232     1389  00F5               	movwf	??_strcmp
  4233     138A  0875               	movf	??_strcmp,w
  4234     138B  07F8               	addwf	strcmp@s1,f
  4235     138C  3001               	movlw	1
  4236     138D  07F3               	addwf	strcmp@s2,f
  4237     138E  1803               	skipnc
  4238     138F  0AF4               	incf	strcmp@s2+1,f
  4239     1390  3000               	movlw	0
  4240     1391  07F4               	addwf	strcmp@s2+1,f
  4241     1392                     l4621:
  4242     1392  0874               	movf	strcmp@s2+1,w
  4243     1393  1283               	bcf	3,5	;RP0=0, select bank0
  4244     1394  1303               	bcf	3,6	;RP1=0, select bank0
  4245     1395  00FF               	movwf	btemp+1
  4246     1396  0873               	movf	strcmp@s2,w
  4247     1397  0084               	movwf	4
  4248     1398  160A  158A  2000  160A  118A  	fcall	stringtab
  4249     139D  00F5               	movwf	??_strcmp
  4250     139E  0878               	movf	strcmp@s1,w
  4251     139F  0084               	movwf	4
  4252     13A0  1783               	bsf	3,7	;select IRP bank2
  4253     13A1  0800               	movf	0,w
  4254     13A2  00F6               	movwf	??_strcmp+1
  4255     13A3  0875               	movf	??_strcmp,w
  4256     13A4  0276               	subwf	??_strcmp+1,w
  4257     13A5  00F7               	movwf	strcmp@r
  4258     13A6  0877               	movf	strcmp@r,w
  4259     13A7  1D03               	btfss	3,2
  4260     13A8  2BAA               	goto	u4481
  4261     13A9  2BAB               	goto	u4480
  4262     13AA                     u4481:
  4263     13AA  2BB2               	goto	l4625
  4264     13AB                     u4480:
  4265     13AB                     l4623:
  4266     13AB  0878               	movf	strcmp@s1,w
  4267     13AC  0084               	movwf	4
  4268     13AD  0800               	movf	0,w
  4269     13AE  1D03               	btfss	3,2
  4270     13AF  2BB1               	goto	u4491
  4271     13B0  2BB2               	goto	u4490
  4272     13B1                     u4491:
  4273     13B1  2B88               	goto	l4619
  4274     13B2                     u4490:
  4275     13B2                     l4625:
  4276     13B2  0877               	movf	strcmp@r,w
  4277     13B3  00F3               	movwf	?_strcmp
  4278     13B4  01F4               	clrf	?_strcmp+1
  4279     13B5  1BF3               	btfsc	?_strcmp,7
  4280     13B6  03F4               	decf	?_strcmp+1,f
  4281     13B7                     l1152:
  4282     13B7  0008               	return
  4283     13B8                     __end_of_strcmp:
  4284                           
  4285                           	psect	text4
  4286     1275                     __ptext4:	
  4287 ;; *************** function _read_digital_keypad *****************
  4288 ;; Defined at:
  4289 ;;		line 10 in file "digital_keypad.c"
  4290 ;; Parameters:    Size  Location     Type
  4291 ;;  mode            1    wreg     unsigned char 
  4292 ;; Auto vars:     Size  Location     Type
  4293 ;;  mode            1    4[COMMON] unsigned char 
  4294 ;; Return value:  Size  Location     Type
  4295 ;;                  1    wreg      unsigned char 
  4296 ;; Registers used:
  4297 ;;		wreg, status,2, status,0
  4298 ;; Tracked objects:
  4299 ;;		On entry : 0/0
  4300 ;;		On exit  : 0/0
  4301 ;;		Unchanged: 0/0
  4302 ;; Data sizes:     COMMON   BANK0   BANK1   BANK3   BANK2
  4303 ;;      Params:         0       0       0       0       0
  4304 ;;      Locals:         1       0       0       0       0
  4305 ;;      Temps:          1       0       0       0       0
  4306 ;;      Totals:         2       0       0       0       0
  4307 ;;Total ram usage:        2 bytes
  4308 ;; Hardware stack levels used: 1
  4309 ;; Hardware stack levels required when called: 1
  4310 ;; This function calls:
  4311 ;;		Nothing
  4312 ;; This function is called by:
  4313 ;;		_main
  4314 ;; This function uses a non-reentrant model
  4315 ;;
  4316                           
  4317     1275                     _read_digital_keypad:	
  4318                           ;psect for function _read_digital_keypad
  4319                           
  4320                           
  4321                           ;incstack = 0
  4322                           ; Regs used in _read_digital_keypad: [wreg+status,2+status,0]
  4323                           ;read_digital_keypad@mode stored from wreg
  4324     1275  00F4               	movwf	read_digital_keypad@mode
  4325     1276                     l4589:
  4326                           
  4327                           ;digital_keypad.c: 10: unsigned char read_digital_keypad(unsigned char mode);digital_key
      +                          pad.c: 11: {;digital_keypad.c: 12:     static unsigned char once = 1;;digital_keypad.c: 
      +                          14:     if (mode == 0)
  4328     1276  0874               	movf	read_digital_keypad@mode,w
  4329     1277  1D03               	btfss	3,2
  4330     1278  2A7A               	goto	u4441
  4331     1279  2A7B               	goto	u4440
  4332     127A                     u4441:
  4333     127A  2A80               	goto	l4597
  4334     127B                     u4440:
  4335     127B                     l4591:
  4336                           
  4337                           ;digital_keypad.c: 15:     {;digital_keypad.c: 16:         return PORTB & 0x3F;
  4338     127B  1283               	bcf	3,5	;RP0=0, select bank0
  4339     127C  1303               	bcf	3,6	;RP1=0, select bank0
  4340     127D  0806               	movf	6,w	;volatile
  4341     127E  393F               	andlw	63
  4342     127F  2A9E               	goto	l196
  4343     1280                     l4597:
  4344                           
  4345                           ;digital_keypad.c: 19:     {;digital_keypad.c: 20:         if (((PORTB & 0x3F) != 0x3F) 
      +                          && once)
  4346     1280  303F               	movlw	63
  4347     1281  1283               	bcf	3,5	;RP0=0, select bank0
  4348     1282  1303               	bcf	3,6	;RP1=0, select bank0
  4349     1283  0506               	andwf	6,w	;volatile
  4350     1284  00F3               	movwf	??_read_digital_keypad
  4351     1285  303F               	movlw	63
  4352     1286  0673               	xorwf	??_read_digital_keypad,w
  4353     1287  1903               	btfsc	3,2
  4354     1288  2A8A               	goto	u4451
  4355     1289  2A8B               	goto	u4450
  4356     128A                     u4451:
  4357     128A  2A92               	goto	l4609
  4358     128B                     u4450:
  4359     128B                     l4599:
  4360     128B  086A               	movf	read_digital_keypad@once,w
  4361     128C  1903               	btfsc	3,2
  4362     128D  2A8F               	goto	u4461
  4363     128E  2A90               	goto	u4460
  4364     128F                     u4461:
  4365     128F  2A92               	goto	l4609
  4366     1290                     u4460:
  4367     1290                     l4601:
  4368                           
  4369                           ;digital_keypad.c: 21:         {;digital_keypad.c: 22:             once = 0;
  4370     1290  01EA               	clrf	read_digital_keypad@once
  4371     1291  2A7B               	goto	l4591
  4372     1292                     l4609:
  4373     1292  303F               	movlw	63
  4374     1293  0506               	andwf	6,w	;volatile
  4375     1294  00F3               	movwf	??_read_digital_keypad
  4376     1295  303F               	movlw	63
  4377     1296  0673               	xorwf	??_read_digital_keypad,w
  4378     1297  1D03               	btfss	3,2
  4379     1298  2A9A               	goto	u4471
  4380     1299  2A9B               	goto	u4470
  4381     129A                     u4471:
  4382     129A  2A9D               	goto	l4613
  4383     129B                     u4470:
  4384     129B                     l4611:
  4385                           
  4386                           ;digital_keypad.c: 27:         {;digital_keypad.c: 28:             once = 1;
  4387     129B  01EA               	clrf	read_digital_keypad@once
  4388     129C  0AEA               	incf	read_digital_keypad@once,f
  4389     129D                     l4613:
  4390                           
  4391                           ;digital_keypad.c: 32:     return 0x3F;
  4392     129D  303F               	movlw	63
  4393     129E                     l196:
  4394     129E  0008               	return
  4395     129F                     __end_of_read_digital_keypad:
  4396                           
  4397                           	psect	text5
  4398     1F9E                     __ptext5:	
  4399 ;; *************** function _read_adc *****************
  4400 ;; Defined at:
  4401 ;;		line 12 in file "adc.c"
  4402 ;; Parameters:    Size  Location     Type
  4403 ;;		None
  4404 ;; Auto vars:     Size  Location     Type
  4405 ;;  adc_reg_val     2    5[COMMON] unsigned short 
  4406 ;; Return value:  Size  Location     Type
  4407 ;;                  2    3[COMMON] unsigned short 
  4408 ;; Registers used:
  4409 ;;		wreg
  4410 ;; Tracked objects:
  4411 ;;		On entry : 0/0
  4412 ;;		On exit  : 0/0
  4413 ;;		Unchanged: 0/0
  4414 ;; Data sizes:     COMMON   BANK0   BANK1   BANK3   BANK2
  4415 ;;      Params:         2       0       0       0       0
  4416 ;;      Locals:         2       0       0       0       0
  4417 ;;      Temps:          0       0       0       0       0
  4418 ;;      Totals:         4       0       0       0       0
  4419 ;;Total ram usage:        4 bytes
  4420 ;; Hardware stack levels used: 1
  4421 ;; Hardware stack levels required when called: 1
  4422 ;; This function calls:
  4423 ;;		Nothing
  4424 ;; This function is called by:
  4425 ;;		_main
  4426 ;; This function uses a non-reentrant model
  4427 ;;
  4428                           
  4429     1F9E                     _read_adc:	
  4430                           ;psect for function _read_adc
  4431                           
  4432     1F9E                     l4583:	
  4433                           ;incstack = 0
  4434                           ; Regs used in _read_adc: [wreg]
  4435                           
  4436                           
  4437                           ;adc.c: 14:     unsigned short adc_reg_val;;adc.c: 17:     GO = 1;
  4438     1F9E  1283               	bcf	3,5	;RP0=0, select bank0
  4439     1F9F  1303               	bcf	3,6	;RP1=0, select bank0
  4440     1FA0  151F               	bsf	31,2	;volatile
  4441     1FA1                     l218:	
  4442                           ;adc.c: 20:     while (nDONE);
  4443                           
  4444     1FA1  191F               	btfsc	31,2	;volatile
  4445     1FA2  2FA4               	goto	u4431
  4446     1FA3  2FA5               	goto	u4430
  4447     1FA4                     u4431:
  4448     1FA4  2FA1               	goto	l218
  4449     1FA5                     u4430:
  4450     1FA5                     l4585:
  4451                           
  4452                           ;adc.c: 23:     adc_reg_val = (ADRESH << 8) | ADRESL;
  4453     1FA5  081E               	movf	30,w	;volatile
  4454     1FA6  00F6               	movwf	read_adc@adc_reg_val+1
  4455     1FA7  1683               	bsf	3,5	;RP0=1, select bank1
  4456     1FA8  1303               	bcf	3,6	;RP1=0, select bank1
  4457     1FA9  081E               	movf	30,w	;volatile
  4458     1FAA  00F5               	movwf	read_adc@adc_reg_val
  4459                           
  4460                           ;adc.c: 25:     return adc_reg_val;
  4461     1FAB  0876               	movf	read_adc@adc_reg_val+1,w
  4462     1FAC  00F4               	movwf	?_read_adc+1
  4463     1FAD  0875               	movf	read_adc@adc_reg_val,w
  4464     1FAE  00F3               	movwf	?_read_adc
  4465     1FAF                     l221:
  4466     1FAF  0008               	return
  4467     1FB0                     __end_of_read_adc:
  4468                           
  4469                           	psect	text6
  4470     06B3                     __ptext6:	
  4471 ;; *************** function _login_menu *****************
  4472 ;; Defined at:
  4473 ;;		line 187 in file "car_black_box_def.c"
  4474 ;; Parameters:    Size  Location     Type
  4475 ;;  reset_flag      1    wreg     unsigned char 
  4476 ;;  key             1   23[BANK0 ] unsigned char 
  4477 ;; Auto vars:     Size  Location     Type
  4478 ;;  reset_flag      1   26[BANK0 ] unsigned char 
  4479 ;; Return value:  Size  Location     Type
  4480 ;;                  1    wreg      unsigned char 
  4481 ;; Registers used:
  4482 ;;		wreg, fsr0l, fsr0h, status,2, status,0, btemp+1, pclath, cstack
  4483 ;; Tracked objects:
  4484 ;;		On entry : 0/0
  4485 ;;		On exit  : 0/0
  4486 ;;		Unchanged: 0/0
  4487 ;; Data sizes:     COMMON   BANK0   BANK1   BANK3   BANK2
  4488 ;;      Params:         0       1       0       0       0
  4489 ;;      Locals:         0       1       0       0       0
  4490 ;;      Temps:          0       2       0       0       0
  4491 ;;      Totals:         0       4       0       0       0
  4492 ;;Total ram usage:        4 bytes
  4493 ;; Hardware stack levels used: 1
  4494 ;; Hardware stack levels required when called: 3
  4495 ;; This function calls:
  4496 ;;		_clcd_print
  4497 ;;		_clcd_putch
  4498 ;;		_clear_screen
  4499 ;; This function is called by:
  4500 ;;		_main
  4501 ;; This function uses a non-reentrant model
  4502 ;;
  4503                           
  4504     06B3                     _login_menu:	
  4505                           ;psect for function _login_menu
  4506                           
  4507                           
  4508                           ;incstack = 0
  4509                           ; Regs used in _login_menu: [wreg-fsr0h+status,2+status,0+btemp+1+pclath+cstack]
  4510                           ;login_menu@reset_flag stored from wreg
  4511     06B3  1283               	bcf	3,5	;RP0=0, select bank0
  4512     06B4  1303               	bcf	3,6	;RP1=0, select bank0
  4513     06B5  00BA               	movwf	login_menu@reset_flag
  4514     06B6                     l4741:
  4515                           
  4516                           ;car_black_box_def.c: 187: char login_menu(unsigned char reset_flag, unsigned char key);
      +                          car_black_box_def.c: 188: {;car_black_box_def.c: 189:     static char menu_pos;;car_blac
      +                          k_box_def.c: 190:     if (reset_flag == 0x05)
  4517     06B6  3005               	movlw	5
  4518     06B7  063A               	xorwf	login_menu@reset_flag,w
  4519     06B8  1D03               	btfss	3,2
  4520     06B9  2EBB               	goto	u4621
  4521     06BA  2EBC               	goto	u4620
  4522     06BB                     u4621:
  4523     06BB  2ECF               	goto	l4751
  4524     06BC                     u4620:
  4525     06BC                     l4743:
  4526                           
  4527                           ;car_black_box_def.c: 191:     {;car_black_box_def.c: 192:         clear_screen();
  4528     06BC  160A  158A  278D  120A  118A  	fcall	_clear_screen
  4529     06C1                     l4745:
  4530                           
  4531                           ;car_black_box_def.c: 193:         return_time = 5;
  4532     06C1  3005               	movlw	5
  4533     06C2  1283               	bcf	3,5	;RP0=0, select bank0
  4534     06C3  1303               	bcf	3,6	;RP1=0, select bank0
  4535     06C4  00DF               	movwf	_return_time
  4536     06C5  3000               	movlw	0
  4537     06C6  00E0               	movwf	_return_time+1
  4538     06C7                     l4747:
  4539                           
  4540                           ;car_black_box_def.c: 194:         menu_pos = 0;
  4541     06C7  01E2               	clrf	login_menu@menu_pos
  4542     06C8                     l4749:
  4543                           
  4544                           ;car_black_box_def.c: 195:         pre_key = press = 0;
  4545     06C8  01DD               	clrf	_press
  4546     06C9  01DE               	clrf	_press+1
  4547     06CA  1003               	clrc
  4548     06CB  3000               	movlw	0
  4549     06CC  1803               	btfsc	3,0
  4550     06CD  3001               	movlw	1
  4551     06CE  00E9               	movwf	_pre_key
  4552     06CF                     l4751:
  4553                           
  4554                           ;car_black_box_def.c: 198:     if (key == 0x3F && press < 130)
  4555     06CF  303F               	movlw	63
  4556     06D0  0637               	xorwf	login_menu@key,w
  4557     06D1  1D03               	btfss	3,2
  4558     06D2  2ED4               	goto	u4631
  4559     06D3  2ED5               	goto	u4630
  4560     06D4                     u4631:
  4561     06D4  2F15               	goto	l4779
  4562     06D5                     u4630:
  4563     06D5                     l4753:
  4564     06D5  085E               	movf	_press+1,w
  4565     06D6  3A80               	xorlw	128
  4566     06D7  00FF               	movwf	btemp+1
  4567     06D8  3080               	movlw	128
  4568     06D9  027F               	subwf	btemp+1,w
  4569     06DA  1D03               	skipz
  4570     06DB  2EDE               	goto	u4645
  4571     06DC  3082               	movlw	130
  4572     06DD  025D               	subwf	_press,w
  4573     06DE                     u4645:
  4574     06DE  1803               	skipnc
  4575     06DF  2EE1               	goto	u4641
  4576     06E0  2EE2               	goto	u4640
  4577     06E1                     u4641:
  4578     06E1  2F15               	goto	l4779
  4579     06E2                     u4640:
  4580     06E2                     l4755:
  4581                           
  4582                           ;car_black_box_def.c: 199:     {;car_black_box_def.c: 200:         if (pre_key == 0x2F)
  4583     06E2  302F               	movlw	47
  4584     06E3  1283               	bcf	3,5	;RP0=0, select bank0
  4585     06E4  1303               	bcf	3,6	;RP1=0, select bank0
  4586     06E5  0669               	xorwf	_pre_key,w
  4587     06E6  1D03               	btfss	3,2
  4588     06E7  2EE9               	goto	u4651
  4589     06E8  2EEA               	goto	u4650
  4590     06E9                     u4651:
  4591     06E9  2F07               	goto	l4767
  4592     06EA                     u4650:
  4593     06EA                     l4757:
  4594                           
  4595                           ;car_black_box_def.c: 201:         {;car_black_box_def.c: 202:             if (menu_pos 
      +                          < 4)
  4596     06EA  3004               	movlw	4
  4597     06EB  0262               	subwf	login_menu@menu_pos,w
  4598     06EC  1803               	skipnc
  4599     06ED  2EEF               	goto	u4661
  4600     06EE  2EF0               	goto	u4660
  4601     06EF                     u4661:
  4602     06EF  2EFD               	goto	l4765
  4603     06F0                     u4660:
  4604     06F0                     l4759:
  4605                           
  4606                           ;car_black_box_def.c: 203:             {;car_black_box_def.c: 204:                 menu_
      +                          pos++;
  4607     06F0  3001               	movlw	1
  4608     06F1  00B8               	movwf	??_login_menu
  4609     06F2  0838               	movf	??_login_menu,w
  4610     06F3  07E2               	addwf	login_menu@menu_pos,f
  4611     06F4                     l4761:
  4612                           
  4613                           ;car_black_box_def.c: 205:                 return_time = 5;
  4614     06F4  3005               	movlw	5
  4615     06F5  00DF               	movwf	_return_time
  4616     06F6  3000               	movlw	0
  4617     06F7  00E0               	movwf	_return_time+1
  4618     06F8                     l4763:
  4619                           
  4620                           ;car_black_box_def.c: 206:                 clear_screen();
  4621     06F8  160A  158A  278D  120A  118A  	fcall	_clear_screen
  4622     06FD                     l4765:
  4623                           
  4624                           ;car_black_box_def.c: 208:             pre_key = press = 0;
  4625     06FD  1283               	bcf	3,5	;RP0=0, select bank0
  4626     06FE  1303               	bcf	3,6	;RP1=0, select bank0
  4627     06FF  01DD               	clrf	_press
  4628     0700  01DE               	clrf	_press+1
  4629     0701  1003               	clrc
  4630     0702  3000               	movlw	0
  4631     0703  1803               	btfsc	3,0
  4632     0704  3001               	movlw	1
  4633     0705  00E9               	movwf	_pre_key
  4634                           
  4635                           ;car_black_box_def.c: 209:         }
  4636     0706  2F15               	goto	l4779
  4637     0707                     l4767:
  4638     0707  3037               	movlw	55
  4639     0708  0669               	xorwf	_pre_key,w
  4640     0709  1D03               	btfss	3,2
  4641     070A  2F0C               	goto	u4671
  4642     070B  2F0D               	goto	u4670
  4643     070C                     u4671:
  4644     070C  2F15               	goto	l4779
  4645     070D                     u4670:
  4646     070D                     l4769:
  4647                           
  4648                           ;car_black_box_def.c: 211:         {;car_black_box_def.c: 212:             if (menu_pos 
      +                          > 0)
  4649     070D  0862               	movf	login_menu@menu_pos,w
  4650     070E  1903               	btfsc	3,2
  4651     070F  2F11               	goto	u4681
  4652     0710  2F12               	goto	u4680
  4653     0711                     u4681:
  4654     0711  2EFD               	goto	l4765
  4655     0712                     u4680:
  4656     0712                     l4771:
  4657                           
  4658                           ;car_black_box_def.c: 213:             {;car_black_box_def.c: 214:                 menu_
      +                          pos--;
  4659     0712  3001               	movlw	1
  4660     0713  02E2               	subwf	login_menu@menu_pos,f
  4661     0714  2EF4               	goto	l4761
  4662     0715                     l4779:
  4663                           
  4664                           ;car_black_box_def.c: 222:     if (menu_pos < 4)
  4665     0715  3004               	movlw	4
  4666     0716  1283               	bcf	3,5	;RP0=0, select bank0
  4667     0717  1303               	bcf	3,6	;RP1=0, select bank0
  4668     0718  0262               	subwf	login_menu@menu_pos,w
  4669     0719  1803               	skipnc
  4670     071A  2F1C               	goto	u4691
  4671     071B  2F1D               	goto	u4690
  4672     071C                     u4691:
  4673     071C  2F50               	goto	l4787
  4674     071D                     u4690:
  4675     071D                     l4781:
  4676                           
  4677                           ;car_black_box_def.c: 223:     {;car_black_box_def.c: 224:         clcd_putch('*', (0x80
      +                           + 0));
  4678     071D  3080               	movlw	128
  4679     071E  00B6               	movwf	clcd_putch@addr
  4680     071F  302A               	movlw	42
  4681     0720  160A  158A  27B0  120A  118A  	fcall	_clcd_putch
  4682     0725                     l4783:
  4683                           
  4684                           ;car_black_box_def.c: 225:         clcd_print(menu[menu_pos], (0x80 + 2));
  4685     0725  1283               	bcf	3,5	;RP0=0, select bank0
  4686     0726  1303               	bcf	3,6	;RP1=0, select bank0
  4687     0727  0862               	movf	login_menu@menu_pos,w
  4688     0728  00B8               	movwf	??_login_menu
  4689     0729  0738               	addwf	??_login_menu,w
  4690     072A  3EE3               	addlw	(low (_menu| 0))& (0+255)
  4691     072B  0084               	movwf	4
  4692     072C  1383               	bcf	3,7	;select IRP bank1
  4693     072D  0800               	movf	0,w
  4694     072E  00A0               	movwf	clcd_print@str
  4695     072F  0A84               	incf	4,f
  4696     0730  0800               	movf	0,w
  4697     0731  0384               	decf	4,f
  4698     0732  00A1               	movwf	clcd_print@str+1
  4699     0733  3082               	movlw	130
  4700     0734  00A2               	movwf	clcd_print@addr
  4701     0735  160A  118A  23B8  120A  118A  	fcall	_clcd_print
  4702     073A                     l4785:
  4703                           
  4704                           ;car_black_box_def.c: 226:         clcd_print(menu[menu_pos + 1], (0xC0 + 2));
  4705     073A  1283               	bcf	3,5	;RP0=0, select bank0
  4706     073B  1303               	bcf	3,6	;RP1=0, select bank0
  4707     073C  0862               	movf	login_menu@menu_pos,w
  4708     073D  00B8               	movwf	??_login_menu
  4709     073E  0738               	addwf	??_login_menu,w
  4710     073F  3EE5               	addlw	(low ((_menu| 0+2)))& (0+255)
  4711     0740  0084               	movwf	4
  4712     0741  1383               	bcf	3,7	;select IRP bank1
  4713     0742  0800               	movf	0,w
  4714     0743  00A0               	movwf	clcd_print@str
  4715     0744  0A84               	incf	4,f
  4716     0745  0800               	movf	0,w
  4717     0746  0384               	decf	4,f
  4718     0747  00A1               	movwf	clcd_print@str+1
  4719     0748  30C2               	movlw	194
  4720     0749  00A2               	movwf	clcd_print@addr
  4721     074A  160A  118A  23B8  120A  118A  	fcall	_clcd_print
  4722                           
  4723                           ;car_black_box_def.c: 227:     }
  4724     074F  2F88               	goto	l4795
  4725     0750                     l4787:
  4726     0750  3004               	movlw	4
  4727     0751  0662               	xorwf	login_menu@menu_pos,w
  4728     0752  1D03               	btfss	3,2
  4729     0753  2F55               	goto	u4701
  4730     0754  2F56               	goto	u4700
  4731     0755                     u4701:
  4732     0755  2F88               	goto	l4795
  4733     0756                     u4700:
  4734     0756                     l4789:
  4735                           
  4736                           ;car_black_box_def.c: 229:     {;car_black_box_def.c: 230:         clcd_putch('*', (0xC0
      +                           + 0));
  4737     0756  30C0               	movlw	192
  4738     0757  00B6               	movwf	clcd_putch@addr
  4739     0758  302A               	movlw	42
  4740     0759  160A  158A  27B0  120A  118A  	fcall	_clcd_putch
  4741     075E                     l4791:
  4742                           
  4743                           ;car_black_box_def.c: 231:         clcd_print(menu[menu_pos - 1], (0x80 + 2));
  4744     075E  1283               	bcf	3,5	;RP0=0, select bank0
  4745     075F  1303               	bcf	3,6	;RP1=0, select bank0
  4746     0760  0862               	movf	login_menu@menu_pos,w
  4747     0761  00B8               	movwf	??_login_menu
  4748     0762  0738               	addwf	??_login_menu,w
  4749     0763  3EE1               	addlw	(low ((_menu| 0+254)))& (0+255)
  4750     0764  0084               	movwf	4
  4751     0765  1383               	bcf	3,7	;select IRP bank1
  4752     0766  0800               	movf	0,w
  4753     0767  00A0               	movwf	clcd_print@str
  4754     0768  0A84               	incf	4,f
  4755     0769  0800               	movf	0,w
  4756     076A  0384               	decf	4,f
  4757     076B  00A1               	movwf	clcd_print@str+1
  4758     076C  3082               	movlw	130
  4759     076D  00A2               	movwf	clcd_print@addr
  4760     076E  160A  118A  23B8  120A  118A  	fcall	_clcd_print
  4761     0773                     l4793:
  4762                           
  4763                           ;car_black_box_def.c: 232:         clcd_print(menu[menu_pos], (0xC0 + 2));
  4764     0773  1283               	bcf	3,5	;RP0=0, select bank0
  4765     0774  1303               	bcf	3,6	;RP1=0, select bank0
  4766     0775  0862               	movf	login_menu@menu_pos,w
  4767     0776  00B8               	movwf	??_login_menu
  4768     0777  0738               	addwf	??_login_menu,w
  4769     0778  3EE3               	addlw	(low (_menu| 0))& (0+255)
  4770     0779  0084               	movwf	4
  4771     077A  1383               	bcf	3,7	;select IRP bank1
  4772     077B  0800               	movf	0,w
  4773     077C  00A0               	movwf	clcd_print@str
  4774     077D  0A84               	incf	4,f
  4775     077E  0800               	movf	0,w
  4776     077F  0384               	decf	4,f
  4777     0780  00A1               	movwf	clcd_print@str+1
  4778     0781  30C2               	movlw	194
  4779     0782  00A2               	movwf	clcd_print@addr
  4780     0783  160A  118A  23B8  120A  118A  	fcall	_clcd_print
  4781     0788                     l4795:
  4782                           
  4783                           ;car_black_box_def.c: 235:     return menu_pos;
  4784     0788  1283               	bcf	3,5	;RP0=0, select bank0
  4785     0789  1303               	bcf	3,6	;RP1=0, select bank0
  4786     078A  0862               	movf	login_menu@menu_pos,w
  4787     078B                     l412:
  4788     078B  0008               	return
  4789     078C                     __end_of_login_menu:
  4790                           
  4791                           	psect	text7
  4792     04AE                     __ptext7:	
  4793 ;; *************** function _login *****************
  4794 ;; Defined at:
  4795 ;;		line 95 in file "car_black_box_def.c"
  4796 ;; Parameters:    Size  Location     Type
  4797 ;;  reset_flag      1    wreg     unsigned char 
  4798 ;;  key             1   23[BANK0 ] unsigned char 
  4799 ;; Auto vars:     Size  Location     Type
  4800 ;;  reset_flag      1   35[BANK0 ] unsigned char 
  4801 ;;  j               2   36[BANK0 ] int 
  4802 ;;  saved_passwd    4   27[BANK0 ] unsigned char [4]
  4803 ;; Return value:  Size  Location     Type
  4804 ;;                  1    wreg      unsigned char 
  4805 ;; Registers used:
  4806 ;;		wreg, fsr0l, fsr0h, status,2, status,0, btemp+1, pclath, cstack
  4807 ;; Tracked objects:
  4808 ;;		On entry : 0/0
  4809 ;;		On exit  : 0/0
  4810 ;;		Unchanged: 0/0
  4811 ;; Data sizes:     COMMON   BANK0   BANK1   BANK3   BANK2
  4812 ;;      Params:         0       1       0       0       0
  4813 ;;      Locals:         0      11       0       0       0
  4814 ;;      Temps:          0       3       0       0       0
  4815 ;;      Totals:         0      15       0       0       0
  4816 ;;Total ram usage:       15 bytes
  4817 ;; Hardware stack levels used: 1
  4818 ;; Hardware stack levels required when called: 5
  4819 ;; This function calls:
  4820 ;;		___aldiv
  4821 ;;		___almod
  4822 ;;		_clcd_print
  4823 ;;		_clcd_putch
  4824 ;;		_clcd_write
  4825 ;;		_clear_screen
  4826 ;;		_ext_eeprom_24C02_read
  4827 ;;		_strncmp
  4828 ;; This function is called by:
  4829 ;;		_main
  4830 ;; This function uses a non-reentrant model
  4831 ;;
  4832                           
  4833     04AE                     _login:	
  4834                           ;psect for function _login
  4835                           
  4836                           
  4837                           ;incstack = 0
  4838                           ; Regs used in _login: [wreg-fsr0h+status,2+status,0+btemp+1+pclath+cstack]
  4839                           ;login@reset_flag stored from wreg
  4840     04AE  1283               	bcf	3,5	;RP0=0, select bank0
  4841     04AF  1303               	bcf	3,6	;RP1=0, select bank0
  4842     04B0  00C3               	movwf	login@reset_flag
  4843     04B1                     l4635:
  4844                           
  4845                           ;car_black_box_def.c: 95: char login(unsigned char reset_flag, unsigned char key);car_bl
      +                          ack_box_def.c: 96: {;car_black_box_def.c: 97:     char saved_passwd[4];;car_black_box_de
      +                          f.c: 98:     static char new_passwd[4], i;;car_black_box_def.c: 99:     static unsigned 
      +                          char attempt_rem;;car_black_box_def.c: 101:     if (reset_flag == 0x01)
  4846     04B1  0343               	decf	login@reset_flag,w
  4847     04B2  1D03               	btfss	3,2
  4848     04B3  2CB5               	goto	u4501
  4849     04B4  2CB6               	goto	u4500
  4850     04B5                     u4501:
  4851     04B5  2CC5               	goto	l4643
  4852     04B6                     u4500:
  4853     04B6                     l4637:
  4854                           
  4855                           ;car_black_box_def.c: 102:     {;car_black_box_def.c: 103:         i = 0;
  4856     04B6  01E4               	clrf	login@i
  4857                           
  4858                           ;car_black_box_def.c: 104:         new_passwd[0] = '\0';
  4859     04B7  1683               	bsf	3,5	;RP0=1, select bank1
  4860     04B8  1303               	bcf	3,6	;RP1=0, select bank1
  4861     04B9  01D3               	clrf	login@new_passwd^(0+128)
  4862                           
  4863                           ;car_black_box_def.c: 105:         new_passwd[1] = '\0';
  4864     04BA  01D4               	clrf	(login@new_passwd^(0+128)+1)
  4865                           
  4866                           ;car_black_box_def.c: 106:         new_passwd[2] = '\0';
  4867     04BB  01D5               	clrf	(login@new_passwd^(0+128)+2)
  4868                           
  4869                           ;car_black_box_def.c: 107:         new_passwd[3] = '\0';
  4870     04BC  01D6               	clrf	(login@new_passwd^(0+128)+3)
  4871     04BD                     l4639:
  4872                           
  4873                           ;car_black_box_def.c: 108:         attempt_rem = 3;
  4874     04BD  3003               	movlw	3
  4875     04BE  1283               	bcf	3,5	;RP0=0, select bank0
  4876     04BF  1303               	bcf	3,6	;RP1=0, select bank0
  4877     04C0  00E3               	movwf	login@attempt_rem
  4878     04C1                     l4641:
  4879                           
  4880                           ;car_black_box_def.c: 109:         return_time = 5;
  4881     04C1  3005               	movlw	5
  4882     04C2  00DF               	movwf	_return_time
  4883     04C3  3000               	movlw	0
  4884     04C4  00E0               	movwf	_return_time+1
  4885     04C5                     l4643:
  4886                           
  4887                           ;car_black_box_def.c: 112:     if (return_time == 0)
  4888     04C5  085F               	movf	_return_time,w
  4889     04C6  0460               	iorwf	_return_time+1,w
  4890     04C7  1D03               	btfss	3,2
  4891     04C8  2CCA               	goto	u4511
  4892     04C9  2CCB               	goto	u4510
  4893     04CA                     u4511:
  4894     04CA  2CCD               	goto	l4649
  4895     04CB                     u4510:
  4896     04CB                     l4645:
  4897                           
  4898                           ;car_black_box_def.c: 113:     {;car_black_box_def.c: 114:         return 0x03;
  4899     04CB  3003               	movlw	3
  4900     04CC  2EB2               	goto	l383
  4901     04CD                     l4649:
  4902                           
  4903                           ;car_black_box_def.c: 117:     if (key == 0x3F)
  4904     04CD  303F               	movlw	63
  4905     04CE  0637               	xorwf	login@key,w
  4906     04CF  1D03               	btfss	3,2
  4907     04D0  2CD2               	goto	u4521
  4908     04D1  2CD3               	goto	u4520
  4909     04D2                     u4521:
  4910     04D2  2D1C               	goto	l4679
  4911     04D3                     u4520:
  4912     04D3                     l4651:
  4913                           
  4914                           ;car_black_box_def.c: 118:     {;car_black_box_def.c: 120:         if (pre_key == 0x37 &
      +                          & i < 4)
  4915     04D3  3037               	movlw	55
  4916     04D4  0669               	xorwf	_pre_key,w
  4917     04D5  1D03               	btfss	3,2
  4918     04D6  2CD8               	goto	u4531
  4919     04D7  2CD9               	goto	u4530
  4920     04D8                     u4531:
  4921     04D8  2D00               	goto	l4665
  4922     04D9                     u4530:
  4923     04D9                     l4653:
  4924     04D9  3004               	movlw	4
  4925     04DA  0264               	subwf	login@i,w
  4926     04DB  1803               	skipnc
  4927     04DC  2CDE               	goto	u4541
  4928     04DD  2CDF               	goto	u4540
  4929     04DE                     u4541:
  4930     04DE  2D00               	goto	l4665
  4931     04DF                     u4540:
  4932     04DF                     l4655:
  4933                           
  4934                           ;car_black_box_def.c: 121:         {;car_black_box_def.c: 122:             new_passwd[i]
      +                           = '1';
  4935     04DF  0864               	movf	login@i,w
  4936     04E0  3ED3               	addlw	(low (login@new_passwd| 0))& (0+255)
  4937     04E1  0084               	movwf	4
  4938     04E2  3031               	movlw	49
  4939     04E3  1383               	bcf	3,7	;select IRP bank1
  4940     04E4  0080               	movwf	0
  4941     04E5                     l4657:
  4942                           
  4943                           ;car_black_box_def.c: 123:             clcd_putch('*', (0xC0 + i + 6));
  4944     04E5  0864               	movf	login@i,w
  4945     04E6  3EC6               	addlw	198
  4946     04E7  00B6               	movwf	clcd_putch@addr
  4947     04E8  302A               	movlw	42
  4948     04E9  160A  158A  27B0  120A  118A  	fcall	_clcd_putch
  4949     04EE                     l4659:
  4950                           
  4951                           ;car_black_box_def.c: 124:             i++;
  4952     04EE  3001               	movlw	1
  4953     04EF  1283               	bcf	3,5	;RP0=0, select bank0
  4954     04F0  1303               	bcf	3,6	;RP1=0, select bank0
  4955     04F1  00B8               	movwf	??_login
  4956     04F2  0838               	movf	??_login,w
  4957     04F3  07E4               	addwf	login@i,f
  4958     04F4                     l4661:
  4959                           
  4960                           ;car_black_box_def.c: 125:             return_time = 5;
  4961     04F4  3005               	movlw	5
  4962     04F5  00DF               	movwf	_return_time
  4963     04F6  3000               	movlw	0
  4964     04F7  00E0               	movwf	_return_time+1
  4965     04F8                     l4663:
  4966                           
  4967                           ;car_black_box_def.c: 126:             pre_key = press = 0;
  4968     04F8  01DD               	clrf	_press
  4969     04F9  01DE               	clrf	_press+1
  4970     04FA  1003               	clrc
  4971     04FB  3000               	movlw	0
  4972     04FC  1803               	btfsc	3,0
  4973     04FD  3001               	movlw	1
  4974     04FE  00E9               	movwf	_pre_key
  4975                           
  4976                           ;car_black_box_def.c: 127:         }
  4977     04FF  2D1C               	goto	l4679
  4978     0500                     l4665:
  4979     0500  302F               	movlw	47
  4980     0501  0669               	xorwf	_pre_key,w
  4981     0502  1D03               	btfss	3,2
  4982     0503  2D05               	goto	u4551
  4983     0504  2D06               	goto	u4550
  4984     0505                     u4551:
  4985     0505  2D1C               	goto	l4679
  4986     0506                     u4550:
  4987     0506                     l4667:
  4988     0506  3004               	movlw	4
  4989     0507  0264               	subwf	login@i,w
  4990     0508  1803               	skipnc
  4991     0509  2D0B               	goto	u4561
  4992     050A  2D0C               	goto	u4560
  4993     050B                     u4561:
  4994     050B  2D1C               	goto	l4679
  4995     050C                     u4560:
  4996     050C                     l4669:
  4997                           
  4998                           ;car_black_box_def.c: 129:         {;car_black_box_def.c: 130:             new_passwd[i]
      +                           = '0';
  4999     050C  0864               	movf	login@i,w
  5000     050D  3ED3               	addlw	(low (login@new_passwd| 0))& (0+255)
  5001     050E  0084               	movwf	4
  5002     050F  3030               	movlw	48
  5003     0510  1383               	bcf	3,7	;select IRP bank1
  5004     0511  0080               	movwf	0
  5005     0512                     l4671:
  5006                           
  5007                           ;car_black_box_def.c: 131:             clcd_putch('*', (0xC0 + i + 6));
  5008     0512  0864               	movf	login@i,w
  5009     0513  3EC6               	addlw	198
  5010     0514  00B6               	movwf	clcd_putch@addr
  5011     0515  302A               	movlw	42
  5012     0516  160A  158A  27B0  120A  118A  	fcall	_clcd_putch
  5013     051B  2CEE               	goto	l4659
  5014     051C                     l4679:
  5015                           
  5016                           ;car_black_box_def.c: 138:     if (i == 4)
  5017     051C  3004               	movlw	4
  5018     051D  0664               	xorwf	login@i,w
  5019     051E  1D03               	btfss	3,2
  5020     051F  2D21               	goto	u4571
  5021     0520  2D22               	goto	u4570
  5022     0521                     u4571:
  5023     0521  2EB2               	goto	l383
  5024     0522                     u4570:
  5025     0522                     l4681:
  5026                           
  5027                           ;car_black_box_def.c: 139:     {;car_black_box_def.c: 140:         for (int j = 0 ; j < 
      +                          4 ; j++)
  5028     0522  01C4               	clrf	login@j
  5029     0523  01C5               	clrf	login@j+1
  5030     0524                     l4687:
  5031                           
  5032                           ;car_black_box_def.c: 141:         {;car_black_box_def.c: 142:             saved_passwd[
      +                          j] = ext_eeprom_24C02_read(j);
  5033     0524  1283               	bcf	3,5	;RP0=0, select bank0
  5034     0525  1303               	bcf	3,6	;RP1=0, select bank0
  5035     0526  0844               	movf	login@j,w
  5036     0527  3E3B               	addlw	(low (login@saved_passwd| 0))& (0+255)
  5037     0528  0084               	movwf	4
  5038     0529  0844               	movf	login@j,w
  5039     052A  160A  118A  22CA  120A  118A  	fcall	_ext_eeprom_24C02_read
  5040     052F  1383               	bcf	3,7	;select IRP bank0
  5041     0530  0080               	movwf	0
  5042     0531                     l4689:
  5043                           
  5044                           ;car_black_box_def.c: 143:         }
  5045     0531  3001               	movlw	1
  5046     0532  1283               	bcf	3,5	;RP0=0, select bank0
  5047     0533  1303               	bcf	3,6	;RP1=0, select bank0
  5048     0534  07C4               	addwf	login@j,f
  5049     0535  1803               	skipnc
  5050     0536  0AC5               	incf	login@j+1,f
  5051     0537  3000               	movlw	0
  5052     0538  07C5               	addwf	login@j+1,f
  5053     0539                     l4691:
  5054     0539  0845               	movf	login@j+1,w
  5055     053A  3A80               	xorlw	128
  5056     053B  00FF               	movwf	btemp+1
  5057     053C  3080               	movlw	128
  5058     053D  027F               	subwf	btemp+1,w
  5059     053E  1D03               	skipz
  5060     053F  2D42               	goto	u4585
  5061     0540  3004               	movlw	4
  5062     0541  0244               	subwf	login@j,w
  5063     0542                     u4585:
  5064     0542  1C03               	skipc
  5065     0543  2D45               	goto	u4581
  5066     0544  2D46               	goto	u4580
  5067     0545                     u4581:
  5068     0545  2D24               	goto	l4687
  5069     0546                     u4580:
  5070     0546                     l4693:
  5071                           
  5072                           ;car_black_box_def.c: 144:         if (!strncmp(saved_passwd, new_passwd, 4))
  5073     0546  30D3               	movlw	(low (login@new_passwd| 0))& (0+255)
  5074     0547  00F3               	movwf	strncmp@s2
  5075     0548  3004               	movlw	4
  5076     0549  00F4               	movwf	strncmp@len
  5077     054A  3000               	movlw	0
  5078     054B  00F5               	movwf	strncmp@len+1
  5079     054C  303B               	movlw	(low (login@saved_passwd| 0))& (0+255)
  5080     054D  160A  118A  241E  120A  118A  	fcall	_strncmp
  5081     0552  0873               	movf	?_strncmp,w
  5082     0553  0474               	iorwf	?_strncmp+1,w
  5083     0554  1D03               	btfss	3,2
  5084     0555  2D57               	goto	u4591
  5085     0556  2D58               	goto	u4590
  5086     0557                     u4591:
  5087     0557  2D5A               	goto	l4701
  5088     0558                     u4590:
  5089     0558                     l4695:
  5090                           
  5091                           ;car_black_box_def.c: 145:         {;car_black_box_def.c: 146:             return 0x01;
  5092     0558  3001               	movlw	1
  5093     0559  2EB2               	goto	l383
  5094     055A                     l4701:
  5095                           
  5096                           ;car_black_box_def.c: 149:         {;car_black_box_def.c: 150:             clear_screen(
      +                          );
  5097     055A  160A  158A  278D  120A  118A  	fcall	_clear_screen
  5098     055F                     l4703:
  5099                           
  5100                           ;car_black_box_def.c: 151:             attempt_rem--;
  5101     055F  3001               	movlw	1
  5102     0560  1283               	bcf	3,5	;RP0=0, select bank0
  5103     0561  1303               	bcf	3,6	;RP1=0, select bank0
  5104     0562  02E3               	subwf	login@attempt_rem,f
  5105     0563                     l4705:
  5106                           
  5107                           ;car_black_box_def.c: 152:             if (attempt_rem == 0)
  5108     0563  0863               	movf	login@attempt_rem,w
  5109     0564  1D03               	btfss	3,2
  5110     0565  2D67               	goto	u4601
  5111     0566  2D68               	goto	u4600
  5112     0567                     u4601:
  5113     0567  2E47               	goto	l4723
  5114     0568                     u4600:
  5115     0568                     l4707:
  5116                           
  5117                           ;car_black_box_def.c: 153:             {;car_black_box_def.c: 154:                 clear
      +                          _screen();
  5118     0568  160A  158A  278D  120A  118A  	fcall	_clear_screen
  5119     056D                     l4709:
  5120                           
  5121                           ;car_black_box_def.c: 155:                 clcd_print ("You are blocked", (0x80 + 0));
  5122     056D  30ED               	movlw	low (STR_19| (0+32768))
  5123     056E  1283               	bcf	3,5	;RP0=0, select bank0
  5124     056F  1303               	bcf	3,6	;RP1=0, select bank0
  5125     0570  00A0               	movwf	clcd_print@str
  5126     0571  3090               	movlw	high (STR_19| (0+32768))
  5127     0572  00A1               	movwf	clcd_print@str+1
  5128     0573  3080               	movlw	128
  5129     0574  00A2               	movwf	clcd_print@addr
  5130     0575  160A  118A  23B8  120A  118A  	fcall	_clcd_print
  5131     057A                     l4711:
  5132                           
  5133                           ;car_black_box_def.c: 156:                 clcd_print ("for 900 sec..", (0xC0 + 0));
  5134     057A  300C               	movlw	low (STR_20| (0+32768))
  5135     057B  1283               	bcf	3,5	;RP0=0, select bank0
  5136     057C  1303               	bcf	3,6	;RP1=0, select bank0
  5137     057D  00A0               	movwf	clcd_print@str
  5138     057E  3091               	movlw	high (STR_20| (0+32768))
  5139     057F  00A1               	movwf	clcd_print@str+1
  5140     0580  30C0               	movlw	192
  5141     0581  00A2               	movwf	clcd_print@addr
  5142     0582  160A  118A  23B8  120A  118A  	fcall	_clcd_print
  5143                           
  5144                           ;car_black_box_def.c: 157:                 clcd_write(0x0C, 0);
  5145     0587  01F3               	clrf	clcd_write@mode
  5146     0588  300C               	movlw	12
  5147     0589  160A  118A  21C2  120A  118A  	fcall	_clcd_write
  5148     058E                     l4713:
  5149                           
  5150                           ;car_black_box_def.c: 158:                 _delay((unsigned long)((100)*(20000000/400000
      +                          0.0)));
  5151     058E  30A5               	movlw	165
  5152     058F  1283               	bcf	3,5	;RP0=0, select bank0
  5153     0590  1303               	bcf	3,6	;RP1=0, select bank0
  5154     0591  00B8               	movwf	??_login
  5155     0592                     u6207:
  5156     0592  0BB8               	decfsz	??_login,f
  5157     0593  2D92               	goto	u6207
  5158     0594  2D95               	nop2
  5159     0595                     l4715:
  5160                           
  5161                           ;car_black_box_def.c: 159:                 sec = 900;
  5162     0595  3000               	movlw	0
  5163     0596  1283               	bcf	3,5	;RP0=0, select bank0
  5164     0597  1303               	bcf	3,6	;RP1=0, select bank0
  5165     0598  00D0               	movwf	_sec+3
  5166     0599  3000               	movlw	0
  5167     059A  00CF               	movwf	_sec+2
  5168     059B  3003               	movlw	3
  5169     059C  00CE               	movwf	_sec+1
  5170     059D  3084               	movlw	132
  5171     059E  00CD               	movwf	_sec
  5172                           
  5173                           ;car_black_box_def.c: 160:                 while(sec)
  5174     059F  2E3A               	goto	l4719
  5175     05A0                     l4717:
  5176                           
  5177                           ;car_black_box_def.c: 161:                 {;car_black_box_def.c: 162:                  
      +                             clcd_putch(sec / 100 + '0', (0xC0 + 13));
  5178     05A0  30CD               	movlw	205
  5179     05A1  00B6               	movwf	clcd_putch@addr
  5180     05A2  3000               	movlw	0
  5181     05A3  00AB               	movwf	___aldiv@divisor+3
  5182     05A4  3000               	movlw	0
  5183     05A5  00AA               	movwf	___aldiv@divisor+2
  5184     05A6  3000               	movlw	0
  5185     05A7  00A9               	movwf	___aldiv@divisor+1
  5186     05A8  3064               	movlw	100
  5187     05A9  00A8               	movwf	___aldiv@divisor
  5188     05AA  0850               	movf	_sec+3,w
  5189     05AB  00AF               	movwf	___aldiv@dividend+3
  5190     05AC  084F               	movf	_sec+2,w
  5191     05AD  00AE               	movwf	___aldiv@dividend+2
  5192     05AE  084E               	movf	_sec+1,w
  5193     05AF  00AD               	movwf	___aldiv@dividend+1
  5194     05B0  084D               	movf	_sec,w
  5195     05B1  00AC               	movwf	___aldiv@dividend
  5196     05B2  120A  158A  22A9  120A  118A  	fcall	___aldiv
  5197     05B7  1283               	bcf	3,5	;RP0=0, select bank0
  5198     05B8  1303               	bcf	3,6	;RP1=0, select bank0
  5199     05B9  0828               	movf	?___aldiv,w
  5200     05BA  3E30               	addlw	48
  5201     05BB  160A  158A  27B0  120A  118A  	fcall	_clcd_putch
  5202                           
  5203                           ;car_black_box_def.c: 163:                     clcd_putch(sec % 100 / 10 + '0', (0xC0 + 
      +                          14));
  5204     05C0  30CE               	movlw	206
  5205     05C1  1283               	bcf	3,5	;RP0=0, select bank0
  5206     05C2  1303               	bcf	3,6	;RP1=0, select bank0
  5207     05C3  00B6               	movwf	clcd_putch@addr
  5208     05C4  3000               	movlw	0
  5209     05C5  00AB               	movwf	___aldiv@divisor+3
  5210     05C6  3000               	movlw	0
  5211     05C7  00AA               	movwf	___aldiv@divisor+2
  5212     05C8  3000               	movlw	0
  5213     05C9  00A9               	movwf	___aldiv@divisor+1
  5214     05CA  300A               	movlw	10
  5215     05CB  00A8               	movwf	___aldiv@divisor
  5216     05CC  0850               	movf	_sec+3,w
  5217     05CD  00A7               	movwf	___almod@dividend+3
  5218     05CE  084F               	movf	_sec+2,w
  5219     05CF  00A6               	movwf	___almod@dividend+2
  5220     05D0  084E               	movf	_sec+1,w
  5221     05D1  00A5               	movwf	___almod@dividend+1
  5222     05D2  084D               	movf	_sec,w
  5223     05D3  00A4               	movwf	___almod@dividend
  5224     05D4  3000               	movlw	0
  5225     05D5  00A3               	movwf	___almod@divisor+3
  5226     05D6  3000               	movlw	0
  5227     05D7  00A2               	movwf	___almod@divisor+2
  5228     05D8  3000               	movlw	0
  5229     05D9  00A1               	movwf	___almod@divisor+1
  5230     05DA  3064               	movlw	100
  5231     05DB  00A0               	movwf	___almod@divisor
  5232     05DC  120A  158A  2189  120A  118A  	fcall	___almod
  5233     05E1  1283               	bcf	3,5	;RP0=0, select bank0
  5234     05E2  1303               	bcf	3,6	;RP1=0, select bank0
  5235     05E3  0823               	movf	?___almod+3,w
  5236     05E4  00AF               	movwf	___aldiv@dividend+3
  5237     05E5  0822               	movf	?___almod+2,w
  5238     05E6  00AE               	movwf	___aldiv@dividend+2
  5239     05E7  0821               	movf	?___almod+1,w
  5240     05E8  00AD               	movwf	___aldiv@dividend+1
  5241     05E9  0820               	movf	?___almod,w
  5242     05EA  00AC               	movwf	___aldiv@dividend
  5243     05EB  120A  158A  22A9  120A  118A  	fcall	___aldiv
  5244     05F0  1283               	bcf	3,5	;RP0=0, select bank0
  5245     05F1  1303               	bcf	3,6	;RP1=0, select bank0
  5246     05F2  0828               	movf	?___aldiv,w
  5247     05F3  3E30               	addlw	48
  5248     05F4  160A  158A  27B0  120A  118A  	fcall	_clcd_putch
  5249                           
  5250                           ;car_black_box_def.c: 164:                     clcd_putch(sec % 100 % 10 + '0', (0xC0 + 
      +                          15));
  5251     05F9  1283               	bcf	3,5	;RP0=0, select bank0
  5252     05FA  1303               	bcf	3,6	;RP1=0, select bank0
  5253     05FB  0850               	movf	_sec+3,w
  5254     05FC  00A7               	movwf	___almod@dividend+3
  5255     05FD  084F               	movf	_sec+2,w
  5256     05FE  00A6               	movwf	___almod@dividend+2
  5257     05FF  084E               	movf	_sec+1,w
  5258     0600  00A5               	movwf	___almod@dividend+1
  5259     0601  084D               	movf	_sec,w
  5260     0602  00A4               	movwf	___almod@dividend
  5261     0603  3000               	movlw	0
  5262     0604  00A3               	movwf	___almod@divisor+3
  5263     0605  3000               	movlw	0
  5264     0606  00A2               	movwf	___almod@divisor+2
  5265     0607  3000               	movlw	0
  5266     0608  00A1               	movwf	___almod@divisor+1
  5267     0609  3064               	movlw	100
  5268     060A  00A0               	movwf	___almod@divisor
  5269     060B  120A  158A  2189  120A  118A  	fcall	___almod
  5270     0610  1283               	bcf	3,5	;RP0=0, select bank0
  5271     0611  1303               	bcf	3,6	;RP1=0, select bank0
  5272     0612  0823               	movf	?___almod+3,w
  5273     0613  00C2               	movwf	_login$1140+3
  5274     0614  0822               	movf	?___almod+2,w
  5275     0615  00C1               	movwf	_login$1140+2
  5276     0616  0821               	movf	?___almod+1,w
  5277     0617  00C0               	movwf	_login$1140+1
  5278     0618  0820               	movf	?___almod,w
  5279     0619  00BF               	movwf	_login$1140
  5280                           
  5281                           ;car_black_box_def.c: 164:                     clcd_putch(sec % 100 % 10 + '0', (0xC0 + 
      +                          15));
  5282     061A  30CF               	movlw	207
  5283     061B  00B6               	movwf	clcd_putch@addr
  5284     061C  3000               	movlw	0
  5285     061D  00A3               	movwf	___almod@divisor+3
  5286     061E  3000               	movlw	0
  5287     061F  00A2               	movwf	___almod@divisor+2
  5288     0620  3000               	movlw	0
  5289     0621  00A1               	movwf	___almod@divisor+1
  5290     0622  300A               	movlw	10
  5291     0623  00A0               	movwf	___almod@divisor
  5292     0624  0842               	movf	_login$1140+3,w
  5293     0625  00A7               	movwf	___almod@dividend+3
  5294     0626  0841               	movf	_login$1140+2,w
  5295     0627  00A6               	movwf	___almod@dividend+2
  5296     0628  0840               	movf	_login$1140+1,w
  5297     0629  00A5               	movwf	___almod@dividend+1
  5298     062A  083F               	movf	_login$1140,w
  5299     062B  00A4               	movwf	___almod@dividend
  5300     062C  120A  158A  2189  120A  118A  	fcall	___almod
  5301     0631  1283               	bcf	3,5	;RP0=0, select bank0
  5302     0632  1303               	bcf	3,6	;RP1=0, select bank0
  5303     0633  0820               	movf	?___almod,w
  5304     0634  3E30               	addlw	48
  5305     0635  160A  158A  27B0  120A  118A  	fcall	_clcd_putch
  5306     063A                     l4719:
  5307                           
  5308                           ;car_black_box_def.c: 160:                 while(sec)
  5309     063A  1283               	bcf	3,5	;RP0=0, select bank0
  5310     063B  1303               	bcf	3,6	;RP1=0, select bank0
  5311     063C  0850               	movf	_sec+3,w
  5312     063D  044F               	iorwf	_sec+2,w
  5313     063E  044E               	iorwf	_sec+1,w
  5314     063F  044D               	iorwf	_sec,w
  5315     0640  1D03               	skipz
  5316     0641  2E43               	goto	u4611
  5317     0642  2E44               	goto	u4610
  5318     0643                     u4611:
  5319     0643  2DA0               	goto	l4717
  5320     0644                     u4610:
  5321     0644                     l4721:
  5322                           
  5323                           ;car_black_box_def.c: 166:                 attempt_rem = 3;
  5324     0644  3003               	movlw	3
  5325     0645  00E3               	movwf	login@attempt_rem
  5326                           
  5327                           ;car_black_box_def.c: 167:             }
  5328     0646  2E7F               	goto	l4731
  5329     0647                     l4723:
  5330                           
  5331                           ;car_black_box_def.c: 169:             {;car_black_box_def.c: 170:                 clear
      +                          _screen();
  5332     0647  160A  158A  278D  120A  118A  	fcall	_clear_screen
  5333     064C                     l4725:
  5334                           
  5335                           ;car_black_box_def.c: 171:                 clcd_print(" WRONG PASSWORD", (0x80 + 0));
  5336     064C  30DD               	movlw	low (STR_21| (0+32768))
  5337     064D  1283               	bcf	3,5	;RP0=0, select bank0
  5338     064E  1303               	bcf	3,6	;RP1=0, select bank0
  5339     064F  00A0               	movwf	clcd_print@str
  5340     0650  3090               	movlw	high (STR_21| (0+32768))
  5341     0651  00A1               	movwf	clcd_print@str+1
  5342     0652  3080               	movlw	128
  5343     0653  00A2               	movwf	clcd_print@addr
  5344     0654  160A  118A  23B8  120A  118A  	fcall	_clcd_print
  5345     0659                     l4727:
  5346                           
  5347                           ;car_black_box_def.c: 172:                 clcd_putch(attempt_rem + '0', (0xC0 + 0));
  5348     0659  30C0               	movlw	192
  5349     065A  1283               	bcf	3,5	;RP0=0, select bank0
  5350     065B  1303               	bcf	3,6	;RP1=0, select bank0
  5351     065C  00B6               	movwf	clcd_putch@addr
  5352     065D  0863               	movf	login@attempt_rem,w
  5353     065E  3E30               	addlw	48
  5354     065F  160A  158A  27B0  120A  118A  	fcall	_clcd_putch
  5355                           
  5356                           ;car_black_box_def.c: 173:                 clcd_print("attempt remain", (0xC0 + 2));
  5357     0664  30FD               	movlw	low (STR_22| (0+32768))
  5358     0665  1283               	bcf	3,5	;RP0=0, select bank0
  5359     0666  1303               	bcf	3,6	;RP1=0, select bank0
  5360     0667  00A0               	movwf	clcd_print@str
  5361     0668  3090               	movlw	high (STR_22| (0+32768))
  5362     0669  00A1               	movwf	clcd_print@str+1
  5363     066A  30C2               	movlw	194
  5364     066B  00A2               	movwf	clcd_print@addr
  5365     066C  160A  118A  23B8  120A  118A  	fcall	_clcd_print
  5366     0671                     l4729:
  5367                           
  5368                           ;car_black_box_def.c: 174:                 _delay((unsigned long)((3000)*(20000000/4000.
      +                          0)));
  5369     0671  304D               	movlw	77
  5370     0672  1283               	bcf	3,5	;RP0=0, select bank0
  5371     0673  1303               	bcf	3,6	;RP1=0, select bank0
  5372     0674  00BA               	movwf	??_login+2
  5373     0675  3019               	movlw	25
  5374     0676  00B9               	movwf	??_login+1
  5375     0677  304F               	movlw	79
  5376     0678  00B8               	movwf	??_login
  5377     0679                     u6217:
  5378     0679  0BB8               	decfsz	??_login,f
  5379     067A  2E79               	goto	u6217
  5380     067B  0BB9               	decfsz	??_login+1,f
  5381     067C  2E79               	goto	u6217
  5382     067D  0BBA               	decfsz	??_login+2,f
  5383     067E  2E79               	goto	u6217
  5384     067F                     l4731:
  5385                           
  5386                           ;car_black_box_def.c: 176:             return_time = 5;
  5387     067F  3005               	movlw	5
  5388     0680  1283               	bcf	3,5	;RP0=0, select bank0
  5389     0681  1303               	bcf	3,6	;RP1=0, select bank0
  5390     0682  00DF               	movwf	_return_time
  5391     0683  3000               	movlw	0
  5392     0684  00E0               	movwf	_return_time+1
  5393     0685                     l4733:
  5394                           
  5395                           ;car_black_box_def.c: 177:             clear_screen();
  5396     0685  160A  158A  278D  120A  118A  	fcall	_clear_screen
  5397     068A                     l4735:
  5398                           
  5399                           ;car_black_box_def.c: 178:             clcd_print(" ENTER PASSWORD ", (0x80 + 0));
  5400     068A  30CC               	movlw	low (STR_12| (0+32768))
  5401     068B  1283               	bcf	3,5	;RP0=0, select bank0
  5402     068C  1303               	bcf	3,6	;RP1=0, select bank0
  5403     068D  00A0               	movwf	clcd_print@str
  5404     068E  3090               	movlw	high (STR_12| (0+32768))
  5405     068F  00A1               	movwf	clcd_print@str+1
  5406     0690  3080               	movlw	128
  5407     0691  00A2               	movwf	clcd_print@addr
  5408     0692  160A  118A  23B8  120A  118A  	fcall	_clcd_print
  5409                           
  5410                           ;car_black_box_def.c: 179:             clcd_putch(' ', (0xC0 + 5));
  5411     0697  30C5               	movlw	197
  5412     0698  1283               	bcf	3,5	;RP0=0, select bank0
  5413     0699  1303               	bcf	3,6	;RP1=0, select bank0
  5414     069A  00B6               	movwf	clcd_putch@addr
  5415     069B  3020               	movlw	32
  5416     069C  160A  158A  27B0  120A  118A  	fcall	_clcd_putch
  5417                           
  5418                           ;car_black_box_def.c: 180:             clcd_write(0x0F, 0);
  5419     06A1  01F3               	clrf	clcd_write@mode
  5420     06A2  300F               	movlw	15
  5421     06A3  160A  118A  21C2  120A  118A  	fcall	_clcd_write
  5422     06A8                     l4737:
  5423                           
  5424                           ;car_black_box_def.c: 181:             _delay((unsigned long)((100)*(20000000/4000000.0)
      +                          ));
  5425     06A8  30A5               	movlw	165
  5426     06A9  1283               	bcf	3,5	;RP0=0, select bank0
  5427     06AA  1303               	bcf	3,6	;RP1=0, select bank0
  5428     06AB  00B8               	movwf	??_login
  5429     06AC                     u6227:
  5430     06AC  0BB8               	decfsz	??_login,f
  5431     06AD  2EAC               	goto	u6227
  5432     06AE  2EAF               	nop2
  5433     06AF                     l4739:
  5434                           
  5435                           ;car_black_box_def.c: 182:             i = 0;
  5436     06AF  1283               	bcf	3,5	;RP0=0, select bank0
  5437     06B0  1303               	bcf	3,6	;RP1=0, select bank0
  5438     06B1  01E4               	clrf	login@i
  5439     06B2                     l383:
  5440     06B2  0008               	return
  5441     06B3                     __end_of_login:
  5442                           
  5443                           	psect	text8
  5444     0989                     __ptext8:	
  5445 ;; *************** function ___almod *****************
  5446 ;; Defined at:
  5447 ;;		line 5 in file "C:\Program Files\Microchip\xc8\v2.40\pic\sources\c90\common\almod.c"
  5448 ;; Parameters:    Size  Location     Type
  5449 ;;  divisor         4    0[BANK0 ] long 
  5450 ;;  dividend        4    4[BANK0 ] long 
  5451 ;; Auto vars:     Size  Location     Type
  5452 ;;  sign            1    5[COMMON] unsigned char 
  5453 ;;  counter         1    4[COMMON] unsigned char 
  5454 ;; Return value:  Size  Location     Type
  5455 ;;                  4    0[BANK0 ] long 
  5456 ;; Registers used:
  5457 ;;		wreg, status,2, status,0
  5458 ;; Tracked objects:
  5459 ;;		On entry : 0/0
  5460 ;;		On exit  : 0/0
  5461 ;;		Unchanged: 0/0
  5462 ;; Data sizes:     COMMON   BANK0   BANK1   BANK3   BANK2
  5463 ;;      Params:         0       8       0       0       0
  5464 ;;      Locals:         2       0       0       0       0
  5465 ;;      Temps:          1       0       0       0       0
  5466 ;;      Totals:         3       8       0       0       0
  5467 ;;Total ram usage:       11 bytes
  5468 ;; Hardware stack levels used: 1
  5469 ;; Hardware stack levels required when called: 1
  5470 ;; This function calls:
  5471 ;;		Nothing
  5472 ;; This function is called by:
  5473 ;;		_login
  5474 ;; This function uses a non-reentrant model
  5475 ;;
  5476                           
  5477     0989                     ___almod:	
  5478                           ;psect for function ___almod
  5479                           
  5480     0989                     l4439:	
  5481                           ;incstack = 0
  5482                           ; Regs used in ___almod: [wreg+status,2+status,0]
  5483                           
  5484     0989  01F5               	clrf	___almod@sign
  5485     098A                     l4441:
  5486     098A  1283               	bcf	3,5	;RP0=0, select bank0
  5487     098B  1303               	bcf	3,6	;RP1=0, select bank0
  5488     098C  1FA7               	btfss	___almod@dividend+3,7
  5489     098D  298F               	goto	u4151
  5490     098E  2990               	goto	u4150
  5491     098F                     u4151:
  5492     098F  299D               	goto	l774
  5493     0990                     u4150:
  5494     0990                     l4443:
  5495     0990  09A4               	comf	___almod@dividend,f
  5496     0991  09A5               	comf	___almod@dividend+1,f
  5497     0992  09A6               	comf	___almod@dividend+2,f
  5498     0993  09A7               	comf	___almod@dividend+3,f
  5499     0994  0AA4               	incf	___almod@dividend,f
  5500     0995  1903               	skipnz
  5501     0996  0AA5               	incf	___almod@dividend+1,f
  5502     0997  1903               	skipnz
  5503     0998  0AA6               	incf	___almod@dividend+2,f
  5504     0999  1903               	skipnz
  5505     099A  0AA7               	incf	___almod@dividend+3,f
  5506     099B  01F5               	clrf	___almod@sign
  5507     099C  0AF5               	incf	___almod@sign,f
  5508     099D                     l774:
  5509     099D  1FA3               	btfss	___almod@divisor+3,7
  5510     099E  29A0               	goto	u4161
  5511     099F  29A1               	goto	u4160
  5512     09A0                     u4161:
  5513     09A0  29AC               	goto	l4447
  5514     09A1                     u4160:
  5515     09A1                     l4445:
  5516     09A1  09A0               	comf	___almod@divisor,f
  5517     09A2  09A1               	comf	___almod@divisor+1,f
  5518     09A3  09A2               	comf	___almod@divisor+2,f
  5519     09A4  09A3               	comf	___almod@divisor+3,f
  5520     09A5  0AA0               	incf	___almod@divisor,f
  5521     09A6  1903               	skipnz
  5522     09A7  0AA1               	incf	___almod@divisor+1,f
  5523     09A8  1903               	skipnz
  5524     09A9  0AA2               	incf	___almod@divisor+2,f
  5525     09AA  1903               	skipnz
  5526     09AB  0AA3               	incf	___almod@divisor+3,f
  5527     09AC                     l4447:
  5528     09AC  0823               	movf	___almod@divisor+3,w
  5529     09AD  0422               	iorwf	___almod@divisor+2,w
  5530     09AE  0421               	iorwf	___almod@divisor+1,w
  5531     09AF  0420               	iorwf	___almod@divisor,w
  5532     09B0  1903               	skipnz
  5533     09B1  29B3               	goto	u4171
  5534     09B2  29B4               	goto	u4170
  5535     09B3                     u4171:
  5536     09B3  29F7               	goto	l4463
  5537     09B4                     u4170:
  5538     09B4                     l4449:
  5539     09B4  01F4               	clrf	___almod@counter
  5540     09B5  0AF4               	incf	___almod@counter,f
  5541     09B6  29C4               	goto	l4453
  5542     09B7                     l4451:
  5543     09B7  3001               	movlw	1
  5544     09B8  00F3               	movwf	??___almod
  5545     09B9                     u4185:
  5546     09B9  1003               	clrc
  5547     09BA  0DA0               	rlf	___almod@divisor,f
  5548     09BB  0DA1               	rlf	___almod@divisor+1,f
  5549     09BC  0DA2               	rlf	___almod@divisor+2,f
  5550     09BD  0DA3               	rlf	___almod@divisor+3,f
  5551     09BE  0BF3               	decfsz	??___almod,f
  5552     09BF  29B9               	goto	u4185
  5553     09C0  3001               	movlw	1
  5554     09C1  00F3               	movwf	??___almod
  5555     09C2  0873               	movf	??___almod,w
  5556     09C3  07F4               	addwf	___almod@counter,f
  5557     09C4                     l4453:
  5558     09C4  1FA3               	btfss	___almod@divisor+3,7
  5559     09C5  29C7               	goto	u4191
  5560     09C6  29C8               	goto	u4190
  5561     09C7                     u4191:
  5562     09C7  29B7               	goto	l4451
  5563     09C8                     u4190:
  5564     09C8                     l4455:
  5565     09C8  0823               	movf	___almod@divisor+3,w
  5566     09C9  0227               	subwf	___almod@dividend+3,w
  5567     09CA  1D03               	skipz
  5568     09CB  29D6               	goto	u4205
  5569     09CC  0822               	movf	___almod@divisor+2,w
  5570     09CD  0226               	subwf	___almod@dividend+2,w
  5571     09CE  1D03               	skipz
  5572     09CF  29D6               	goto	u4205
  5573     09D0  0821               	movf	___almod@divisor+1,w
  5574     09D1  0225               	subwf	___almod@dividend+1,w
  5575     09D2  1D03               	skipz
  5576     09D3  29D6               	goto	u4205
  5577     09D4  0820               	movf	___almod@divisor,w
  5578     09D5  0224               	subwf	___almod@dividend,w
  5579     09D6                     u4205:
  5580     09D6  1C03               	skipc
  5581     09D7  29D9               	goto	u4201
  5582     09D8  29DA               	goto	u4200
  5583     09D9                     u4201:
  5584     09D9  29E8               	goto	l4459
  5585     09DA                     u4200:
  5586     09DA                     l4457:
  5587     09DA  0820               	movf	___almod@divisor,w
  5588     09DB  02A4               	subwf	___almod@dividend,f
  5589     09DC  0821               	movf	___almod@divisor+1,w
  5590     09DD  1C03               	skipc
  5591     09DE  0F21               	incfsz	___almod@divisor+1,w
  5592     09DF  02A5               	subwf	___almod@dividend+1,f
  5593     09E0  0822               	movf	___almod@divisor+2,w
  5594     09E1  1C03               	skipc
  5595     09E2  0F22               	incfsz	___almod@divisor+2,w
  5596     09E3  02A6               	subwf	___almod@dividend+2,f
  5597     09E4  0823               	movf	___almod@divisor+3,w
  5598     09E5  1C03               	skipc
  5599     09E6  0F23               	incfsz	___almod@divisor+3,w
  5600     09E7  02A7               	subwf	___almod@dividend+3,f
  5601     09E8                     l4459:
  5602     09E8  3001               	movlw	1
  5603     09E9                     u4215:
  5604     09E9  1003               	clrc
  5605     09EA  0CA3               	rrf	___almod@divisor+3,f
  5606     09EB  0CA2               	rrf	___almod@divisor+2,f
  5607     09EC  0CA1               	rrf	___almod@divisor+1,f
  5608     09ED  0CA0               	rrf	___almod@divisor,f
  5609     09EE  3EFF               	addlw	-1
  5610     09EF  1D03               	skipz
  5611     09F0  29E9               	goto	u4215
  5612     09F1                     l4461:
  5613     09F1  3001               	movlw	1
  5614     09F2  02F4               	subwf	___almod@counter,f
  5615     09F3  1D03               	btfss	3,2
  5616     09F4  29F6               	goto	u4221
  5617     09F5  29F7               	goto	u4220
  5618     09F6                     u4221:
  5619     09F6  29C8               	goto	l4455
  5620     09F7                     u4220:
  5621     09F7                     l4463:
  5622     09F7  0875               	movf	___almod@sign,w
  5623     09F8  1903               	btfsc	3,2
  5624     09F9  29FB               	goto	u4231
  5625     09FA  29FC               	goto	u4230
  5626     09FB                     u4231:
  5627     09FB  2A07               	goto	l4467
  5628     09FC                     u4230:
  5629     09FC                     l4465:
  5630     09FC  09A4               	comf	___almod@dividend,f
  5631     09FD  09A5               	comf	___almod@dividend+1,f
  5632     09FE  09A6               	comf	___almod@dividend+2,f
  5633     09FF  09A7               	comf	___almod@dividend+3,f
  5634     0A00  0AA4               	incf	___almod@dividend,f
  5635     0A01  1903               	skipnz
  5636     0A02  0AA5               	incf	___almod@dividend+1,f
  5637     0A03  1903               	skipnz
  5638     0A04  0AA6               	incf	___almod@dividend+2,f
  5639     0A05  1903               	skipnz
  5640     0A06  0AA7               	incf	___almod@dividend+3,f
  5641     0A07                     l4467:
  5642     0A07  0827               	movf	___almod@dividend+3,w
  5643     0A08  00A3               	movwf	?___almod+3
  5644     0A09  0826               	movf	___almod@dividend+2,w
  5645     0A0A  00A2               	movwf	?___almod+2
  5646     0A0B  0825               	movf	___almod@dividend+1,w
  5647     0A0C  00A1               	movwf	?___almod+1
  5648     0A0D  0824               	movf	___almod@dividend,w
  5649     0A0E  00A0               	movwf	?___almod
  5650     0A0F                     l784:
  5651     0A0F  0008               	return
  5652     0A10                     __end_of___almod:
  5653                           
  5654                           	psect	text9
  5655     0AA9                     __ptext9:	
  5656 ;; *************** function ___aldiv *****************
  5657 ;; Defined at:
  5658 ;;		line 5 in file "C:\Program Files\Microchip\xc8\v2.40\pic\sources\c90\common\aldiv.c"
  5659 ;; Parameters:    Size  Location     Type
  5660 ;;  divisor         4    8[BANK0 ] long 
  5661 ;;  dividend        4   12[BANK0 ] long 
  5662 ;; Auto vars:     Size  Location     Type
  5663 ;;  quotient        4   18[BANK0 ] long 
  5664 ;;  sign            1   17[BANK0 ] unsigned char 
  5665 ;;  counter         1   16[BANK0 ] unsigned char 
  5666 ;; Return value:  Size  Location     Type
  5667 ;;                  4    8[BANK0 ] long 
  5668 ;; Registers used:
  5669 ;;		wreg, status,2, status,0
  5670 ;; Tracked objects:
  5671 ;;		On entry : 0/0
  5672 ;;		On exit  : 0/0
  5673 ;;		Unchanged: 0/0
  5674 ;; Data sizes:     COMMON   BANK0   BANK1   BANK3   BANK2
  5675 ;;      Params:         0       8       0       0       0
  5676 ;;      Locals:         0       6       0       0       0
  5677 ;;      Temps:          1       0       0       0       0
  5678 ;;      Totals:         1      14       0       0       0
  5679 ;;Total ram usage:       15 bytes
  5680 ;; Hardware stack levels used: 1
  5681 ;; Hardware stack levels required when called: 1
  5682 ;; This function calls:
  5683 ;;		Nothing
  5684 ;; This function is called by:
  5685 ;;		_login
  5686 ;; This function uses a non-reentrant model
  5687 ;;
  5688                           
  5689     0AA9                     ___aldiv:	
  5690                           ;psect for function ___aldiv
  5691                           
  5692     0AA9                     l4399:	
  5693                           ;incstack = 0
  5694                           ; Regs used in ___aldiv: [wreg+status,2+status,0]
  5695                           
  5696     0AA9  1283               	bcf	3,5	;RP0=0, select bank0
  5697     0AAA  1303               	bcf	3,6	;RP1=0, select bank0
  5698     0AAB  01B1               	clrf	___aldiv@sign
  5699     0AAC                     l4401:
  5700     0AAC  1FAB               	btfss	___aldiv@divisor+3,7
  5701     0AAD  2AAF               	goto	u4051
  5702     0AAE  2AB0               	goto	u4050
  5703     0AAF                     u4051:
  5704     0AAF  2ABD               	goto	l761
  5705     0AB0                     u4050:
  5706     0AB0                     l4403:
  5707     0AB0  09A8               	comf	___aldiv@divisor,f
  5708     0AB1  09A9               	comf	___aldiv@divisor+1,f
  5709     0AB2  09AA               	comf	___aldiv@divisor+2,f
  5710     0AB3  09AB               	comf	___aldiv@divisor+3,f
  5711     0AB4  0AA8               	incf	___aldiv@divisor,f
  5712     0AB5  1903               	skipnz
  5713     0AB6  0AA9               	incf	___aldiv@divisor+1,f
  5714     0AB7  1903               	skipnz
  5715     0AB8  0AAA               	incf	___aldiv@divisor+2,f
  5716     0AB9  1903               	skipnz
  5717     0ABA  0AAB               	incf	___aldiv@divisor+3,f
  5718     0ABB  01B1               	clrf	___aldiv@sign
  5719     0ABC  0AB1               	incf	___aldiv@sign,f
  5720     0ABD                     l761:
  5721     0ABD  1FAF               	btfss	___aldiv@dividend+3,7
  5722     0ABE  2AC0               	goto	u4061
  5723     0ABF  2AC1               	goto	u4060
  5724     0AC0                     u4061:
  5725     0AC0  2AD0               	goto	l4409
  5726     0AC1                     u4060:
  5727     0AC1                     l4405:
  5728     0AC1  09AC               	comf	___aldiv@dividend,f
  5729     0AC2  09AD               	comf	___aldiv@dividend+1,f
  5730     0AC3  09AE               	comf	___aldiv@dividend+2,f
  5731     0AC4  09AF               	comf	___aldiv@dividend+3,f
  5732     0AC5  0AAC               	incf	___aldiv@dividend,f
  5733     0AC6  1903               	skipnz
  5734     0AC7  0AAD               	incf	___aldiv@dividend+1,f
  5735     0AC8  1903               	skipnz
  5736     0AC9  0AAE               	incf	___aldiv@dividend+2,f
  5737     0ACA  1903               	skipnz
  5738     0ACB  0AAF               	incf	___aldiv@dividend+3,f
  5739     0ACC                     l4407:
  5740     0ACC  3001               	movlw	1
  5741     0ACD  00F6               	movwf	??___aldiv
  5742     0ACE  0876               	movf	??___aldiv,w
  5743     0ACF  06B1               	xorwf	___aldiv@sign,f
  5744     0AD0                     l4409:
  5745     0AD0  3000               	movlw	0
  5746     0AD1  00B5               	movwf	___aldiv@quotient+3
  5747     0AD2  3000               	movlw	0
  5748     0AD3  00B4               	movwf	___aldiv@quotient+2
  5749     0AD4  3000               	movlw	0
  5750     0AD5  00B3               	movwf	___aldiv@quotient+1
  5751     0AD6  3000               	movlw	0
  5752     0AD7  00B2               	movwf	___aldiv@quotient
  5753     0AD8                     l4411:
  5754     0AD8  082B               	movf	___aldiv@divisor+3,w
  5755     0AD9  042A               	iorwf	___aldiv@divisor+2,w
  5756     0ADA  0429               	iorwf	___aldiv@divisor+1,w
  5757     0ADB  0428               	iorwf	___aldiv@divisor,w
  5758     0ADC  1903               	skipnz
  5759     0ADD  2ADF               	goto	u4071
  5760     0ADE  2AE0               	goto	u4070
  5761     0ADF                     u4071:
  5762     0ADF  2B2D               	goto	l4431
  5763     0AE0                     u4070:
  5764     0AE0                     l4413:
  5765     0AE0  01B0               	clrf	___aldiv@counter
  5766     0AE1  0AB0               	incf	___aldiv@counter,f
  5767     0AE2  2AF0               	goto	l4417
  5768     0AE3                     l4415:
  5769     0AE3  3001               	movlw	1
  5770     0AE4  00F6               	movwf	??___aldiv
  5771     0AE5                     u4085:
  5772     0AE5  1003               	clrc
  5773     0AE6  0DA8               	rlf	___aldiv@divisor,f
  5774     0AE7  0DA9               	rlf	___aldiv@divisor+1,f
  5775     0AE8  0DAA               	rlf	___aldiv@divisor+2,f
  5776     0AE9  0DAB               	rlf	___aldiv@divisor+3,f
  5777     0AEA  0BF6               	decfsz	??___aldiv,f
  5778     0AEB  2AE5               	goto	u4085
  5779     0AEC  3001               	movlw	1
  5780     0AED  00F6               	movwf	??___aldiv
  5781     0AEE  0876               	movf	??___aldiv,w
  5782     0AEF  07B0               	addwf	___aldiv@counter,f
  5783     0AF0                     l4417:
  5784     0AF0  1FAB               	btfss	___aldiv@divisor+3,7
  5785     0AF1  2AF3               	goto	u4091
  5786     0AF2  2AF4               	goto	u4090
  5787     0AF3                     u4091:
  5788     0AF3  2AE3               	goto	l4415
  5789     0AF4                     u4090:
  5790     0AF4                     l4419:
  5791     0AF4  3001               	movlw	1
  5792     0AF5  00F6               	movwf	??___aldiv
  5793     0AF6                     u4105:
  5794     0AF6  1003               	clrc
  5795     0AF7  0DB2               	rlf	___aldiv@quotient,f
  5796     0AF8  0DB3               	rlf	___aldiv@quotient+1,f
  5797     0AF9  0DB4               	rlf	___aldiv@quotient+2,f
  5798     0AFA  0DB5               	rlf	___aldiv@quotient+3,f
  5799     0AFB  0BF6               	decfsz	??___aldiv,f
  5800     0AFC  2AF6               	goto	u4105
  5801     0AFD                     l4421:
  5802     0AFD  082B               	movf	___aldiv@divisor+3,w
  5803     0AFE  022F               	subwf	___aldiv@dividend+3,w
  5804     0AFF  1D03               	skipz
  5805     0B00  2B0B               	goto	u4115
  5806     0B01  082A               	movf	___aldiv@divisor+2,w
  5807     0B02  022E               	subwf	___aldiv@dividend+2,w
  5808     0B03  1D03               	skipz
  5809     0B04  2B0B               	goto	u4115
  5810     0B05  0829               	movf	___aldiv@divisor+1,w
  5811     0B06  022D               	subwf	___aldiv@dividend+1,w
  5812     0B07  1D03               	skipz
  5813     0B08  2B0B               	goto	u4115
  5814     0B09  0828               	movf	___aldiv@divisor,w
  5815     0B0A  022C               	subwf	___aldiv@dividend,w
  5816     0B0B                     u4115:
  5817     0B0B  1C03               	skipc
  5818     0B0C  2B0E               	goto	u4111
  5819     0B0D  2B0F               	goto	u4110
  5820     0B0E                     u4111:
  5821     0B0E  2B1E               	goto	l4427
  5822     0B0F                     u4110:
  5823     0B0F                     l4423:
  5824     0B0F  0828               	movf	___aldiv@divisor,w
  5825     0B10  02AC               	subwf	___aldiv@dividend,f
  5826     0B11  0829               	movf	___aldiv@divisor+1,w
  5827     0B12  1C03               	skipc
  5828     0B13  0F29               	incfsz	___aldiv@divisor+1,w
  5829     0B14  02AD               	subwf	___aldiv@dividend+1,f
  5830     0B15  082A               	movf	___aldiv@divisor+2,w
  5831     0B16  1C03               	skipc
  5832     0B17  0F2A               	incfsz	___aldiv@divisor+2,w
  5833     0B18  02AE               	subwf	___aldiv@dividend+2,f
  5834     0B19  082B               	movf	___aldiv@divisor+3,w
  5835     0B1A  1C03               	skipc
  5836     0B1B  0F2B               	incfsz	___aldiv@divisor+3,w
  5837     0B1C  02AF               	subwf	___aldiv@dividend+3,f
  5838     0B1D                     l4425:
  5839     0B1D  1432               	bsf	___aldiv@quotient,0
  5840     0B1E                     l4427:
  5841     0B1E  3001               	movlw	1
  5842     0B1F                     u4125:
  5843     0B1F  1003               	clrc
  5844     0B20  0CAB               	rrf	___aldiv@divisor+3,f
  5845     0B21  0CAA               	rrf	___aldiv@divisor+2,f
  5846     0B22  0CA9               	rrf	___aldiv@divisor+1,f
  5847     0B23  0CA8               	rrf	___aldiv@divisor,f
  5848     0B24  3EFF               	addlw	-1
  5849     0B25  1D03               	skipz
  5850     0B26  2B1F               	goto	u4125
  5851     0B27                     l4429:
  5852     0B27  3001               	movlw	1
  5853     0B28  02B0               	subwf	___aldiv@counter,f
  5854     0B29  1D03               	btfss	3,2
  5855     0B2A  2B2C               	goto	u4131
  5856     0B2B  2B2D               	goto	u4130
  5857     0B2C                     u4131:
  5858     0B2C  2AF4               	goto	l4419
  5859     0B2D                     u4130:
  5860     0B2D                     l4431:
  5861     0B2D  0831               	movf	___aldiv@sign,w
  5862     0B2E  1903               	btfsc	3,2
  5863     0B2F  2B31               	goto	u4141
  5864     0B30  2B32               	goto	u4140
  5865     0B31                     u4141:
  5866     0B31  2B3D               	goto	l4435
  5867     0B32                     u4140:
  5868     0B32                     l4433:
  5869     0B32  09B2               	comf	___aldiv@quotient,f
  5870     0B33  09B3               	comf	___aldiv@quotient+1,f
  5871     0B34  09B4               	comf	___aldiv@quotient+2,f
  5872     0B35  09B5               	comf	___aldiv@quotient+3,f
  5873     0B36  0AB2               	incf	___aldiv@quotient,f
  5874     0B37  1903               	skipnz
  5875     0B38  0AB3               	incf	___aldiv@quotient+1,f
  5876     0B39  1903               	skipnz
  5877     0B3A  0AB4               	incf	___aldiv@quotient+2,f
  5878     0B3B  1903               	skipnz
  5879     0B3C  0AB5               	incf	___aldiv@quotient+3,f
  5880     0B3D                     l4435:
  5881     0B3D  0835               	movf	___aldiv@quotient+3,w
  5882     0B3E  00AB               	movwf	?___aldiv+3
  5883     0B3F  0834               	movf	___aldiv@quotient+2,w
  5884     0B40  00AA               	movwf	?___aldiv+2
  5885     0B41  0833               	movf	___aldiv@quotient+1,w
  5886     0B42  00A9               	movwf	?___aldiv+1
  5887     0B43  0832               	movf	___aldiv@quotient,w
  5888     0B44  00A8               	movwf	?___aldiv
  5889     0B45                     l771:
  5890     0B45  0008               	return
  5891     0B46                     __end_of___aldiv:
  5892                           
  5893                           	psect	text10
  5894     1682                     __ptext10:	
  5895 ;; *************** function _log_car_event *****************
  5896 ;; Defined at:
  5897 ;;		line 78 in file "car_black_box_def.c"
  5898 ;; Parameters:    Size  Location     Type
  5899 ;;  event           1    wreg     PTR unsigned char 
  5900 ;;		 -> main@event(3), 
  5901 ;;  speed           1    4[BANK0 ] unsigned char 
  5902 ;; Auto vars:     Size  Location     Type
  5903 ;;  event           1    7[BANK0 ] PTR unsigned char 
  5904 ;;		 -> main@event(3), 
  5905 ;; Return value:  Size  Location     Type
  5906 ;;                  1    wreg      void 
  5907 ;; Registers used:
  5908 ;;		wreg, fsr0l, fsr0h, status,2, status,0, btemp+1, pclath, cstack
  5909 ;; Tracked objects:
  5910 ;;		On entry : 0/0
  5911 ;;		On exit  : 0/0
  5912 ;;		Unchanged: 0/0
  5913 ;; Data sizes:     COMMON   BANK0   BANK1   BANK3   BANK2
  5914 ;;      Params:         0       1       0       0       0
  5915 ;;      Locals:         0       1       0       0       0
  5916 ;;      Temps:          0       2       0       0       0
  5917 ;;      Totals:         0       4       0       0       0
  5918 ;;Total ram usage:        4 bytes
  5919 ;; Hardware stack levels used: 1
  5920 ;; Hardware stack levels required when called: 6
  5921 ;; This function calls:
  5922 ;;		___awdiv
  5923 ;;		___awmod
  5924 ;;		_get_time
  5925 ;;		_log_event
  5926 ;;		_strncpy
  5927 ;; This function is called by:
  5928 ;;		_main
  5929 ;; This function uses a non-reentrant model
  5930 ;;
  5931                           
  5932     1682                     _log_car_event:	
  5933                           ;psect for function _log_car_event
  5934                           
  5935                           
  5936                           ;incstack = 0
  5937                           ; Regs used in _log_car_event: [wreg-fsr0h+status,2+status,0+btemp+1+pclath+cstack]
  5938                           ;log_car_event@event stored from wreg
  5939     1682  1283               	bcf	3,5	;RP0=0, select bank0
  5940     1683  1303               	bcf	3,6	;RP1=0, select bank0
  5941     1684  00A7               	movwf	log_car_event@event
  5942     1685                     l5545:
  5943                           
  5944                           ;car_black_box_def.c: 78: void log_car_event(char event[], unsigned char speed);car_blac
      +                          k_box_def.c: 79: {;car_black_box_def.c: 80:     get_time();
  5945     1685  160A  118A  252C  160A  118A  	fcall	_get_time
  5946     168A                     l5547:
  5947                           
  5948                           ;car_black_box_def.c: 81:     strncpy(log, time, 6);
  5949     168A  30C4               	movlw	(low (_time| 0))& (0+255)
  5950     168B  00F3               	movwf	strncpy@from
  5951     168C  3000               	movlw	0
  5952     168D  00F4               	movwf	strncpy@from+1
  5953     168E  3006               	movlw	6
  5954     168F  00F5               	movwf	strncpy@size
  5955     1690  3000               	movlw	0
  5956     1691  00F6               	movwf	strncpy@size+1
  5957     1692  30B2               	movlw	(low (_log| 0))& (0+255)
  5958     1693  160A  118A  24E5  160A  118A  	fcall	_strncpy
  5959     1698                     l5549:
  5960                           
  5961                           ;car_black_box_def.c: 82:     strncpy(&log[6], event, 2);
  5962     1698  1283               	bcf	3,5	;RP0=0, select bank0
  5963     1699  1303               	bcf	3,6	;RP1=0, select bank0
  5964     169A  0827               	movf	log_car_event@event,w
  5965     169B  00F3               	movwf	strncpy@from
  5966     169C  3001               	movlw	1
  5967     169D  00F4               	movwf	strncpy@from+1
  5968     169E  3002               	movlw	2
  5969     169F  00F5               	movwf	strncpy@size
  5970     16A0  3000               	movlw	0
  5971     16A1  00F6               	movwf	strncpy@size+1
  5972     16A2  30B8               	movlw	(low ((_log| 0+6)))& (0+255)
  5973     16A3  160A  118A  24E5  160A  118A  	fcall	_strncpy
  5974                           
  5975                           ;car_black_box_def.c: 83:     log[8] = speed / 10 + '0';
  5976     16A8  300A               	movlw	10
  5977     16A9  00F3               	movwf	___awdiv@divisor
  5978     16AA  3000               	movlw	0
  5979     16AB  00F4               	movwf	___awdiv@divisor+1
  5980     16AC  1283               	bcf	3,5	;RP0=0, select bank0
  5981     16AD  1303               	bcf	3,6	;RP1=0, select bank0
  5982     16AE  0824               	movf	log_car_event@speed,w
  5983     16AF  00A5               	movwf	??_log_car_event
  5984     16B0  01A6               	clrf	??_log_car_event+1
  5985     16B1  0825               	movf	??_log_car_event,w
  5986     16B2  00F5               	movwf	___awdiv@dividend
  5987     16B3  0826               	movf	??_log_car_event+1,w
  5988     16B4  00F6               	movwf	___awdiv@dividend+1
  5989     16B5  120A  118A  278C  160A  118A  	fcall	___awdiv
  5990     16BA  0873               	movf	?___awdiv,w
  5991     16BB  3E30               	addlw	48
  5992     16BC  1683               	bsf	3,5	;RP0=1, select bank1
  5993     16BD  1303               	bcf	3,6	;RP1=0, select bank1
  5994     16BE  00BA               	movwf	(_log^(0+128)+8)
  5995                           
  5996                           ;car_black_box_def.c: 84:     log[9] = speed % 10 + '0';
  5997     16BF  300A               	movlw	10
  5998     16C0  00F3               	movwf	___awmod@divisor
  5999     16C1  3000               	movlw	0
  6000     16C2  00F4               	movwf	___awmod@divisor+1
  6001     16C3  1283               	bcf	3,5	;RP0=0, select bank0
  6002     16C4  1303               	bcf	3,6	;RP1=0, select bank0
  6003     16C5  0824               	movf	log_car_event@speed,w
  6004     16C6  00A5               	movwf	??_log_car_event
  6005     16C7  01A6               	clrf	??_log_car_event+1
  6006     16C8  0825               	movf	??_log_car_event,w
  6007     16C9  00F5               	movwf	___awmod@dividend
  6008     16CA  0826               	movf	??_log_car_event+1,w
  6009     16CB  00F6               	movwf	___awmod@dividend+1
  6010     16CC  160A  118A  2627  160A  118A  	fcall	___awmod
  6011     16D1  0873               	movf	?___awmod,w
  6012     16D2  3E30               	addlw	48
  6013     16D3  1683               	bsf	3,5	;RP0=1, select bank1
  6014     16D4  1303               	bcf	3,6	;RP1=0, select bank1
  6015     16D5  00BB               	movwf	(_log^(0+128)+9)
  6016     16D6                     l5551:
  6017                           
  6018                           ;car_black_box_def.c: 85:     log[10] = '\0';
  6019     16D6  01BC               	clrf	(_log^(0+128)+10)
  6020     16D7                     l5553:
  6021                           
  6022                           ;car_black_box_def.c: 86:     log_event();
  6023     16D7  160A  118A  2324  160A  118A  	fcall	_log_event
  6024     16DC                     l369:
  6025     16DC  0008               	return
  6026     16DD                     __end_of_log_car_event:
  6027                           
  6028                           	psect	text11
  6029     14E5                     __ptext11:	
  6030 ;; *************** function _strncpy *****************
  6031 ;; Defined at:
  6032 ;;		line 8 in file "C:\Program Files\Microchip\xc8\v2.40\pic\sources\c90\common\strncpy.c"
  6033 ;; Parameters:    Size  Location     Type
  6034 ;;  to              1    wreg     PTR unsigned char 
  6035 ;;		 -> log(11), 
  6036 ;;  from            2    3[COMMON] PTR const unsigned char 
  6037 ;;		 -> time(7), main@event(3), 
  6038 ;;  size            2    5[COMMON] unsigned int 
  6039 ;; Auto vars:     Size  Location     Type
  6040 ;;  to              1    7[COMMON] PTR unsigned char 
  6041 ;;		 -> log(11), 
  6042 ;;  cp              1    8[COMMON] PTR unsigned char 
  6043 ;;		 -> log(11), 
  6044 ;; Return value:  Size  Location     Type
  6045 ;;                  1    wreg      PTR unsigned char 
  6046 ;; Registers used:
  6047 ;;		wreg, fsr0l, fsr0h, status,2, status,0
  6048 ;; Tracked objects:
  6049 ;;		On entry : 0/0
  6050 ;;		On exit  : 0/0
  6051 ;;		Unchanged: 0/0
  6052 ;; Data sizes:     COMMON   BANK0   BANK1   BANK3   BANK2
  6053 ;;      Params:         4       0       0       0       0
  6054 ;;      Locals:         2       0       0       0       0
  6055 ;;      Temps:          0       3       0       0       0
  6056 ;;      Totals:         6       3       0       0       0
  6057 ;;Total ram usage:        9 bytes
  6058 ;; Hardware stack levels used: 1
  6059 ;; Hardware stack levels required when called: 1
  6060 ;; This function calls:
  6061 ;;		Nothing
  6062 ;; This function is called by:
  6063 ;;		_log_car_event
  6064 ;; This function uses a non-reentrant model
  6065 ;;
  6066                           
  6067     14E5                     _strncpy:	
  6068                           ;psect for function _strncpy
  6069                           
  6070                           
  6071                           ;incstack = 0
  6072                           ; Regs used in _strncpy: [wreg-fsr0h+status,2+status,0]
  6073                           ;strncpy@to stored from wreg
  6074     14E5  00F7               	movwf	strncpy@to
  6075     14E6                     l5529:
  6076     14E6  0877               	movf	strncpy@to,w
  6077     14E7  00F8               	movwf	strncpy@cp
  6078     14E8  2D0C               	goto	l5537
  6079     14E9                     l5531:
  6080     14E9  3001               	movlw	1
  6081     14EA  02F5               	subwf	strncpy@size,f
  6082     14EB  3000               	movlw	0
  6083     14EC  1C03               	skipc
  6084     14ED  03F6               	decf	strncpy@size+1,f
  6085     14EE  02F6               	subwf	strncpy@size+1,f
  6086     14EF                     l5533:
  6087     14EF  0874               	movf	strncpy@from+1,w
  6088     14F0  1283               	bcf	3,5	;RP0=0, select bank0
  6089     14F1  1303               	bcf	3,6	;RP1=0, select bank0
  6090     14F2  00A1               	movwf	??_strncpy+1
  6091     14F3  0873               	movf	strncpy@from,w
  6092     14F4  00A0               	movwf	??_strncpy
  6093     14F5  0AF3               	incf	strncpy@from,f
  6094     14F6  1903               	skipnz
  6095     14F7  0AF4               	incf	strncpy@from+1,f
  6096     14F8  0820               	movf	??_strncpy,w
  6097     14F9  0084               	movwf	4
  6098     14FA  1783               	bsf	3,7
  6099     14FB  1C21               	btfss	??_strncpy+1,0
  6100     14FC  1383               	bcf	3,7
  6101     14FD  0800               	movf	0,w
  6102     14FE  00A2               	movwf	??_strncpy+2
  6103     14FF  0878               	movf	strncpy@cp,w
  6104     1500  0084               	movwf	4
  6105     1501  3001               	movlw	1
  6106     1502  07F8               	addwf	strncpy@cp,f
  6107     1503  0822               	movf	??_strncpy+2,w
  6108     1504  1383               	bcf	3,7	;select IRP bank0
  6109     1505  0080               	movwf	0
  6110     1506  0800               	movf	0,w
  6111     1507  1D03               	btfss	3,2
  6112     1508  2D0A               	goto	u5561
  6113     1509  2D0B               	goto	u5560
  6114     150A                     u5561:
  6115     150A  2D0C               	goto	l5537
  6116     150B                     u5560:
  6117     150B  2D1D               	goto	l5543
  6118     150C                     l5537:
  6119     150C  0875               	movf	strncpy@size,w
  6120     150D  0476               	iorwf	strncpy@size+1,w
  6121     150E  1D03               	btfss	3,2
  6122     150F  2D11               	goto	u5571
  6123     1510  2D12               	goto	u5570
  6124     1511                     u5571:
  6125     1511  2CE9               	goto	l5531
  6126     1512                     u5570:
  6127     1512  2D1D               	goto	l5543
  6128     1513                     l5539:
  6129     1513  0878               	movf	strncpy@cp,w
  6130     1514  0084               	movwf	4
  6131     1515  1383               	bcf	3,7	;select IRP bank0
  6132     1516  0180               	clrf	0
  6133     1517                     l5541:
  6134     1517  3001               	movlw	1
  6135     1518  1283               	bcf	3,5	;RP0=0, select bank0
  6136     1519  1303               	bcf	3,6	;RP1=0, select bank0
  6137     151A  00A0               	movwf	??_strncpy
  6138     151B  0820               	movf	??_strncpy,w
  6139     151C  07F8               	addwf	strncpy@cp,f
  6140     151D                     l5543:
  6141     151D  3001               	movlw	1
  6142     151E  02F5               	subwf	strncpy@size,f
  6143     151F  3000               	movlw	0
  6144     1520  1C03               	skipc
  6145     1521  03F6               	decf	strncpy@size+1,f
  6146     1522  02F6               	subwf	strncpy@size+1,f
  6147     1523  0A75               	incf	strncpy@size,w
  6148     1524  1D03               	skipz
  6149     1525  2D2A               	goto	u5581
  6150     1526  0A76               	incf	strncpy@size+1,w
  6151     1527  1D03               	btfss	3,2
  6152     1528  2D2A               	goto	u5581
  6153     1529  2D2B               	goto	u5580
  6154     152A                     u5581:
  6155     152A  2D13               	goto	l5539
  6156     152B                     u5580:
  6157     152B                     l1177:
  6158     152B  0008               	return
  6159     152C                     __end_of_strncpy:
  6160                           
  6161                           	psect	text12
  6162     1324                     __ptext12:	
  6163 ;; *************** function _log_event *****************
  6164 ;; Defined at:
  6165 ;;		line 66 in file "car_black_box_def.c"
  6166 ;; Parameters:    Size  Location     Type
  6167 ;;		None
  6168 ;; Auto vars:     Size  Location     Type
  6169 ;;  addr            1    2[BANK0 ] unsigned char 
  6170 ;; Return value:  Size  Location     Type
  6171 ;;                  1    wreg      void 
  6172 ;; Registers used:
  6173 ;;		wreg, fsr0l, fsr0h, status,2, status,0, btemp+1, pclath, cstack
  6174 ;; Tracked objects:
  6175 ;;		On entry : 0/0
  6176 ;;		On exit  : 0/0
  6177 ;;		Unchanged: 0/0
  6178 ;; Data sizes:     COMMON   BANK0   BANK1   BANK3   BANK2
  6179 ;;      Params:         0       0       0       0       0
  6180 ;;      Locals:         0       1       0       0       0
  6181 ;;      Temps:          0       1       0       0       0
  6182 ;;      Totals:         0       2       0       0       0
  6183 ;;Total ram usage:        2 bytes
  6184 ;; Hardware stack levels used: 1
  6185 ;; Hardware stack levels required when called: 5
  6186 ;; This function calls:
  6187 ;;		___bmul
  6188 ;;		_ext_eeprom_24C02_str_write
  6189 ;; This function is called by:
  6190 ;;		_log_car_event
  6191 ;; This function uses a non-reentrant model
  6192 ;;
  6193                           
  6194     1324                     _log_event:	
  6195                           ;psect for function _log_event
  6196                           
  6197     1324                     l4323:	
  6198                           ;incstack = 0
  6199                           ; Regs used in _log_event: [wreg-fsr0h+status,2+status,0+btemp+1+pclath+cstack]
  6200                           
  6201                           
  6202                           ;car_black_box_def.c: 68:     char addr;;car_black_box_def.c: 69:     if (++pos == 10)
  6203     1324  3001               	movlw	1
  6204     1325  1283               	bcf	3,5	;RP0=0, select bank0
  6205     1326  1303               	bcf	3,6	;RP1=0, select bank0
  6206     1327  00A1               	movwf	??_log_event
  6207     1328  0821               	movf	??_log_event,w
  6208     1329  07FA               	addwf	_pos,f
  6209     132A  300A               	movlw	10
  6210     132B  067A               	xorwf	_pos,w
  6211     132C  1D03               	btfss	3,2
  6212     132D  2B2F               	goto	u3961
  6213     132E  2B30               	goto	u3960
  6214     132F                     u3961:
  6215     132F  2B31               	goto	l4327
  6216     1330                     u3960:
  6217     1330                     l4325:
  6218                           
  6219                           ;car_black_box_def.c: 70:         pos = 0;
  6220     1330  01FA               	clrf	_pos
  6221     1331                     l4327:
  6222                           
  6223                           ;car_black_box_def.c: 71:     addr = pos * 10 + 5;
  6224     1331  300A               	movlw	10
  6225     1332  00F3               	movwf	___bmul@multiplicand
  6226     1333  087A               	movf	_pos,w
  6227     1334  160A  158A  27D6  160A  118A  	fcall	___bmul
  6228     1339  3E05               	addlw	5
  6229     133A  1283               	bcf	3,5	;RP0=0, select bank0
  6230     133B  1303               	bcf	3,6	;RP1=0, select bank0
  6231     133C  00A2               	movwf	log_event@addr
  6232     133D                     l4329:
  6233                           
  6234                           ;car_black_box_def.c: 72:     ext_eeprom_24C02_str_write(addr, log);
  6235     133D  30B2               	movlw	(low (_log| 0))& (0+255)
  6236     133E  00F6               	movwf	ext_eeprom_24C02_str_write@str
  6237     133F  3000               	movlw	0
  6238     1340  00F7               	movwf	ext_eeprom_24C02_str_write@str+1
  6239     1341  0822               	movf	log_event@addr,w
  6240     1342  160A  118A  22F5  160A  118A  	fcall	_ext_eeprom_24C02_str_write
  6241     1347                     l4331:
  6242                           
  6243                           ;car_black_box_def.c: 74:     if (log_count < 10)
  6244     1347  300A               	movlw	10
  6245     1348  0279               	subwf	_log_count,w
  6246     1349  1803               	skipnc
  6247     134A  2B4C               	goto	u3971
  6248     134B  2B4D               	goto	u3970
  6249     134C                     u3971:
  6250     134C  2B53               	goto	l366
  6251     134D                     u3970:
  6252     134D                     l4333:
  6253                           
  6254                           ;car_black_box_def.c: 75:         log_count++;
  6255     134D  3001               	movlw	1
  6256     134E  1283               	bcf	3,5	;RP0=0, select bank0
  6257     134F  1303               	bcf	3,6	;RP1=0, select bank0
  6258     1350  00A1               	movwf	??_log_event
  6259     1351  0821               	movf	??_log_event,w
  6260     1352  07F9               	addwf	_log_count,f
  6261     1353                     l366:
  6262     1353  0008               	return
  6263     1354                     __end_of_log_event:
  6264                           
  6265                           	psect	text13
  6266     12F5                     __ptext13:	
  6267 ;; *************** function _ext_eeprom_24C02_str_write *****************
  6268 ;; Defined at:
  6269 ;;		line 29 in file "EEprom.c"
  6270 ;; Parameters:    Size  Location     Type
  6271 ;;  addr            1    wreg     unsigned char 
  6272 ;;  str             2    6[COMMON] PTR unsigned char 
  6273 ;;		 -> log(11), STR_8(5), 
  6274 ;; Auto vars:     Size  Location     Type
  6275 ;;  addr            1    0[BANK0 ] unsigned char 
  6276 ;; Return value:  Size  Location     Type
  6277 ;;                  1    wreg      void 
  6278 ;; Registers used:
  6279 ;;		wreg, fsr0l, fsr0h, status,2, status,0, btemp+1, pclath, cstack
  6280 ;; Tracked objects:
  6281 ;;		On entry : 0/0
  6282 ;;		On exit  : 0/0
  6283 ;;		Unchanged: 0/0
  6284 ;; Data sizes:     COMMON   BANK0   BANK1   BANK3   BANK2
  6285 ;;      Params:         2       0       0       0       0
  6286 ;;      Locals:         0       1       0       0       0
  6287 ;;      Temps:          1       0       0       0       0
  6288 ;;      Totals:         3       1       0       0       0
  6289 ;;Total ram usage:        4 bytes
  6290 ;; Hardware stack levels used: 1
  6291 ;; Hardware stack levels required when called: 4
  6292 ;; This function calls:
  6293 ;;		_ext_eeprom_24C02_byte_write
  6294 ;; This function is called by:
  6295 ;;		_main
  6296 ;;		_log_event
  6297 ;; This function uses a non-reentrant model
  6298 ;;
  6299                           
  6300     12F5                     _ext_eeprom_24C02_str_write:	
  6301                           ;psect for function _ext_eeprom_24C02_str_write
  6302                           
  6303                           
  6304                           ;incstack = 0
  6305                           ; Regs used in _ext_eeprom_24C02_str_write: [wreg-fsr0h+status,2+status,0+btemp+1+pclath
      +                          +cstack]
  6306                           ;ext_eeprom_24C02_str_write@addr stored from wreg
  6307     12F5  1283               	bcf	3,5	;RP0=0, select bank0
  6308     12F6  1303               	bcf	3,6	;RP1=0, select bank0
  6309     12F7  00A0               	movwf	ext_eeprom_24C02_str_write@addr
  6310     12F8                     l4163:
  6311                           
  6312                           ;EEprom.c: 29: void ext_eeprom_24C02_str_write(unsigned char addr, char *str);EEprom.c: 
      +                          30: {;EEprom.c: 31:     while (*str != '\0')
  6313     12F8  2B15               	goto	l4171
  6314     12F9                     l4165:
  6315                           
  6316                           ;EEprom.c: 32:     {;EEprom.c: 33:         ext_eeprom_24C02_byte_write(addr, *str);
  6317     12F9  0877               	movf	ext_eeprom_24C02_str_write@str+1,w
  6318     12FA  00FF               	movwf	btemp+1
  6319     12FB  0876               	movf	ext_eeprom_24C02_str_write@str,w
  6320     12FC  0084               	movwf	4
  6321     12FD  160A  158A  2000  160A  118A  	fcall	stringtab
  6322     1302  00F4               	movwf	ext_eeprom_24C02_byte_write@data
  6323     1303  0820               	movf	ext_eeprom_24C02_str_write@addr,w
  6324     1304  160A  118A  21A4  160A  118A  	fcall	_ext_eeprom_24C02_byte_write
  6325     1309                     l4167:
  6326                           
  6327                           ;EEprom.c: 34:         addr++;
  6328     1309  3001               	movlw	1
  6329     130A  00F8               	movwf	??_ext_eeprom_24C02_str_write
  6330     130B  0878               	movf	??_ext_eeprom_24C02_str_write,w
  6331     130C  1283               	bcf	3,5	;RP0=0, select bank0
  6332     130D  1303               	bcf	3,6	;RP1=0, select bank0
  6333     130E  07A0               	addwf	ext_eeprom_24C02_str_write@addr,f
  6334     130F                     l4169:
  6335                           
  6336                           ;EEprom.c: 35:         str++;
  6337     130F  3001               	movlw	1
  6338     1310  07F6               	addwf	ext_eeprom_24C02_str_write@str,f
  6339     1311  1803               	skipnc
  6340     1312  0AF7               	incf	ext_eeprom_24C02_str_write@str+1,f
  6341     1313  3000               	movlw	0
  6342     1314  07F7               	addwf	ext_eeprom_24C02_str_write@str+1,f
  6343     1315                     l4171:
  6344                           
  6345                           ;EEprom.c: 31:     while (*str != '\0')
  6346     1315  0877               	movf	ext_eeprom_24C02_str_write@str+1,w
  6347     1316  00FF               	movwf	btemp+1
  6348     1317  0876               	movf	ext_eeprom_24C02_str_write@str,w
  6349     1318  0084               	movwf	4
  6350     1319  160A  158A  2000  160A  118A  	fcall	stringtab
  6351     131E  3A00               	xorlw	0
  6352     131F  1D03               	skipz
  6353     1320  2B22               	goto	u3771
  6354     1321  2B23               	goto	u3770
  6355     1322                     u3771:
  6356     1322  2AF9               	goto	l4165
  6357     1323                     u3770:
  6358     1323                     l533:
  6359     1323  0008               	return
  6360     1324                     __end_of_ext_eeprom_24C02_str_write:
  6361                           
  6362                           	psect	text14
  6363     145C                     __ptext14:	
  6364 ;; *************** function _init_config *****************
  6365 ;; Defined at:
  6366 ;;		line 19 in file "main.c"
  6367 ;; Parameters:    Size  Location     Type
  6368 ;;		None
  6369 ;; Auto vars:     Size  Location     Type
  6370 ;;		None
  6371 ;; Return value:  Size  Location     Type
  6372 ;;                  1    wreg      void 
  6373 ;; Registers used:
  6374 ;;		wreg, fsr0l, fsr0h, status,2, status,0, btemp+1, pclath, cstack
  6375 ;; Tracked objects:
  6376 ;;		On entry : 0/0
  6377 ;;		On exit  : 0/0
  6378 ;;		Unchanged: 0/0
  6379 ;; Data sizes:     COMMON   BANK0   BANK1   BANK3   BANK2
  6380 ;;      Params:         0       0       0       0       0
  6381 ;;      Locals:         0       0       0       0       0
  6382 ;;      Temps:          0       0       0       0       0
  6383 ;;      Totals:         0       0       0       0       0
  6384 ;;Total ram usage:        0 bytes
  6385 ;; Hardware stack levels used: 1
  6386 ;; Hardware stack levels required when called: 6
  6387 ;; This function calls:
  6388 ;;		_init_adc
  6389 ;;		_init_clcd
  6390 ;;		_init_digital_keypad
  6391 ;;		_init_ds1307
  6392 ;;		_init_i2c
  6393 ;;		_init_timer2
  6394 ;;		_init_uart
  6395 ;;		_puts
  6396 ;; This function is called by:
  6397 ;;		_main
  6398 ;; This function uses a non-reentrant model
  6399 ;;
  6400                           
  6401     145C                     _init_config:	
  6402                           ;psect for function _init_config
  6403                           
  6404     145C                     l4553:	
  6405                           ;incstack = 0
  6406                           ; Regs used in _init_config: [wreg-fsr0h+status,2+status,0+btemp+1+pclath+cstack]
  6407                           
  6408                           
  6409                           ;main.c: 21:     init_uart(9600);
  6410     145C  120A  118A  27F5  160A  118A  	fcall	_init_clcd
  6411     1461                     l4555:
  6412                           
  6413                           ;main.c: 23:     puts("UART Test Code\n\r");
  6414     1461  160A  158A  2747  160A  118A  	fcall	_init_adc
  6415     1466                     l4557:
  6416                           
  6417                           ;main.c: 25: 
  6418     1466  160A  158A  2741  160A  118A  	fcall	_init_digital_keypad
  6419     146B                     l4559:
  6420                           
  6421                           ;main.c: 27: 
  6422     146B  3000               	movlw	0
  6423     146C  1283               	bcf	3,5	;RP0=0, select bank0
  6424     146D  1303               	bcf	3,6	;RP1=0, select bank0
  6425     146E  00AB               	movwf	init_i2c@baud+3
  6426     146F  3001               	movlw	1
  6427     1470  00AA               	movwf	init_i2c@baud+2
  6428     1471  3086               	movlw	134
  6429     1472  00A9               	movwf	init_i2c@baud+1
  6430     1473  30A0               	movlw	160
  6431     1474  00A8               	movwf	init_i2c@baud
  6432     1475  120A  158A  2009  160A  118A  	fcall	_init_i2c
  6433     147A                     l4561:
  6434                           
  6435                           ;main.c: 29:     GIE = 1;
  6436     147A  160A  158A  27EB  160A  118A  	fcall	_init_ds1307
  6437     147F                     l4563:
  6438                           
  6439                           ;main.c: 31: }
  6440     147F  160A  118A  217E  160A  118A  	fcall	_init_timer2
  6441     1484                     l4565:
  6442                           
  6443                           ;main.c: 33: void main(void) {
  6444     1484  3000               	movlw	0
  6445     1485  1283               	bcf	3,5	;RP0=0, select bank0
  6446     1486  1303               	bcf	3,6	;RP1=0, select bank0
  6447     1487  00AB               	movwf	init_uart@baud+3
  6448     1488  3000               	movlw	0
  6449     1489  00AA               	movwf	init_uart@baud+2
  6450     148A  3025               	movlw	37
  6451     148B  00A9               	movwf	init_uart@baud+1
  6452     148C  3080               	movlw	128
  6453     148D  00A8               	movwf	init_uart@baud
  6454     148E  160A  118A  2354  160A  118A  	fcall	_init_uart
  6455     1493                     l4567:
  6456                           
  6457                           ;main.c: 35:     char event[3] = "ON";
  6458     1493  30BB               	movlw	low (STR_7| (0+32768))
  6459     1494  00F4               	movwf	puts@s
  6460     1495  3090               	movlw	high (STR_7| (0+32768))
  6461     1496  00F5               	movwf	puts@s+1
  6462     1497  160A  118A  2225  160A  118A  	fcall	_puts
  6463     149C                     l4569:
  6464                           
  6465                           ;main.c: 38:     extern int return_time;
  6466     149C  170B               	bsf	11,6	;volatile
  6467     149D                     l4571:
  6468                           
  6469                           ;main.c: 41: 
  6470     149D  178B               	bsf	11,7	;volatile
  6471     149E                     l81:
  6472     149E  0008               	return
  6473     149F                     __end_of_init_config:
  6474                           
  6475                           	psect	text15
  6476     1225                     __ptext15:	
  6477 ;; *************** function _puts *****************
  6478 ;; Defined at:
  6479 ;;		line 47 in file "uart.c"
  6480 ;; Parameters:    Size  Location     Type
  6481 ;;  s               2    4[COMMON] PTR const unsigned char 
  6482 ;;		 -> STR_7(17), 
  6483 ;; Auto vars:     Size  Location     Type
  6484 ;;		None
  6485 ;; Return value:  Size  Location     Type
  6486 ;;                  1    wreg      void 
  6487 ;; Registers used:
  6488 ;;		wreg, fsr0l, fsr0h, status,2, status,0, btemp+1, pclath, cstack
  6489 ;; Tracked objects:
  6490 ;;		On entry : 0/0
  6491 ;;		On exit  : 0/0
  6492 ;;		Unchanged: 0/0
  6493 ;; Data sizes:     COMMON   BANK0   BANK1   BANK3   BANK2
  6494 ;;      Params:         2       0       0       0       0
  6495 ;;      Locals:         0       0       0       0       0
  6496 ;;      Temps:          0       0       0       0       0
  6497 ;;      Totals:         2       0       0       0       0
  6498 ;;Total ram usage:        2 bytes
  6499 ;; Hardware stack levels used: 1
  6500 ;; Hardware stack levels required when called: 2
  6501 ;; This function calls:
  6502 ;;		_putchar
  6503 ;; This function is called by:
  6504 ;;		_init_config
  6505 ;; This function uses a non-reentrant model
  6506 ;;
  6507                           
  6508     1225                     _puts:	
  6509                           ;psect for function _puts
  6510                           
  6511     1225                     l4295:	
  6512                           ;incstack = 0
  6513                           ; Regs used in _puts: [wreg-fsr0h+status,2+status,0+btemp+1+pclath+cstack]
  6514                           
  6515                           
  6516                           ;uart.c: 47: void puts(const char *s);uart.c: 48: {;uart.c: 49:     while (*s)
  6517     1225  2A3A               	goto	l4301
  6518     1226                     l4297:
  6519                           
  6520                           ;uart.c: 50:     {;uart.c: 51:         putchar(*s++);
  6521     1226  0875               	movf	puts@s+1,w
  6522     1227  00FF               	movwf	btemp+1
  6523     1228  0874               	movf	puts@s,w
  6524     1229  0084               	movwf	4
  6525     122A  160A  158A  2000  160A  118A  	fcall	stringtab
  6526     122F  160A  158A  2775  160A  118A  	fcall	_putchar
  6527     1234                     l4299:
  6528     1234  3001               	movlw	1
  6529     1235  07F4               	addwf	puts@s,f
  6530     1236  1803               	skipnc
  6531     1237  0AF5               	incf	puts@s+1,f
  6532     1238  3000               	movlw	0
  6533     1239  07F5               	addwf	puts@s+1,f
  6534     123A                     l4301:
  6535                           
  6536                           ;uart.c: 49:     while (*s)
  6537     123A  0875               	movf	puts@s+1,w
  6538     123B  1283               	bcf	3,5	;RP0=0, select bank0
  6539     123C  1303               	bcf	3,6	;RP1=0, select bank0
  6540     123D  00FF               	movwf	btemp+1
  6541     123E  0874               	movf	puts@s,w
  6542     123F  0084               	movwf	4
  6543     1240  160A  158A  2000  160A  118A  	fcall	stringtab
  6544     1245  3A00               	xorlw	0
  6545     1246  1D03               	skipz
  6546     1247  2A49               	goto	u3931
  6547     1248  2A4A               	goto	u3930
  6548     1249                     u3931:
  6549     1249  2A26               	goto	l4297
  6550     124A                     u3930:
  6551     124A                     l610:
  6552     124A  0008               	return
  6553     124B                     __end_of_puts:
  6554                           
  6555                           	psect	text16
  6556     1354                     __ptext16:	
  6557 ;; *************** function _init_uart *****************
  6558 ;; Defined at:
  6559 ;;		line 5 in file "uart.c"
  6560 ;; Parameters:    Size  Location     Type
  6561 ;;  baud            4    8[BANK0 ] unsigned long 
  6562 ;; Auto vars:     Size  Location     Type
  6563 ;;		None
  6564 ;; Return value:  Size  Location     Type
  6565 ;;                  1    wreg      void 
  6566 ;; Registers used:
  6567 ;;		wreg, status,2, status,0, pclath, cstack
  6568 ;; Tracked objects:
  6569 ;;		On entry : 0/0
  6570 ;;		On exit  : 0/0
  6571 ;;		Unchanged: 0/0
  6572 ;; Data sizes:     COMMON   BANK0   BANK1   BANK3   BANK2
  6573 ;;      Params:         0       4       0       0       0
  6574 ;;      Locals:         0       0       0       0       0
  6575 ;;      Temps:          0       4       0       0       0
  6576 ;;      Totals:         0       8       0       0       0
  6577 ;;Total ram usage:        8 bytes
  6578 ;; Hardware stack levels used: 1
  6579 ;; Hardware stack levels required when called: 2
  6580 ;; This function calls:
  6581 ;;		___lldiv
  6582 ;; This function is called by:
  6583 ;;		_init_config
  6584 ;; This function uses a non-reentrant model
  6585 ;;
  6586                           
  6587     1354                     _init_uart:	
  6588                           ;psect for function _init_uart
  6589                           
  6590     1354                     l4291:	
  6591                           ;incstack = 0
  6592                           ; Regs used in _init_uart: [wreg+status,2+status,0+pclath+cstack]
  6593                           
  6594                           
  6595                           ;uart.c: 5: void init_uart(unsigned long baud);uart.c: 6: {;uart.c: 8:     SPEN = 1;
  6596     1354  1283               	bcf	3,5	;RP0=0, select bank0
  6597     1355  1303               	bcf	3,6	;RP1=0, select bank0
  6598     1356  1798               	bsf	24,7	;volatile
  6599                           
  6600                           ;uart.c: 11:     CREN = 1;
  6601     1357  1618               	bsf	24,4	;volatile
  6602     1358                     l4293:
  6603                           
  6604                           ;uart.c: 14:     SPBRG = (20000000 / (16 * baud)) - 1;
  6605     1358  0828               	movf	init_uart@baud,w
  6606     1359  00AC               	movwf	??_init_uart
  6607     135A  0829               	movf	init_uart@baud+1,w
  6608     135B  00AD               	movwf	??_init_uart+1
  6609     135C  082A               	movf	init_uart@baud+2,w
  6610     135D  00AE               	movwf	??_init_uart+2
  6611     135E  082B               	movf	init_uart@baud+3,w
  6612     135F  00AF               	movwf	??_init_uart+3
  6613     1360  3004               	movlw	4
  6614     1361                     u3925:
  6615     1361  1003               	clrc
  6616     1362  0DAC               	rlf	??_init_uart,f
  6617     1363  0DAD               	rlf	??_init_uart+1,f
  6618     1364  0DAE               	rlf	??_init_uart+2,f
  6619     1365  0DAF               	rlf	??_init_uart+3,f
  6620     1366                     u3920:
  6621     1366  3EFF               	addlw	-1
  6622     1367  1D03               	skipz
  6623     1368  2B61               	goto	u3925
  6624     1369  082F               	movf	??_init_uart+3,w
  6625     136A  00A3               	movwf	___lldiv@divisor+3
  6626     136B  082E               	movf	??_init_uart+2,w
  6627     136C  00A2               	movwf	___lldiv@divisor+2
  6628     136D  082D               	movf	??_init_uart+1,w
  6629     136E  00A1               	movwf	___lldiv@divisor+1
  6630     136F  082C               	movf	??_init_uart,w
  6631     1370  00A0               	movwf	___lldiv@divisor
  6632     1371  3001               	movlw	1
  6633     1372  00A7               	movwf	___lldiv@dividend+3
  6634     1373  3031               	movlw	49
  6635     1374  00A6               	movwf	___lldiv@dividend+2
  6636     1375  302D               	movlw	45
  6637     1376  00A5               	movwf	___lldiv@dividend+1
  6638     1377  3000               	movlw	0
  6639     1378  00A4               	movwf	___lldiv@dividend
  6640     1379  120A  158A  20A4  160A  118A  	fcall	___lldiv
  6641     137E  1283               	bcf	3,5	;RP0=0, select bank0
  6642     137F  1303               	bcf	3,6	;RP1=0, select bank0
  6643     1380  0820               	movf	?___lldiv,w
  6644     1381  3EFF               	addlw	255
  6645     1382  1683               	bsf	3,5	;RP0=1, select bank1
  6646     1383  1303               	bcf	3,6	;RP1=0, select bank1
  6647     1384  0099               	movwf	25	;volatile
  6648     1385                     l592:
  6649     1385  0008               	return
  6650     1386                     __end_of_init_uart:
  6651                           
  6652                           	psect	text17
  6653     117E                     __ptext17:	
  6654 ;; *************** function _init_timer2 *****************
  6655 ;; Defined at:
  6656 ;;		line 17 in file "timers.c"
  6657 ;; Parameters:    Size  Location     Type
  6658 ;;		None
  6659 ;; Auto vars:     Size  Location     Type
  6660 ;;		None
  6661 ;; Return value:  Size  Location     Type
  6662 ;;                  1    wreg      void 
  6663 ;; Registers used:
  6664 ;;		wreg
  6665 ;; Tracked objects:
  6666 ;;		On entry : 0/0
  6667 ;;		On exit  : 0/0
  6668 ;;		Unchanged: 0/0
  6669 ;; Data sizes:     COMMON   BANK0   BANK1   BANK3   BANK2
  6670 ;;      Params:         0       0       0       0       0
  6671 ;;      Locals:         0       0       0       0       0
  6672 ;;      Temps:          0       0       0       0       0
  6673 ;;      Totals:         0       0       0       0       0
  6674 ;;Total ram usage:        0 bytes
  6675 ;; Hardware stack levels used: 1
  6676 ;; Hardware stack levels required when called: 1
  6677 ;; This function calls:
  6678 ;;		Nothing
  6679 ;; This function is called by:
  6680 ;;		_init_config
  6681 ;; This function uses a non-reentrant model
  6682 ;;
  6683                           
  6684     117E                     _init_timer2:	
  6685                           ;psect for function _init_timer2
  6686                           
  6687     117E                     l4283:	
  6688                           ;incstack = 0
  6689                           ; Regs used in _init_timer2: [wreg]
  6690                           
  6691                           
  6692                           ;timers.c: 20:     T2CKPS0 = 1;
  6693     117E  1283               	bcf	3,5	;RP0=0, select bank0
  6694     117F  1303               	bcf	3,6	;RP1=0, select bank0
  6695     1180  1412               	bsf	18,0	;volatile
  6696                           
  6697                           ;timers.c: 21:     T2CKPS1 = 1;
  6698     1181  1492               	bsf	18,1	;volatile
  6699     1182                     l4285:
  6700                           
  6701                           ;timers.c: 24:     PR2 = 250;
  6702     1182  30FA               	movlw	250
  6703     1183  1683               	bsf	3,5	;RP0=1, select bank1
  6704     1184  1303               	bcf	3,6	;RP1=0, select bank1
  6705     1185  0092               	movwf	18	;volatile
  6706     1186                     l4287:
  6707                           
  6708                           ;timers.c: 27:     TMR2IE = 1;
  6709     1186  148C               	bsf	12,1	;volatile
  6710     1187                     l4289:
  6711                           
  6712                           ;timers.c: 30:     TMR2ON = 0;
  6713     1187  1283               	bcf	3,5	;RP0=0, select bank0
  6714     1188  1303               	bcf	3,6	;RP1=0, select bank0
  6715     1189  1112               	bcf	18,2	;volatile
  6716     118A                     l575:
  6717     118A  0008               	return
  6718     118B                     __end_of_init_timer2:
  6719                           
  6720                           	psect	text18
  6721     0809                     __ptext18:	
  6722 ;; *************** function _init_i2c *****************
  6723 ;; Defined at:
  6724 ;;		line 4 in file "i2c.c"
  6725 ;; Parameters:    Size  Location     Type
  6726 ;;  baud            4    8[BANK0 ] unsigned long 
  6727 ;; Auto vars:     Size  Location     Type
  6728 ;;		None
  6729 ;; Return value:  Size  Location     Type
  6730 ;;                  1    wreg      void 
  6731 ;; Registers used:
  6732 ;;		wreg, status,2, status,0, pclath, cstack
  6733 ;; Tracked objects:
  6734 ;;		On entry : 0/0
  6735 ;;		On exit  : 0/0
  6736 ;;		Unchanged: 0/0
  6737 ;; Data sizes:     COMMON   BANK0   BANK1   BANK3   BANK2
  6738 ;;      Params:         0       4       0       0       0
  6739 ;;      Locals:         0       0       0       0       0
  6740 ;;      Temps:          0       4       0       0       0
  6741 ;;      Totals:         0       8       0       0       0
  6742 ;;Total ram usage:        8 bytes
  6743 ;; Hardware stack levels used: 1
  6744 ;; Hardware stack levels required when called: 2
  6745 ;; This function calls:
  6746 ;;		___lldiv
  6747 ;; This function is called by:
  6748 ;;		_init_config
  6749 ;; This function uses a non-reentrant model
  6750 ;;
  6751                           
  6752     0809                     _init_i2c:	
  6753                           ;psect for function _init_i2c
  6754                           
  6755     0809                     l4271:	
  6756                           ;incstack = 0
  6757                           ; Regs used in _init_i2c: [wreg+status,2+status,0+pclath+cstack]
  6758                           
  6759                           
  6760                           ;i2c.c: 4: void init_i2c(unsigned long baud);i2c.c: 5: {;i2c.c: 7:     SSPM3 = 1;
  6761     0809  1283               	bcf	3,5	;RP0=0, select bank0
  6762     080A  1303               	bcf	3,6	;RP1=0, select bank0
  6763     080B  1594               	bsf	20,3	;volatile
  6764     080C                     l4273:
  6765                           
  6766                           ;i2c.c: 10:     SSPADD = (unsigned char)(20000000 / (4 * baud)) - 1;
  6767     080C  0828               	movf	init_i2c@baud,w
  6768     080D  00AC               	movwf	??_init_i2c
  6769     080E  0829               	movf	init_i2c@baud+1,w
  6770     080F  00AD               	movwf	??_init_i2c+1
  6771     0810  082A               	movf	init_i2c@baud+2,w
  6772     0811  00AE               	movwf	??_init_i2c+2
  6773     0812  082B               	movf	init_i2c@baud+3,w
  6774     0813  00AF               	movwf	??_init_i2c+3
  6775     0814  3002               	movlw	2
  6776     0815                     u3915:
  6777     0815  1003               	clrc
  6778     0816  0DAC               	rlf	??_init_i2c,f
  6779     0817  0DAD               	rlf	??_init_i2c+1,f
  6780     0818  0DAE               	rlf	??_init_i2c+2,f
  6781     0819  0DAF               	rlf	??_init_i2c+3,f
  6782     081A                     u3910:
  6783     081A  3EFF               	addlw	-1
  6784     081B  1D03               	skipz
  6785     081C  2815               	goto	u3915
  6786     081D  082F               	movf	??_init_i2c+3,w
  6787     081E  00A3               	movwf	___lldiv@divisor+3
  6788     081F  082E               	movf	??_init_i2c+2,w
  6789     0820  00A2               	movwf	___lldiv@divisor+2
  6790     0821  082D               	movf	??_init_i2c+1,w
  6791     0822  00A1               	movwf	___lldiv@divisor+1
  6792     0823  082C               	movf	??_init_i2c,w
  6793     0824  00A0               	movwf	___lldiv@divisor
  6794     0825  3001               	movlw	1
  6795     0826  00A7               	movwf	___lldiv@dividend+3
  6796     0827  3031               	movlw	49
  6797     0828  00A6               	movwf	___lldiv@dividend+2
  6798     0829  302D               	movlw	45
  6799     082A  00A5               	movwf	___lldiv@dividend+1
  6800     082B  3000               	movlw	0
  6801     082C  00A4               	movwf	___lldiv@dividend
  6802     082D  120A  158A  20A4  120A  158A  	fcall	___lldiv
  6803     0832  1283               	bcf	3,5	;RP0=0, select bank0
  6804     0833  1303               	bcf	3,6	;RP1=0, select bank0
  6805     0834  0820               	movf	?___lldiv,w
  6806     0835  3EFF               	addlw	255
  6807     0836  1683               	bsf	3,5	;RP0=1, select bank1
  6808     0837  1303               	bcf	3,6	;RP1=0, select bank1
  6809     0838  0093               	movwf	19	;volatile
  6810     0839                     l4275:
  6811                           
  6812                           ;i2c.c: 13:     SSPEN = 1;
  6813     0839  1283               	bcf	3,5	;RP0=0, select bank0
  6814     083A  1303               	bcf	3,6	;RP1=0, select bank0
  6815     083B  1694               	bsf	20,5	;volatile
  6816     083C                     l273:
  6817     083C  0008               	return
  6818     083D                     __end_of_init_i2c:
  6819                           
  6820                           	psect	text19
  6821     08A4                     __ptext19:	
  6822 ;; *************** function ___lldiv *****************
  6823 ;; Defined at:
  6824 ;;		line 5 in file "C:\Program Files\Microchip\xc8\v2.40\pic\sources\c90\common\__lldiv.c"
  6825 ;; Parameters:    Size  Location     Type
  6826 ;;  divisor         4    0[BANK0 ] unsigned long 
  6827 ;;  dividend        4    4[BANK0 ] unsigned long 
  6828 ;; Auto vars:     Size  Location     Type
  6829 ;;  quotient        4    4[COMMON] unsigned long 
  6830 ;;  counter         1    8[COMMON] unsigned char 
  6831 ;; Return value:  Size  Location     Type
  6832 ;;                  4    0[BANK0 ] unsigned long 
  6833 ;; Registers used:
  6834 ;;		wreg, status,2, status,0
  6835 ;; Tracked objects:
  6836 ;;		On entry : 0/0
  6837 ;;		On exit  : 0/0
  6838 ;;		Unchanged: 0/0
  6839 ;; Data sizes:     COMMON   BANK0   BANK1   BANK3   BANK2
  6840 ;;      Params:         0       8       0       0       0
  6841 ;;      Locals:         5       0       0       0       0
  6842 ;;      Temps:          1       0       0       0       0
  6843 ;;      Totals:         6       8       0       0       0
  6844 ;;Total ram usage:       14 bytes
  6845 ;; Hardware stack levels used: 1
  6846 ;; Hardware stack levels required when called: 1
  6847 ;; This function calls:
  6848 ;;		Nothing
  6849 ;; This function is called by:
  6850 ;;		_init_i2c
  6851 ;;		_init_uart
  6852 ;; This function uses a non-reentrant model
  6853 ;;
  6854                           
  6855     08A4                     ___lldiv:	
  6856                           ;psect for function ___lldiv
  6857                           
  6858     08A4                     l4235:	
  6859                           ;incstack = 0
  6860                           ; Regs used in ___lldiv: [wreg+status,2+status,0]
  6861                           
  6862     08A4  3000               	movlw	0
  6863     08A5  00F7               	movwf	___lldiv@quotient+3
  6864     08A6  3000               	movlw	0
  6865     08A7  00F6               	movwf	___lldiv@quotient+2
  6866     08A8  3000               	movlw	0
  6867     08A9  00F5               	movwf	___lldiv@quotient+1
  6868     08AA  3000               	movlw	0
  6869     08AB  00F4               	movwf	___lldiv@quotient
  6870     08AC  1283               	bcf	3,5	;RP0=0, select bank0
  6871     08AD  1303               	bcf	3,6	;RP1=0, select bank0
  6872     08AE  0823               	movf	___lldiv@divisor+3,w
  6873     08AF  0422               	iorwf	___lldiv@divisor+2,w
  6874     08B0  0421               	iorwf	___lldiv@divisor+1,w
  6875     08B1  0420               	iorwf	___lldiv@divisor,w
  6876     08B2  1903               	skipnz
  6877     08B3  28B5               	goto	u3841
  6878     08B4  28B6               	goto	u3840
  6879     08B5                     u3841:
  6880     08B5  2903               	goto	l4255
  6881     08B6                     u3840:
  6882     08B6                     l4237:
  6883     08B6  01F8               	clrf	___lldiv@counter
  6884     08B7  0AF8               	incf	___lldiv@counter,f
  6885     08B8  28C6               	goto	l4241
  6886     08B9                     l4239:
  6887     08B9  3001               	movlw	1
  6888     08BA  00F3               	movwf	??___lldiv
  6889     08BB                     u3855:
  6890     08BB  1003               	clrc
  6891     08BC  0DA0               	rlf	___lldiv@divisor,f
  6892     08BD  0DA1               	rlf	___lldiv@divisor+1,f
  6893     08BE  0DA2               	rlf	___lldiv@divisor+2,f
  6894     08BF  0DA3               	rlf	___lldiv@divisor+3,f
  6895     08C0  0BF3               	decfsz	??___lldiv,f
  6896     08C1  28BB               	goto	u3855
  6897     08C2  3001               	movlw	1
  6898     08C3  00F3               	movwf	??___lldiv
  6899     08C4  0873               	movf	??___lldiv,w
  6900     08C5  07F8               	addwf	___lldiv@counter,f
  6901     08C6                     l4241:
  6902     08C6  1FA3               	btfss	___lldiv@divisor+3,7
  6903     08C7  28C9               	goto	u3861
  6904     08C8  28CA               	goto	u3860
  6905     08C9                     u3861:
  6906     08C9  28B9               	goto	l4239
  6907     08CA                     u3860:
  6908     08CA                     l4243:
  6909     08CA  3001               	movlw	1
  6910     08CB  00F3               	movwf	??___lldiv
  6911     08CC                     u3875:
  6912     08CC  1003               	clrc
  6913     08CD  0DF4               	rlf	___lldiv@quotient,f
  6914     08CE  0DF5               	rlf	___lldiv@quotient+1,f
  6915     08CF  0DF6               	rlf	___lldiv@quotient+2,f
  6916     08D0  0DF7               	rlf	___lldiv@quotient+3,f
  6917     08D1  0BF3               	decfsz	??___lldiv,f
  6918     08D2  28CC               	goto	u3875
  6919     08D3                     l4245:
  6920     08D3  0823               	movf	___lldiv@divisor+3,w
  6921     08D4  0227               	subwf	___lldiv@dividend+3,w
  6922     08D5  1D03               	skipz
  6923     08D6  28E1               	goto	u3885
  6924     08D7  0822               	movf	___lldiv@divisor+2,w
  6925     08D8  0226               	subwf	___lldiv@dividend+2,w
  6926     08D9  1D03               	skipz
  6927     08DA  28E1               	goto	u3885
  6928     08DB  0821               	movf	___lldiv@divisor+1,w
  6929     08DC  0225               	subwf	___lldiv@dividend+1,w
  6930     08DD  1D03               	skipz
  6931     08DE  28E1               	goto	u3885
  6932     08DF  0820               	movf	___lldiv@divisor,w
  6933     08E0  0224               	subwf	___lldiv@dividend,w
  6934     08E1                     u3885:
  6935     08E1  1C03               	skipc
  6936     08E2  28E4               	goto	u3881
  6937     08E3  28E5               	goto	u3880
  6938     08E4                     u3881:
  6939     08E4  28F4               	goto	l4251
  6940     08E5                     u3880:
  6941     08E5                     l4247:
  6942     08E5  0820               	movf	___lldiv@divisor,w
  6943     08E6  02A4               	subwf	___lldiv@dividend,f
  6944     08E7  0821               	movf	___lldiv@divisor+1,w
  6945     08E8  1C03               	skipc
  6946     08E9  0F21               	incfsz	___lldiv@divisor+1,w
  6947     08EA  02A5               	subwf	___lldiv@dividend+1,f
  6948     08EB  0822               	movf	___lldiv@divisor+2,w
  6949     08EC  1C03               	skipc
  6950     08ED  0F22               	incfsz	___lldiv@divisor+2,w
  6951     08EE  02A6               	subwf	___lldiv@dividend+2,f
  6952     08EF  0823               	movf	___lldiv@divisor+3,w
  6953     08F0  1C03               	skipc
  6954     08F1  0F23               	incfsz	___lldiv@divisor+3,w
  6955     08F2  02A7               	subwf	___lldiv@dividend+3,f
  6956     08F3                     l4249:
  6957     08F3  1474               	bsf	___lldiv@quotient,0
  6958     08F4                     l4251:
  6959     08F4  3001               	movlw	1
  6960     08F5                     u3895:
  6961     08F5  1003               	clrc
  6962     08F6  0CA3               	rrf	___lldiv@divisor+3,f
  6963     08F7  0CA2               	rrf	___lldiv@divisor+2,f
  6964     08F8  0CA1               	rrf	___lldiv@divisor+1,f
  6965     08F9  0CA0               	rrf	___lldiv@divisor,f
  6966     08FA  3EFF               	addlw	-1
  6967     08FB  1D03               	skipz
  6968     08FC  28F5               	goto	u3895
  6969     08FD                     l4253:
  6970     08FD  3001               	movlw	1
  6971     08FE  02F8               	subwf	___lldiv@counter,f
  6972     08FF  1D03               	btfss	3,2
  6973     0900  2902               	goto	u3901
  6974     0901  2903               	goto	u3900
  6975     0902                     u3901:
  6976     0902  28CA               	goto	l4243
  6977     0903                     u3900:
  6978     0903                     l4255:
  6979     0903  0877               	movf	___lldiv@quotient+3,w
  6980     0904  00A3               	movwf	?___lldiv+3
  6981     0905  0876               	movf	___lldiv@quotient+2,w
  6982     0906  00A2               	movwf	?___lldiv+2
  6983     0907  0875               	movf	___lldiv@quotient+1,w
  6984     0908  00A1               	movwf	?___lldiv+1
  6985     0909  0874               	movf	___lldiv@quotient,w
  6986     090A  00A0               	movwf	?___lldiv
  6987     090B                     l732:
  6988     090B  0008               	return
  6989     090C                     __end_of___lldiv:
  6990                           
  6991                           	psect	text20
  6992     1FEB                     __ptext20:	
  6993 ;; *************** function _init_ds1307 *****************
  6994 ;; Defined at:
  6995 ;;		line 5 in file "ds1307.c"
  6996 ;; Parameters:    Size  Location     Type
  6997 ;;		None
  6998 ;; Auto vars:     Size  Location     Type
  6999 ;;  dummy           1    5[BANK0 ] unsigned char 
  7000 ;; Return value:  Size  Location     Type
  7001 ;;                  1    wreg      void 
  7002 ;; Registers used:
  7003 ;;		wreg, status,2, status,0, pclath, cstack
  7004 ;; Tracked objects:
  7005 ;;		On entry : 0/0
  7006 ;;		On exit  : 0/0
  7007 ;;		Unchanged: 0/0
  7008 ;; Data sizes:     COMMON   BANK0   BANK1   BANK3   BANK2
  7009 ;;      Params:         0       0       0       0       0
  7010 ;;      Locals:         0       1       0       0       0
  7011 ;;      Temps:          0       0       0       0       0
  7012 ;;      Totals:         0       1       0       0       0
  7013 ;;Total ram usage:        1 bytes
  7014 ;; Hardware stack levels used: 1
  7015 ;; Hardware stack levels required when called: 5
  7016 ;; This function calls:
  7017 ;;		_read_ds1307
  7018 ;;		_write_ds1307
  7019 ;; This function is called by:
  7020 ;;		_init_config
  7021 ;; This function uses a non-reentrant model
  7022 ;;
  7023                           
  7024     1FEB                     _init_ds1307:	
  7025                           ;psect for function _init_ds1307
  7026                           
  7027     1FEB                     l4277:	
  7028                           ;incstack = 0
  7029                           ; Regs used in _init_ds1307: [wreg+status,2+status,0+pclath+cstack]
  7030                           
  7031                           
  7032                           ;ds1307.c: 7:     unsigned char dummy;;ds1307.c: 9:     dummy = read_ds1307(0x00);
  7033     1FEB  3000               	movlw	0
  7034     1FEC  160A  118A  229F  160A  158A  	fcall	_read_ds1307
  7035     1FF1  1283               	bcf	3,5	;RP0=0, select bank0
  7036     1FF2  1303               	bcf	3,6	;RP1=0, select bank0
  7037     1FF3  00A5               	movwf	init_ds1307@dummy
  7038     1FF4                     l4279:
  7039                           
  7040                           ;ds1307.c: 10:     dummy = dummy & 0x7F;
  7041     1FF4  0825               	movf	init_ds1307@dummy,w
  7042     1FF5  397F               	andlw	127
  7043     1FF6  00A5               	movwf	init_ds1307@dummy
  7044     1FF7                     l4281:
  7045                           
  7046                           ;ds1307.c: 11:     write_ds1307(0x00, dummy);
  7047     1FF7  0825               	movf	init_ds1307@dummy,w
  7048     1FF8  00F8               	movwf	write_ds1307@data
  7049     1FF9  3000               	movlw	0
  7050     1FFA  160A  118A  2203  160A  158A  	fcall	_write_ds1307
  7051     1FFF                     l238:
  7052     1FFF  0008               	return
  7053     2000                     __end_of_init_ds1307:
  7054                           
  7055                           	psect	text21
  7056     1203                     __ptext21:	
  7057 ;; *************** function _write_ds1307 *****************
  7058 ;; Defined at:
  7059 ;;		line 29 in file "ds1307.c"
  7060 ;; Parameters:    Size  Location     Type
  7061 ;;  addr            1    wreg     unsigned char 
  7062 ;;  data            1    8[COMMON] unsigned char 
  7063 ;; Auto vars:     Size  Location     Type
  7064 ;;  addr            1    4[BANK0 ] unsigned char 
  7065 ;; Return value:  Size  Location     Type
  7066 ;;                  1    wreg      void 
  7067 ;; Registers used:
  7068 ;;		wreg, status,2, status,0, pclath, cstack
  7069 ;; Tracked objects:
  7070 ;;		On entry : 0/0
  7071 ;;		On exit  : 0/0
  7072 ;;		Unchanged: 0/0
  7073 ;; Data sizes:     COMMON   BANK0   BANK1   BANK3   BANK2
  7074 ;;      Params:         1       0       0       0       0
  7075 ;;      Locals:         0       1       0       0       0
  7076 ;;      Temps:          0       0       0       0       0
  7077 ;;      Totals:         1       1       0       0       0
  7078 ;;Total ram usage:        2 bytes
  7079 ;; Hardware stack levels used: 1
  7080 ;; Hardware stack levels required when called: 3
  7081 ;; This function calls:
  7082 ;;		_i2c_start
  7083 ;;		_i2c_stop
  7084 ;;		_i2c_write
  7085 ;; This function is called by:
  7086 ;;		_main
  7087 ;;		_init_ds1307
  7088 ;; This function uses a non-reentrant model
  7089 ;;
  7090                           
  7091     1203                     _write_ds1307:	
  7092                           ;psect for function _write_ds1307
  7093                           
  7094                           
  7095                           ;incstack = 0
  7096                           ; Regs used in _write_ds1307: [wreg+status,2+status,0+pclath+cstack]
  7097                           ;write_ds1307@addr stored from wreg
  7098     1203  1283               	bcf	3,5	;RP0=0, select bank0
  7099     1204  1303               	bcf	3,6	;RP1=0, select bank0
  7100     1205  00A4               	movwf	write_ds1307@addr
  7101     1206                     l4175:
  7102                           
  7103                           ;ds1307.c: 29: void write_ds1307(unsigned char addr, unsigned char data);ds1307.c: 30: {
      +                          ;ds1307.c: 31:     i2c_start();
  7104     1206  160A  158A  2756  160A  118A  	fcall	_i2c_start
  7105                           
  7106                           ;ds1307.c: 32:     i2c_write(0b11010000);
  7107     120B  30D0               	movlw	208
  7108     120C  160A  158A  275F  160A  118A  	fcall	_i2c_write
  7109                           
  7110                           ;ds1307.c: 33:     i2c_write(addr);
  7111     1211  1283               	bcf	3,5	;RP0=0, select bank0
  7112     1212  1303               	bcf	3,6	;RP1=0, select bank0
  7113     1213  0824               	movf	write_ds1307@addr,w
  7114     1214  160A  158A  275F  160A  118A  	fcall	_i2c_write
  7115                           
  7116                           ;ds1307.c: 34:     i2c_write(data);
  7117     1219  0878               	movf	write_ds1307@data,w
  7118     121A  160A  158A  275F  160A  118A  	fcall	_i2c_write
  7119                           
  7120                           ;ds1307.c: 35:     i2c_stop();
  7121     121F  120A  158A  2000  160A  118A  	fcall	_i2c_stop
  7122     1224                     l244:
  7123     1224  0008               	return
  7124     1225                     __end_of_write_ds1307:
  7125                           
  7126                           	psect	text22
  7127     1F41                     __ptext22:	
  7128 ;; *************** function _init_digital_keypad *****************
  7129 ;; Defined at:
  7130 ;;		line 4 in file "digital_keypad.c"
  7131 ;; Parameters:    Size  Location     Type
  7132 ;;		None
  7133 ;; Auto vars:     Size  Location     Type
  7134 ;;		None
  7135 ;; Return value:  Size  Location     Type
  7136 ;;                  1    wreg      void 
  7137 ;; Registers used:
  7138 ;;		wreg, status,2
  7139 ;; Tracked objects:
  7140 ;;		On entry : 0/0
  7141 ;;		On exit  : 0/0
  7142 ;;		Unchanged: 0/0
  7143 ;; Data sizes:     COMMON   BANK0   BANK1   BANK3   BANK2
  7144 ;;      Params:         0       0       0       0       0
  7145 ;;      Locals:         0       0       0       0       0
  7146 ;;      Temps:          0       0       0       0       0
  7147 ;;      Totals:         0       0       0       0       0
  7148 ;;Total ram usage:        0 bytes
  7149 ;; Hardware stack levels used: 1
  7150 ;; Hardware stack levels required when called: 1
  7151 ;; This function calls:
  7152 ;;		Nothing
  7153 ;; This function is called by:
  7154 ;;		_init_config
  7155 ;; This function uses a non-reentrant model
  7156 ;;
  7157                           
  7158     1F41                     _init_digital_keypad:	
  7159                           ;psect for function _init_digital_keypad
  7160                           
  7161     1F41                     l4269:	
  7162                           ;incstack = 0
  7163                           ; Regs used in _init_digital_keypad: [wreg+status,2]
  7164                           
  7165                           
  7166                           ;digital_keypad.c: 7:     TRISB = TRISB | 0x3F;
  7167     1F41  1683               	bsf	3,5	;RP0=1, select bank1
  7168     1F42  1303               	bcf	3,6	;RP1=0, select bank1
  7169     1F43  0806               	movf	6,w	;volatile
  7170     1F44  383F               	iorlw	63
  7171     1F45  0086               	movwf	6	;volatile
  7172     1F46                     l190:
  7173     1F46  0008               	return
  7174     1F47                     __end_of_init_digital_keypad:
  7175                           
  7176                           	psect	text23
  7177     07F5                     __ptext23:	
  7178 ;; *************** function _init_clcd *****************
  7179 ;; Defined at:
  7180 ;;		line 37 in file "clcd.c"
  7181 ;; Parameters:    Size  Location     Type
  7182 ;;		None
  7183 ;; Auto vars:     Size  Location     Type
  7184 ;;		None
  7185 ;; Return value:  Size  Location     Type
  7186 ;;                  1    wreg      void 
  7187 ;; Registers used:
  7188 ;;		wreg, status,2, status,0, pclath, cstack
  7189 ;; Tracked objects:
  7190 ;;		On entry : 0/0
  7191 ;;		On exit  : 0/0
  7192 ;;		Unchanged: 0/0
  7193 ;; Data sizes:     COMMON   BANK0   BANK1   BANK3   BANK2
  7194 ;;      Params:         0       0       0       0       0
  7195 ;;      Locals:         0       0       0       0       0
  7196 ;;      Temps:          0       0       0       0       0
  7197 ;;      Totals:         0       0       0       0       0
  7198 ;;Total ram usage:        0 bytes
  7199 ;; Hardware stack levels used: 1
  7200 ;; Hardware stack levels required when called: 3
  7201 ;; This function calls:
  7202 ;;		_init_display_controller
  7203 ;; This function is called by:
  7204 ;;		_init_config
  7205 ;; This function uses a non-reentrant model
  7206 ;;
  7207                           
  7208     07F5                     _init_clcd:	
  7209                           ;psect for function _init_clcd
  7210                           
  7211     07F5                     l4259:	
  7212                           ;incstack = 0
  7213                           ; Regs used in _init_clcd: [wreg+status,2+status,0+pclath+cstack]
  7214                           
  7215                           
  7216                           ;clcd.c: 40:     TRISD = 0x00;
  7217     07F5  1683               	bsf	3,5	;RP0=1, select bank1
  7218     07F6  1303               	bcf	3,6	;RP1=0, select bank1
  7219     07F7  0188               	clrf	8	;volatile
  7220     07F8                     l4261:
  7221                           
  7222                           ;clcd.c: 43:     TRISE2 = 0;
  7223     07F8  1109               	bcf	9,2	;volatile
  7224     07F9                     l4263:
  7225                           
  7226                           ;clcd.c: 44:     TRISE1 = 0;
  7227     07F9  1089               	bcf	9,1	;volatile
  7228     07FA                     l4265:
  7229                           
  7230                           ;clcd.c: 46:     init_display_controller();
  7231     07FA  160A  118A  25D0  120A  118A  	fcall	_init_display_controller
  7232     07FF                     l174:
  7233     07FF  0008               	return
  7234     0800                     __end_of_init_clcd:
  7235                           
  7236                           	psect	text24
  7237     15D0                     __ptext24:	
  7238 ;; *************** function _init_display_controller *****************
  7239 ;; Defined at:
  7240 ;;		line 16 in file "clcd.c"
  7241 ;; Parameters:    Size  Location     Type
  7242 ;;		None
  7243 ;; Auto vars:     Size  Location     Type
  7244 ;;		None
  7245 ;; Return value:  Size  Location     Type
  7246 ;;                  1    wreg      void 
  7247 ;; Registers used:
  7248 ;;		wreg, status,2, status,0, pclath, cstack
  7249 ;; Tracked objects:
  7250 ;;		On entry : 0/0
  7251 ;;		On exit  : 0/0
  7252 ;;		Unchanged: 0/0
  7253 ;; Data sizes:     COMMON   BANK0   BANK1   BANK3   BANK2
  7254 ;;      Params:         0       0       0       0       0
  7255 ;;      Locals:         0       0       0       0       0
  7256 ;;      Temps:          2       0       0       0       0
  7257 ;;      Totals:         2       0       0       0       0
  7258 ;;Total ram usage:        2 bytes
  7259 ;; Hardware stack levels used: 1
  7260 ;; Hardware stack levels required when called: 2
  7261 ;; This function calls:
  7262 ;;		_clcd_write
  7263 ;; This function is called by:
  7264 ;;		_init_clcd
  7265 ;; This function uses a non-reentrant model
  7266 ;;
  7267                           
  7268     15D0                     _init_display_controller:	
  7269                           ;psect for function _init_display_controller
  7270                           
  7271     15D0                     l4177:	
  7272                           ;incstack = 0
  7273                           ; Regs used in _init_display_controller: [wreg+status,2+status,0+pclath+cstack]
  7274                           
  7275                           
  7276                           ;clcd.c: 19:     _delay((unsigned long)((30)*(20000000/4000.0)));
  7277     15D0  30C3               	movlw	195
  7278     15D1  00F8               	movwf	??_init_display_controller+1
  7279     15D2  30CD               	movlw	205
  7280     15D3  00F7               	movwf	??_init_display_controller
  7281     15D4                     u6237:
  7282     15D4  0BF7               	decfsz	??_init_display_controller,f
  7283     15D5  2DD4               	goto	u6237
  7284     15D6  0BF8               	decfsz	??_init_display_controller+1,f
  7285     15D7  2DD4               	goto	u6237
  7286     15D8                     l4179:
  7287                           
  7288                           ;clcd.c: 22:     clcd_write(0x33, 0);
  7289     15D8  01F3               	clrf	clcd_write@mode
  7290     15D9  3033               	movlw	51
  7291     15DA  160A  118A  21C2  160A  118A  	fcall	_clcd_write
  7292     15DF                     l4181:
  7293                           
  7294                           ;clcd.c: 23:     _delay((unsigned long)((4100)*(20000000/4000000.0)));
  7295     15DF  301B               	movlw	27
  7296     15E0  00F8               	movwf	??_init_display_controller+1
  7297     15E1  309E               	movlw	158
  7298     15E2  00F7               	movwf	??_init_display_controller
  7299     15E3                     u6247:
  7300     15E3  0BF7               	decfsz	??_init_display_controller,f
  7301     15E4  2DE3               	goto	u6247
  7302     15E5  0BF8               	decfsz	??_init_display_controller+1,f
  7303     15E6  2DE3               	goto	u6247
  7304     15E7  0000               	nop
  7305                           
  7306                           ;clcd.c: 24:     clcd_write(0x33, 0);
  7307     15E8  01F3               	clrf	clcd_write@mode
  7308     15E9  3033               	movlw	51
  7309     15EA  160A  118A  21C2  160A  118A  	fcall	_clcd_write
  7310     15EF                     l4183:
  7311                           
  7312                           ;clcd.c: 25:     _delay((unsigned long)((100)*(20000000/4000000.0)));
  7313     15EF  30A6               	movlw	166
  7314     15F0  00F7               	movwf	??_init_display_controller
  7315     15F1                     u6257:
  7316     15F1  0BF7               	decfsz	??_init_display_controller,f
  7317     15F2  2DF1               	goto	u6257
  7318     15F3  0000               	nop
  7319     15F4                     l4185:
  7320                           
  7321                           ;clcd.c: 26:     clcd_write(0x33, 0);
  7322     15F4  01F3               	clrf	clcd_write@mode
  7323     15F5  3033               	movlw	51
  7324     15F6  160A  118A  21C2  160A  118A  	fcall	_clcd_write
  7325     15FB                     l4187:
  7326                           
  7327                           ;clcd.c: 27:     _delay((unsigned long)((1)*(20000000/4000000.0)));
  7328     15FB  2DFC               	nop2	;2 cycle nop
  7329     15FC  2DFD               	nop2	;2 cycle nop
  7330     15FD  0000               	nop
  7331     15FE                     l4189:
  7332                           
  7333                           ;clcd.c: 29:     clcd_write(0x38, 0);
  7334     15FE  01F3               	clrf	clcd_write@mode
  7335     15FF  3038               	movlw	56
  7336     1600  160A  118A  21C2  160A  118A  	fcall	_clcd_write
  7337     1605                     l4191:
  7338                           
  7339                           ;clcd.c: 30:     _delay((unsigned long)((100)*(20000000/4000000.0)));
  7340     1605  30A6               	movlw	166
  7341     1606  00F7               	movwf	??_init_display_controller
  7342     1607                     u6267:
  7343     1607  0BF7               	decfsz	??_init_display_controller,f
  7344     1608  2E07               	goto	u6267
  7345     1609  0000               	nop
  7346                           
  7347                           ;clcd.c: 31:     clcd_write(0x01, 0);
  7348     160A  01F3               	clrf	clcd_write@mode
  7349     160B  3001               	movlw	1
  7350     160C  160A  118A  21C2  160A  118A  	fcall	_clcd_write
  7351     1611                     l4193:
  7352                           
  7353                           ;clcd.c: 32:     _delay((unsigned long)((500)*(20000000/4000000.0)));
  7354     1611  3004               	movlw	4
  7355     1612  00F8               	movwf	??_init_display_controller+1
  7356     1613  303D               	movlw	61
  7357     1614  00F7               	movwf	??_init_display_controller
  7358     1615                     u6277:
  7359     1615  0BF7               	decfsz	??_init_display_controller,f
  7360     1616  2E15               	goto	u6277
  7361     1617  0BF8               	decfsz	??_init_display_controller+1,f
  7362     1618  2E15               	goto	u6277
  7363     1619  2E1A               	nop2
  7364     161A                     l4195:
  7365                           
  7366                           ;clcd.c: 33:     clcd_write(0x0C, 0);
  7367     161A  01F3               	clrf	clcd_write@mode
  7368     161B  300C               	movlw	12
  7369     161C  160A  118A  21C2  160A  118A  	fcall	_clcd_write
  7370                           
  7371                           ;clcd.c: 34:     _delay((unsigned long)((100)*(20000000/4000000.0)));
  7372     1621  30A6               	movlw	166
  7373     1622  00F7               	movwf	??_init_display_controller
  7374     1623                     u6287:
  7375     1623  0BF7               	decfsz	??_init_display_controller,f
  7376     1624  2E23               	goto	u6287
  7377     1625  0000               	nop
  7378     1626                     l171:
  7379     1626  0008               	return
  7380     1627                     __end_of_init_display_controller:
  7381                           
  7382                           	psect	text25
  7383     1F47                     __ptext25:	
  7384 ;; *************** function _init_adc *****************
  7385 ;; Defined at:
  7386 ;;		line 3 in file "adc.c"
  7387 ;; Parameters:    Size  Location     Type
  7388 ;;		None
  7389 ;; Auto vars:     Size  Location     Type
  7390 ;;		None
  7391 ;; Return value:  Size  Location     Type
  7392 ;;                  1    wreg      void 
  7393 ;; Registers used:
  7394 ;;		None
  7395 ;; Tracked objects:
  7396 ;;		On entry : 0/0
  7397 ;;		On exit  : 0/0
  7398 ;;		Unchanged: 0/0
  7399 ;; Data sizes:     COMMON   BANK0   BANK1   BANK3   BANK2
  7400 ;;      Params:         0       0       0       0       0
  7401 ;;      Locals:         0       0       0       0       0
  7402 ;;      Temps:          0       0       0       0       0
  7403 ;;      Totals:         0       0       0       0       0
  7404 ;;Total ram usage:        0 bytes
  7405 ;; Hardware stack levels used: 1
  7406 ;; Hardware stack levels required when called: 1
  7407 ;; This function calls:
  7408 ;;		Nothing
  7409 ;; This function is called by:
  7410 ;;		_init_config
  7411 ;; This function uses a non-reentrant model
  7412 ;;
  7413                           
  7414     1F47                     _init_adc:	
  7415                           ;psect for function _init_adc
  7416                           
  7417     1F47                     l4267:	
  7418                           ;incstack = 0
  7419                           ; Regs used in _init_adc: []
  7420                           
  7421                           
  7422                           ;adc.c: 6:     ADFM = 1;
  7423     1F47  1683               	bsf	3,5	;RP0=1, select bank1
  7424     1F48  1303               	bcf	3,6	;RP1=0, select bank1
  7425     1F49  179F               	bsf	31,7	;volatile
  7426                           
  7427                           ;adc.c: 9:     ADON = 1;
  7428     1F4A  1283               	bcf	3,5	;RP0=0, select bank0
  7429     1F4B  1303               	bcf	3,6	;RP1=0, select bank0
  7430     1F4C  141F               	bsf	31,0	;volatile
  7431     1F4D                     l215:
  7432     1F4D  0008               	return
  7433     1F4E                     __end_of_init_adc:
  7434                           
  7435                           	psect	text26
  7436     0E0A                     __ptext26:	
  7437 ;; *************** function _edit_time *****************
  7438 ;; Defined at:
  7439 ;;		line 386 in file "car_black_box_def.c"
  7440 ;; Parameters:    Size  Location     Type
  7441 ;;  reset_flag      1    wreg     unsigned char 
  7442 ;;  key             1   23[BANK0 ] unsigned char 
  7443 ;; Auto vars:     Size  Location     Type
  7444 ;;  reset_flag      1   26[BANK0 ] unsigned char 
  7445 ;; Return value:  Size  Location     Type
  7446 ;;                  1    wreg      void 
  7447 ;; Registers used:
  7448 ;;		wreg, fsr0l, fsr0h, status,2, status,0, btemp+1, pclath, cstack
  7449 ;; Tracked objects:
  7450 ;;		On entry : 0/0
  7451 ;;		On exit  : 0/0
  7452 ;;		Unchanged: 0/0
  7453 ;; Data sizes:     COMMON   BANK0   BANK1   BANK3   BANK2
  7454 ;;      Params:         0       1       0       0       0
  7455 ;;      Locals:         0       1       0       0       0
  7456 ;;      Temps:          0       2       0       0       0
  7457 ;;      Totals:         0       4       0       0       0
  7458 ;;Total ram usage:        4 bytes
  7459 ;; Hardware stack levels used: 1
  7460 ;; Hardware stack levels required when called: 6
  7461 ;; This function calls:
  7462 ;;		___awdiv
  7463 ;;		___awmod
  7464 ;;		___bmul
  7465 ;;		_clcd_print
  7466 ;;		_clcd_putch
  7467 ;;		_clear_screen
  7468 ;;		_get_time
  7469 ;;		_strcpy
  7470 ;; This function is called by:
  7471 ;;		_main
  7472 ;; This function uses a non-reentrant model
  7473 ;;
  7474                           
  7475     0E0A                     _edit_time:	
  7476                           ;psect for function _edit_time
  7477                           
  7478                           
  7479                           ;incstack = 0
  7480                           ; Regs used in _edit_time: [wreg-fsr0h+status,2+status,0+btemp+1+pclath+cstack]
  7481                           ;edit_time@reset_flag stored from wreg
  7482     0E0A  1283               	bcf	3,5	;RP0=0, select bank0
  7483     0E0B  1303               	bcf	3,6	;RP1=0, select bank0
  7484     0E0C  00BA               	movwf	edit_time@reset_flag
  7485     0E0D                     l5555:
  7486                           
  7487                           ;car_black_box_def.c: 386: void edit_time(unsigned char reset_flag, unsigned char key);c
      +                          ar_black_box_def.c: 387: {;car_black_box_def.c: 388:     static char new_time[7];;car_bl
      +                          ack_box_def.c: 389:     static int i, j, blink_delay, blink_flag;;car_black_box_def.c: 3
      +                          90:     if (reset_flag == 0x10)
  7488     0E0D  3010               	movlw	16
  7489     0E0E  063A               	xorwf	edit_time@reset_flag,w
  7490     0E0F  1D03               	btfss	3,2
  7491     0E10  2E12               	goto	u5591
  7492     0E11  2E13               	goto	u5590
  7493     0E12                     u5591:
  7494     0E12  2E7A               	goto	l5579
  7495     0E13                     u5590:
  7496     0E13                     l5557:
  7497                           
  7498                           ;car_black_box_def.c: 391:     {;car_black_box_def.c: 392:         clear_screen();
  7499     0E13  160A  158A  278D  120A  158A  	fcall	_clear_screen
  7500     0E18                     l5559:
  7501                           
  7502                           ;car_black_box_def.c: 393:         return_time = 5;
  7503     0E18  3005               	movlw	5
  7504     0E19  1283               	bcf	3,5	;RP0=0, select bank0
  7505     0E1A  1303               	bcf	3,6	;RP1=0, select bank0
  7506     0E1B  00DF               	movwf	_return_time
  7507     0E1C  3000               	movlw	0
  7508     0E1D  00E0               	movwf	_return_time+1
  7509     0E1E                     l5561:
  7510                           
  7511                           ;car_black_box_def.c: 394:         blink_delay = blink_flag = 0;
  7512     0E1E  01D5               	clrf	edit_time@blink_flag
  7513     0E1F  01D6               	clrf	edit_time@blink_flag+1
  7514     0E20  01D7               	clrf	edit_time@blink_delay
  7515     0E21  01D8               	clrf	edit_time@blink_delay+1
  7516     0E22                     l5563:
  7517                           
  7518                           ;car_black_box_def.c: 395:         clcd_print("HH MM SS", (0x80 + 4));
  7519     0E22  3048               	movlw	low (STR_33| (0+32768))
  7520     0E23  00A0               	movwf	clcd_print@str
  7521     0E24  3091               	movlw	high (STR_33| (0+32768))
  7522     0E25  00A1               	movwf	clcd_print@str+1
  7523     0E26  3084               	movlw	132
  7524     0E27  00A2               	movwf	clcd_print@addr
  7525     0E28  160A  118A  23B8  120A  158A  	fcall	_clcd_print
  7526     0E2D                     l5565:
  7527                           
  7528                           ;car_black_box_def.c: 396:         get_time();
  7529     0E2D  160A  118A  252C  120A  158A  	fcall	_get_time
  7530     0E32                     l5567:
  7531                           
  7532                           ;car_black_box_def.c: 397:         strcpy(new_time, time);
  7533     0E32  30BD               	movlw	(low (edit_time@new_time| 0))& (0+255)
  7534     0E33  00F3               	movwf	strcpy@to
  7535     0E34  3000               	movlw	0
  7536     0E35  00F4               	movwf	strcpy@to+1
  7537     0E36  30C4               	movlw	(low (_time| 0))& (0+255)
  7538     0E37  00F5               	movwf	strcpy@from
  7539     0E38  3000               	movlw	0
  7540     0E39  00F6               	movwf	strcpy@from+1
  7541     0E3A  160A  118A  224B  120A  158A  	fcall	_strcpy
  7542     0E3F                     l5569:
  7543                           
  7544                           ;car_black_box_def.c: 398:         new_sec = (new_time[4] - '0') * 10 + new_time[5] - '0
      +                          ';
  7545     0E3F  300A               	movlw	10
  7546     0E40  00F3               	movwf	___bmul@multiplicand
  7547     0E41  1683               	bsf	3,5	;RP0=1, select bank1
  7548     0E42  1303               	bcf	3,6	;RP1=0, select bank1
  7549     0E43  0841               	movf	(edit_time@new_time^(0+128)+4),w
  7550     0E44  160A  158A  27D6  120A  158A  	fcall	___bmul
  7551     0E49  1683               	bsf	3,5	;RP0=1, select bank1
  7552     0E4A  1303               	bcf	3,6	;RP1=0, select bank1
  7553     0E4B  0742               	addwf	(edit_time@new_time^(0+128)+5),w
  7554     0E4C  3EF0               	addlw	240
  7555     0E4D  1283               	bcf	3,5	;RP0=0, select bank0
  7556     0E4E  1303               	bcf	3,6	;RP1=0, select bank0
  7557     0E4F  00E7               	movwf	_new_sec
  7558     0E50                     l5571:
  7559                           
  7560                           ;car_black_box_def.c: 399:         new_min = (new_time[2] - '0') * 10 + new_time[3] - '0
      +                          ';
  7561     0E50  300A               	movlw	10
  7562     0E51  00F3               	movwf	___bmul@multiplicand
  7563     0E52  1683               	bsf	3,5	;RP0=1, select bank1
  7564     0E53  1303               	bcf	3,6	;RP1=0, select bank1
  7565     0E54  083F               	movf	(edit_time@new_time^(0+128)+2),w
  7566     0E55  160A  158A  27D6  120A  158A  	fcall	___bmul
  7567     0E5A  1683               	bsf	3,5	;RP0=1, select bank1
  7568     0E5B  1303               	bcf	3,6	;RP1=0, select bank1
  7569     0E5C  0740               	addwf	(edit_time@new_time^(0+128)+3),w
  7570     0E5D  3EF0               	addlw	240
  7571     0E5E  1283               	bcf	3,5	;RP0=0, select bank0
  7572     0E5F  1303               	bcf	3,6	;RP1=0, select bank0
  7573     0E60  00E6               	movwf	_new_min
  7574     0E61                     l5573:
  7575                           
  7576                           ;car_black_box_def.c: 400:         new_hr = (new_time[0] - '0') * 10 + new_time[1] - '0'
      +                          ;
  7577     0E61  300A               	movlw	10
  7578     0E62  00F3               	movwf	___bmul@multiplicand
  7579     0E63  1683               	bsf	3,5	;RP0=1, select bank1
  7580     0E64  1303               	bcf	3,6	;RP1=0, select bank1
  7581     0E65  083D               	movf	edit_time@new_time^(0+128),w
  7582     0E66  160A  158A  27D6  120A  158A  	fcall	___bmul
  7583     0E6B  1683               	bsf	3,5	;RP0=1, select bank1
  7584     0E6C  1303               	bcf	3,6	;RP1=0, select bank1
  7585     0E6D  073E               	addwf	(edit_time@new_time^(0+128)+1),w
  7586     0E6E  3EF0               	addlw	240
  7587     0E6F  1283               	bcf	3,5	;RP0=0, select bank0
  7588     0E70  1303               	bcf	3,6	;RP1=0, select bank0
  7589     0E71  00E5               	movwf	_new_hr
  7590     0E72                     l5575:
  7591                           
  7592                           ;car_black_box_def.c: 401:         i = 2;
  7593     0E72  3002               	movlw	2
  7594     0E73  00DB               	movwf	edit_time@i
  7595     0E74  3000               	movlw	0
  7596     0E75  00DC               	movwf	edit_time@i+1
  7597     0E76                     l5577:
  7598                           
  7599                           ;car_black_box_def.c: 402:         j = 10;
  7600     0E76  300A               	movlw	10
  7601     0E77  00D9               	movwf	edit_time@j
  7602     0E78  3000               	movlw	0
  7603     0E79  00DA               	movwf	edit_time@j+1
  7604     0E7A                     l5579:
  7605                           
  7606                           ;car_black_box_def.c: 405:     if (key == 0x3F && press < 13)
  7607     0E7A  303F               	movlw	63
  7608     0E7B  0637               	xorwf	edit_time@key,w
  7609     0E7C  1D03               	btfss	3,2
  7610     0E7D  2E7F               	goto	u5601
  7611     0E7E  2E80               	goto	u5600
  7612     0E7F                     u5601:
  7613     0E7F  2F07               	goto	l5625
  7614     0E80                     u5600:
  7615     0E80                     l5581:
  7616     0E80  085E               	movf	_press+1,w
  7617     0E81  3A80               	xorlw	128
  7618     0E82  00FF               	movwf	btemp+1
  7619     0E83  3080               	movlw	128
  7620     0E84  027F               	subwf	btemp+1,w
  7621     0E85  1D03               	skipz
  7622     0E86  2E89               	goto	u5615
  7623     0E87  300D               	movlw	13
  7624     0E88  025D               	subwf	_press,w
  7625     0E89                     u5615:
  7626     0E89  1803               	skipnc
  7627     0E8A  2E8C               	goto	u5611
  7628     0E8B  2E8D               	goto	u5610
  7629     0E8C                     u5611:
  7630     0E8C  2F07               	goto	l5625
  7631     0E8D                     u5610:
  7632     0E8D                     l5583:
  7633                           
  7634                           ;car_black_box_def.c: 406:     {;car_black_box_def.c: 407:         if (pre_key == 0x37)
  7635     0E8D  3037               	movlw	55
  7636     0E8E  1283               	bcf	3,5	;RP0=0, select bank0
  7637     0E8F  1303               	bcf	3,6	;RP1=0, select bank0
  7638     0E90  0669               	xorwf	_pre_key,w
  7639     0E91  1D03               	btfss	3,2
  7640     0E92  2E94               	goto	u5621
  7641     0E93  2E95               	goto	u5620
  7642     0E94                     u5621:
  7643     0E94  2ED1               	goto	l5605
  7644     0E95                     u5620:
  7645     0E95                     l5585:
  7646                           
  7647                           ;car_black_box_def.c: 408:         {;car_black_box_def.c: 409:             if (i == 2)
  7648     0E95  3002               	movlw	2
  7649     0E96  065B               	xorwf	edit_time@i,w
  7650     0E97  045C               	iorwf	edit_time@i+1,w
  7651     0E98  1D03               	btfss	3,2
  7652     0E99  2E9B               	goto	u5631
  7653     0E9A  2E9C               	goto	u5630
  7654     0E9B                     u5631:
  7655     0E9B  2EA8               	goto	l5591
  7656     0E9C                     u5630:
  7657     0E9C                     l5587:
  7658                           
  7659                           ;car_black_box_def.c: 410:             {;car_black_box_def.c: 411:                 if (+
      +                          +new_sec > 59)
  7660     0E9C  3001               	movlw	1
  7661     0E9D  00B8               	movwf	??_edit_time
  7662     0E9E  0838               	movf	??_edit_time,w
  7663     0E9F  07E7               	addwf	_new_sec,f
  7664     0EA0  303C               	movlw	60
  7665     0EA1  0267               	subwf	_new_sec,w
  7666     0EA2  1C03               	skipc
  7667     0EA3  2EA5               	goto	u5641
  7668     0EA4  2EA6               	goto	u5640
  7669     0EA5                     u5641:
  7670     0EA5  2EC5               	goto	l5601
  7671     0EA6                     u5640:
  7672     0EA6                     l5589:
  7673                           
  7674                           ;car_black_box_def.c: 412:                     new_sec = 0;
  7675     0EA6  01E7               	clrf	_new_sec
  7676     0EA7  2EC5               	goto	l5601
  7677     0EA8                     l5591:
  7678     0EA8  035B               	decf	edit_time@i,w
  7679     0EA9  045C               	iorwf	edit_time@i+1,w
  7680     0EAA  1D03               	btfss	3,2
  7681     0EAB  2EAD               	goto	u5651
  7682     0EAC  2EAE               	goto	u5650
  7683     0EAD                     u5651:
  7684     0EAD  2EBA               	goto	l5597
  7685     0EAE                     u5650:
  7686     0EAE                     l5593:
  7687                           
  7688                           ;car_black_box_def.c: 415:             {;car_black_box_def.c: 416:                 if (+
      +                          +new_min > 59)
  7689     0EAE  3001               	movlw	1
  7690     0EAF  00B8               	movwf	??_edit_time
  7691     0EB0  0838               	movf	??_edit_time,w
  7692     0EB1  07E6               	addwf	_new_min,f
  7693     0EB2  303C               	movlw	60
  7694     0EB3  0266               	subwf	_new_min,w
  7695     0EB4  1C03               	skipc
  7696     0EB5  2EB7               	goto	u5661
  7697     0EB6  2EB8               	goto	u5660
  7698     0EB7                     u5661:
  7699     0EB7  2EC5               	goto	l5601
  7700     0EB8                     u5660:
  7701     0EB8                     l5595:
  7702                           
  7703                           ;car_black_box_def.c: 417:                     new_min = 0;
  7704     0EB8  01E6               	clrf	_new_min
  7705     0EB9  2EC5               	goto	l5601
  7706     0EBA                     l5597:
  7707                           
  7708                           ;car_black_box_def.c: 420:             {;car_black_box_def.c: 421:                 if (+
      +                          +new_hr > 23)
  7709     0EBA  3001               	movlw	1
  7710     0EBB  00B8               	movwf	??_edit_time
  7711     0EBC  0838               	movf	??_edit_time,w
  7712     0EBD  07E5               	addwf	_new_hr,f
  7713     0EBE  3018               	movlw	24
  7714     0EBF  0265               	subwf	_new_hr,w
  7715     0EC0  1C03               	skipc
  7716     0EC1  2EC3               	goto	u5671
  7717     0EC2  2EC4               	goto	u5670
  7718     0EC3                     u5671:
  7719     0EC3  2EC5               	goto	l5601
  7720     0EC4                     u5670:
  7721     0EC4                     l5599:
  7722                           
  7723                           ;car_black_box_def.c: 422:                     new_hr = 0;
  7724     0EC4  01E5               	clrf	_new_hr
  7725     0EC5                     l5601:
  7726                           
  7727                           ;car_black_box_def.c: 424:             return_time = 5;
  7728     0EC5  3005               	movlw	5
  7729     0EC6  00DF               	movwf	_return_time
  7730     0EC7  3000               	movlw	0
  7731     0EC8  00E0               	movwf	_return_time+1
  7732     0EC9                     l5603:
  7733                           
  7734                           ;car_black_box_def.c: 425:             pre_key = press = 0;
  7735     0EC9  01DD               	clrf	_press
  7736     0ECA  01DE               	clrf	_press+1
  7737     0ECB  1003               	clrc
  7738     0ECC  3000               	movlw	0
  7739     0ECD  1803               	btfsc	3,0
  7740     0ECE  3001               	movlw	1
  7741     0ECF  00E9               	movwf	_pre_key
  7742                           
  7743                           ;car_black_box_def.c: 426:         }
  7744     0ED0  2F07               	goto	l5625
  7745     0ED1                     l5605:
  7746     0ED1  302F               	movlw	47
  7747     0ED2  0669               	xorwf	_pre_key,w
  7748     0ED3  1D03               	btfss	3,2
  7749     0ED4  2ED6               	goto	u5681
  7750     0ED5  2ED7               	goto	u5680
  7751     0ED6                     u5681:
  7752     0ED6  2F07               	goto	l5625
  7753     0ED7                     u5680:
  7754     0ED7                     l5607:
  7755                           
  7756                           ;car_black_box_def.c: 428:         {;car_black_box_def.c: 429:             if (--i < 0)
  7757     0ED7  30FF               	movlw	255
  7758     0ED8  07DB               	addwf	edit_time@i,f
  7759     0ED9  1803               	skipnc
  7760     0EDA  0ADC               	incf	edit_time@i+1,f
  7761     0EDB  30FF               	movlw	255
  7762     0EDC  07DC               	addwf	edit_time@i+1,f
  7763     0EDD  1FDC               	btfss	edit_time@i+1,7
  7764     0EDE  2EE0               	goto	u5691
  7765     0EDF  2EE1               	goto	u5690
  7766     0EE0                     u5691:
  7767     0EE0  2EE5               	goto	l5611
  7768     0EE1                     u5690:
  7769     0EE1                     l5609:
  7770                           
  7771                           ;car_black_box_def.c: 430:                 i = 2;
  7772     0EE1  3002               	movlw	2
  7773     0EE2  00DB               	movwf	edit_time@i
  7774     0EE3  3000               	movlw	0
  7775     0EE4  00DC               	movwf	edit_time@i+1
  7776     0EE5                     l5611:
  7777                           
  7778                           ;car_black_box_def.c: 432:             if (i == 2)
  7779     0EE5  3002               	movlw	2
  7780     0EE6  065B               	xorwf	edit_time@i,w
  7781     0EE7  045C               	iorwf	edit_time@i+1,w
  7782     0EE8  1D03               	btfss	3,2
  7783     0EE9  2EEB               	goto	u5701
  7784     0EEA  2EEC               	goto	u5700
  7785     0EEB                     u5701:
  7786     0EEB  2EF1               	goto	l5615
  7787     0EEC                     u5700:
  7788     0EEC                     l5613:
  7789                           
  7790                           ;car_black_box_def.c: 433:                 j = 10;
  7791     0EEC  300A               	movlw	10
  7792     0EED  00D9               	movwf	edit_time@j
  7793     0EEE  3000               	movlw	0
  7794     0EEF  00DA               	movwf	edit_time@j+1
  7795     0EF0  2EC5               	goto	l5601
  7796     0EF1                     l5615:
  7797     0EF1  035B               	decf	edit_time@i,w
  7798     0EF2  045C               	iorwf	edit_time@i+1,w
  7799     0EF3  1D03               	btfss	3,2
  7800     0EF4  2EF6               	goto	u5711
  7801     0EF5  2EF7               	goto	u5710
  7802     0EF6                     u5711:
  7803     0EF6  2EFC               	goto	l5619
  7804     0EF7                     u5710:
  7805     0EF7                     l5617:
  7806                           
  7807                           ;car_black_box_def.c: 435:                 j = 7;
  7808     0EF7  3007               	movlw	7
  7809     0EF8  00D9               	movwf	edit_time@j
  7810     0EF9  3000               	movlw	0
  7811     0EFA  00DA               	movwf	edit_time@j+1
  7812     0EFB  2EC5               	goto	l5601
  7813     0EFC                     l5619:
  7814     0EFC  085B               	movf	edit_time@i,w
  7815     0EFD  045C               	iorwf	edit_time@i+1,w
  7816     0EFE  1D03               	btfss	3,2
  7817     0EFF  2F01               	goto	u5721
  7818     0F00  2F02               	goto	u5720
  7819     0F01                     u5721:
  7820     0F01  2EC5               	goto	l5601
  7821     0F02                     u5720:
  7822     0F02                     l5621:
  7823                           
  7824                           ;car_black_box_def.c: 437:                 j = 4;
  7825     0F02  3004               	movlw	4
  7826     0F03  00D9               	movwf	edit_time@j
  7827     0F04  3000               	movlw	0
  7828     0F05  00DA               	movwf	edit_time@j+1
  7829     0F06  2EC5               	goto	l5601
  7830     0F07                     l5625:
  7831                           
  7832                           ;car_black_box_def.c: 443:     if (++blink_delay > 10)
  7833     0F07  3001               	movlw	1
  7834     0F08  1283               	bcf	3,5	;RP0=0, select bank0
  7835     0F09  1303               	bcf	3,6	;RP1=0, select bank0
  7836     0F0A  07D7               	addwf	edit_time@blink_delay,f
  7837     0F0B  1803               	skipnc
  7838     0F0C  0AD8               	incf	edit_time@blink_delay+1,f
  7839     0F0D  3000               	movlw	0
  7840     0F0E  07D8               	addwf	edit_time@blink_delay+1,f
  7841     0F0F  0858               	movf	edit_time@blink_delay+1,w
  7842     0F10  3A80               	xorlw	128
  7843     0F11  00FF               	movwf	btemp+1
  7844     0F12  3080               	movlw	128
  7845     0F13  027F               	subwf	btemp+1,w
  7846     0F14  1D03               	skipz
  7847     0F15  2F18               	goto	u5735
  7848     0F16  300B               	movlw	11
  7849     0F17  0257               	subwf	edit_time@blink_delay,w
  7850     0F18                     u5735:
  7851     0F18  1C03               	skipc
  7852     0F19  2F1B               	goto	u5731
  7853     0F1A  2F1C               	goto	u5730
  7854     0F1B                     u5731:
  7855     0F1B  2F2E               	goto	l5631
  7856     0F1C                     u5730:
  7857     0F1C                     l5627:
  7858                           
  7859                           ;car_black_box_def.c: 444:     {;car_black_box_def.c: 445:         blink_flag = !blink_f
      +                          lag;
  7860     0F1C  1283               	bcf	3,5	;RP0=0, select bank0
  7861     0F1D  1303               	bcf	3,6	;RP1=0, select bank0
  7862     0F1E  0855               	movf	edit_time@blink_flag,w
  7863     0F1F  0456               	iorwf	edit_time@blink_flag+1,w
  7864     0F20  1903               	btfsc	3,2
  7865     0F21  2F23               	goto	u5741
  7866     0F22  2F25               	goto	u5740
  7867     0F23                     u5741:
  7868     0F23  3001               	movlw	1
  7869     0F24  2F26               	goto	u5750
  7870     0F25                     u5740:
  7871     0F25  3000               	movlw	0
  7872     0F26                     u5750:
  7873     0F26  00B8               	movwf	??_edit_time
  7874     0F27  01B9               	clrf	??_edit_time+1
  7875     0F28  0838               	movf	??_edit_time,w
  7876     0F29  00D5               	movwf	edit_time@blink_flag
  7877     0F2A  0839               	movf	??_edit_time+1,w
  7878     0F2B  00D6               	movwf	edit_time@blink_flag+1
  7879     0F2C                     l5629:
  7880                           
  7881                           ;car_black_box_def.c: 446:         blink_delay = 0;
  7882     0F2C  01D7               	clrf	edit_time@blink_delay
  7883     0F2D  01D8               	clrf	edit_time@blink_delay+1
  7884     0F2E                     l5631:
  7885                           
  7886                           ;car_black_box_def.c: 449:     if (!blink_flag)
  7887     0F2E  1283               	bcf	3,5	;RP0=0, select bank0
  7888     0F2F  1303               	bcf	3,6	;RP1=0, select bank0
  7889     0F30  0855               	movf	edit_time@blink_flag,w
  7890     0F31  0456               	iorwf	edit_time@blink_flag+1,w
  7891     0F32  1D03               	btfss	3,2
  7892     0F33  2F35               	goto	u5761
  7893     0F34  2F36               	goto	u5760
  7894     0F35                     u5761:
  7895     0F35  2FEB               	goto	l5635
  7896     0F36                     u5760:
  7897     0F36                     l5633:
  7898                           
  7899                           ;car_black_box_def.c: 450:     {;car_black_box_def.c: 451:         clcd_putch(new_hr / 1
      +                          0 + '0', (0xC0 + 4));
  7900     0F36  30C4               	movlw	196
  7901     0F37  00B6               	movwf	clcd_putch@addr
  7902     0F38  300A               	movlw	10
  7903     0F39  00F3               	movwf	___awdiv@divisor
  7904     0F3A  3000               	movlw	0
  7905     0F3B  00F4               	movwf	___awdiv@divisor+1
  7906     0F3C  0865               	movf	_new_hr,w
  7907     0F3D  00B8               	movwf	??_edit_time
  7908     0F3E  01B9               	clrf	??_edit_time+1
  7909     0F3F  0838               	movf	??_edit_time,w
  7910     0F40  00F5               	movwf	___awdiv@dividend
  7911     0F41  0839               	movf	??_edit_time+1,w
  7912     0F42  00F6               	movwf	___awdiv@dividend+1
  7913     0F43  120A  118A  278C  120A  158A  	fcall	___awdiv
  7914     0F48  0873               	movf	?___awdiv,w
  7915     0F49  3E30               	addlw	48
  7916     0F4A  160A  158A  27B0  120A  158A  	fcall	_clcd_putch
  7917                           
  7918                           ;car_black_box_def.c: 452:         clcd_putch(new_hr % 10 + '0', (0xC0 + 5));
  7919     0F4F  30C5               	movlw	197
  7920     0F50  1283               	bcf	3,5	;RP0=0, select bank0
  7921     0F51  1303               	bcf	3,6	;RP1=0, select bank0
  7922     0F52  00B6               	movwf	clcd_putch@addr
  7923     0F53  300A               	movlw	10
  7924     0F54  00F3               	movwf	___awmod@divisor
  7925     0F55  3000               	movlw	0
  7926     0F56  00F4               	movwf	___awmod@divisor+1
  7927     0F57  0865               	movf	_new_hr,w
  7928     0F58  00B8               	movwf	??_edit_time
  7929     0F59  01B9               	clrf	??_edit_time+1
  7930     0F5A  0838               	movf	??_edit_time,w
  7931     0F5B  00F5               	movwf	___awmod@dividend
  7932     0F5C  0839               	movf	??_edit_time+1,w
  7933     0F5D  00F6               	movwf	___awmod@dividend+1
  7934     0F5E  160A  118A  2627  120A  158A  	fcall	___awmod
  7935     0F63  0873               	movf	?___awmod,w
  7936     0F64  3E30               	addlw	48
  7937     0F65  160A  158A  27B0  120A  158A  	fcall	_clcd_putch
  7938                           
  7939                           ;car_black_box_def.c: 453:         clcd_putch(':', (0xC0 + 6));
  7940     0F6A  30C6               	movlw	198
  7941     0F6B  1283               	bcf	3,5	;RP0=0, select bank0
  7942     0F6C  1303               	bcf	3,6	;RP1=0, select bank0
  7943     0F6D  00B6               	movwf	clcd_putch@addr
  7944     0F6E  303A               	movlw	58
  7945     0F6F  160A  158A  27B0  120A  158A  	fcall	_clcd_putch
  7946                           
  7947                           ;car_black_box_def.c: 454:         clcd_putch(new_min / 10 + '0', (0xC0 + 7));
  7948     0F74  30C7               	movlw	199
  7949     0F75  1283               	bcf	3,5	;RP0=0, select bank0
  7950     0F76  1303               	bcf	3,6	;RP1=0, select bank0
  7951     0F77  00B6               	movwf	clcd_putch@addr
  7952     0F78  300A               	movlw	10
  7953     0F79  00F3               	movwf	___awdiv@divisor
  7954     0F7A  3000               	movlw	0
  7955     0F7B  00F4               	movwf	___awdiv@divisor+1
  7956     0F7C  0866               	movf	_new_min,w
  7957     0F7D  00B8               	movwf	??_edit_time
  7958     0F7E  01B9               	clrf	??_edit_time+1
  7959     0F7F  0838               	movf	??_edit_time,w
  7960     0F80  00F5               	movwf	___awdiv@dividend
  7961     0F81  0839               	movf	??_edit_time+1,w
  7962     0F82  00F6               	movwf	___awdiv@dividend+1
  7963     0F83  120A  118A  278C  120A  158A  	fcall	___awdiv
  7964     0F88  0873               	movf	?___awdiv,w
  7965     0F89  3E30               	addlw	48
  7966     0F8A  160A  158A  27B0  120A  158A  	fcall	_clcd_putch
  7967                           
  7968                           ;car_black_box_def.c: 455:         clcd_putch(new_min % 10 + '0', (0xC0 + 8));
  7969     0F8F  30C8               	movlw	200
  7970     0F90  1283               	bcf	3,5	;RP0=0, select bank0
  7971     0F91  1303               	bcf	3,6	;RP1=0, select bank0
  7972     0F92  00B6               	movwf	clcd_putch@addr
  7973     0F93  300A               	movlw	10
  7974     0F94  00F3               	movwf	___awmod@divisor
  7975     0F95  3000               	movlw	0
  7976     0F96  00F4               	movwf	___awmod@divisor+1
  7977     0F97  0866               	movf	_new_min,w
  7978     0F98  00B8               	movwf	??_edit_time
  7979     0F99  01B9               	clrf	??_edit_time+1
  7980     0F9A  0838               	movf	??_edit_time,w
  7981     0F9B  00F5               	movwf	___awmod@dividend
  7982     0F9C  0839               	movf	??_edit_time+1,w
  7983     0F9D  00F6               	movwf	___awmod@dividend+1
  7984     0F9E  160A  118A  2627  120A  158A  	fcall	___awmod
  7985     0FA3  0873               	movf	?___awmod,w
  7986     0FA4  3E30               	addlw	48
  7987     0FA5  160A  158A  27B0  120A  158A  	fcall	_clcd_putch
  7988                           
  7989                           ;car_black_box_def.c: 456:         clcd_putch(':', (0xC0 + 9));
  7990     0FAA  30C9               	movlw	201
  7991     0FAB  1283               	bcf	3,5	;RP0=0, select bank0
  7992     0FAC  1303               	bcf	3,6	;RP1=0, select bank0
  7993     0FAD  00B6               	movwf	clcd_putch@addr
  7994     0FAE  303A               	movlw	58
  7995     0FAF  160A  158A  27B0  120A  158A  	fcall	_clcd_putch
  7996                           
  7997                           ;car_black_box_def.c: 457:         clcd_putch(new_sec / 10 + '0', (0xC0 + 10));
  7998     0FB4  30CA               	movlw	202
  7999     0FB5  1283               	bcf	3,5	;RP0=0, select bank0
  8000     0FB6  1303               	bcf	3,6	;RP1=0, select bank0
  8001     0FB7  00B6               	movwf	clcd_putch@addr
  8002     0FB8  300A               	movlw	10
  8003     0FB9  00F3               	movwf	___awdiv@divisor
  8004     0FBA  3000               	movlw	0
  8005     0FBB  00F4               	movwf	___awdiv@divisor+1
  8006     0FBC  0867               	movf	_new_sec,w
  8007     0FBD  00B8               	movwf	??_edit_time
  8008     0FBE  01B9               	clrf	??_edit_time+1
  8009     0FBF  0838               	movf	??_edit_time,w
  8010     0FC0  00F5               	movwf	___awdiv@dividend
  8011     0FC1  0839               	movf	??_edit_time+1,w
  8012     0FC2  00F6               	movwf	___awdiv@dividend+1
  8013     0FC3  120A  118A  278C  120A  158A  	fcall	___awdiv
  8014     0FC8  0873               	movf	?___awdiv,w
  8015     0FC9  3E30               	addlw	48
  8016     0FCA  160A  158A  27B0  120A  158A  	fcall	_clcd_putch
  8017                           
  8018                           ;car_black_box_def.c: 458:         clcd_putch(new_sec % 10 + '0', (0xC0 + 11));
  8019     0FCF  30CB               	movlw	203
  8020     0FD0  1283               	bcf	3,5	;RP0=0, select bank0
  8021     0FD1  1303               	bcf	3,6	;RP1=0, select bank0
  8022     0FD2  00B6               	movwf	clcd_putch@addr
  8023     0FD3  300A               	movlw	10
  8024     0FD4  00F3               	movwf	___awmod@divisor
  8025     0FD5  3000               	movlw	0
  8026     0FD6  00F4               	movwf	___awmod@divisor+1
  8027     0FD7  0867               	movf	_new_sec,w
  8028     0FD8  00B8               	movwf	??_edit_time
  8029     0FD9  01B9               	clrf	??_edit_time+1
  8030     0FDA  0838               	movf	??_edit_time,w
  8031     0FDB  00F5               	movwf	___awmod@dividend
  8032     0FDC  0839               	movf	??_edit_time+1,w
  8033     0FDD  00F6               	movwf	___awmod@dividend+1
  8034     0FDE  160A  118A  2627  120A  158A  	fcall	___awmod
  8035     0FE3  0873               	movf	?___awmod,w
  8036     0FE4  3E30               	addlw	48
  8037     0FE5  160A  158A  27B0  120A  158A  	fcall	_clcd_putch
  8038                           
  8039                           ;car_black_box_def.c: 459:     }
  8040     0FEA  2FFF               	goto	l484
  8041     0FEB                     l5635:
  8042                           
  8043                           ;car_black_box_def.c: 461:     {;car_black_box_def.c: 462:         clcd_putch(0xFF, (0xC
      +                          0 + j));
  8044     0FEB  0859               	movf	edit_time@j,w
  8045     0FEC  3EC0               	addlw	192
  8046     0FED  00B6               	movwf	clcd_putch@addr
  8047     0FEE  30FF               	movlw	255
  8048     0FEF  160A  158A  27B0  120A  158A  	fcall	_clcd_putch
  8049                           
  8050                           ;car_black_box_def.c: 463:         clcd_putch(0xFF, (0xC0 + j + 1));
  8051     0FF4  1283               	bcf	3,5	;RP0=0, select bank0
  8052     0FF5  1303               	bcf	3,6	;RP1=0, select bank0
  8053     0FF6  0859               	movf	edit_time@j,w
  8054     0FF7  3EC1               	addlw	193
  8055     0FF8  00B6               	movwf	clcd_putch@addr
  8056     0FF9  30FF               	movlw	255
  8057     0FFA  160A  158A  27B0  120A  158A  	fcall	_clcd_putch
  8058     0FFF                     l484:
  8059     0FFF  0008               	return
  8060     1000                     __end_of_edit_time:
  8061                           
  8062                           	psect	text27
  8063     124B                     __ptext27:	
  8064 ;; *************** function _strcpy *****************
  8065 ;; Defined at:
  8066 ;;		line 8 in file "C:\Program Files\Microchip\xc8\v2.40\pic\sources\c90\common\strcpy.c"
  8067 ;; Parameters:    Size  Location     Type
  8068 ;;  to              2    3[COMMON] PTR unsigned char 
  8069 ;;		 -> edit_time@new_time(7), main@event(3), 
  8070 ;;  from            2    5[COMMON] PTR const unsigned char 
  8071 ;;		 -> time(7), STR_11(3), STR_6(3), STR_5(3), 
  8072 ;;		 -> STR_4(3), STR_3(3), STR_2(3), STR_1(3), 
  8073 ;; Auto vars:     Size  Location     Type
  8074 ;;  cp              2    0[BANK0 ] PTR unsigned char 
  8075 ;;		 -> edit_time@new_time(7), main@event(3), 
  8076 ;; Return value:  Size  Location     Type
  8077 ;;                  2    3[COMMON] PTR unsigned char 
  8078 ;; Registers used:
  8079 ;;		wreg, fsr0l, fsr0h, status,2, status,0, btemp+1, pclath
  8080 ;; Tracked objects:
  8081 ;;		On entry : 0/0
  8082 ;;		On exit  : 0/0
  8083 ;;		Unchanged: 0/0
  8084 ;; Data sizes:     COMMON   BANK0   BANK1   BANK3   BANK2
  8085 ;;      Params:         4       0       0       0       0
  8086 ;;      Locals:         0       2       0       0       0
  8087 ;;      Temps:          1       0       0       0       0
  8088 ;;      Totals:         5       2       0       0       0
  8089 ;;Total ram usage:        7 bytes
  8090 ;; Hardware stack levels used: 2
  8091 ;; Hardware stack levels required when called: 1
  8092 ;; This function calls:
  8093 ;;		Nothing
  8094 ;; This function is called by:
  8095 ;;		_main
  8096 ;;		_edit_time
  8097 ;; This function uses a non-reentrant model
  8098 ;;
  8099                           
  8100     124B                     _strcpy:	
  8101                           ;psect for function _strcpy
  8102                           
  8103     124B                     l5523:	
  8104                           ;incstack = 0
  8105                           ; Regs used in _strcpy: [wreg-fsr0h+status,2+status,0+btemp+1+pclath]
  8106                           
  8107     124B  0873               	movf	strcpy@to,w
  8108     124C  1283               	bcf	3,5	;RP0=0, select bank0
  8109     124D  1303               	bcf	3,6	;RP1=0, select bank0
  8110     124E  00A0               	movwf	strcpy@cp
  8111     124F  0874               	movf	strcpy@to+1,w
  8112     1250  00A1               	movwf	strcpy@cp+1
  8113     1251  2A5E               	goto	l5527
  8114     1252                     l5525:
  8115     1252  3001               	movlw	1
  8116     1253  07A0               	addwf	strcpy@cp,f
  8117     1254  1803               	skipnc
  8118     1255  0AA1               	incf	strcpy@cp+1,f
  8119     1256  3000               	movlw	0
  8120     1257  07A1               	addwf	strcpy@cp+1,f
  8121     1258  3001               	movlw	1
  8122     1259  07F5               	addwf	strcpy@from,f
  8123     125A  1803               	skipnc
  8124     125B  0AF6               	incf	strcpy@from+1,f
  8125     125C  3000               	movlw	0
  8126     125D  07F6               	addwf	strcpy@from+1,f
  8127     125E                     l5527:
  8128     125E  0876               	movf	strcpy@from+1,w
  8129     125F  00FF               	movwf	btemp+1
  8130     1260  0875               	movf	strcpy@from,w
  8131     1261  0084               	movwf	4
  8132     1262  160A  158A  2000  160A  118A  	fcall	stringtab
  8133     1267  00F7               	movwf	??_strcpy
  8134     1268  0820               	movf	strcpy@cp,w
  8135     1269  0084               	movwf	4
  8136     126A  1783               	bsf	3,7
  8137     126B  1C21               	btfss	strcpy@cp+1,0
  8138     126C  1383               	bcf	3,7
  8139     126D  0877               	movf	??_strcpy,w
  8140     126E  0080               	movwf	0
  8141     126F  0800               	movf	0,w
  8142     1270  1D03               	btfss	3,2
  8143     1271  2A73               	goto	u5551
  8144     1272  2A74               	goto	u5550
  8145     1273                     u5551:
  8146     1273  2A52               	goto	l5525
  8147     1274                     u5550:
  8148     1274                     l1158:
  8149     1274  0008               	return
  8150     1275                     __end_of_strcpy:
  8151                           
  8152                           	psect	text28
  8153     179C                     __ptext28:	
  8154 ;; *************** function _download_log *****************
  8155 ;; Defined at:
  8156 ;;		line 363 in file "car_black_box_def.c"
  8157 ;; Parameters:    Size  Location     Type
  8158 ;;		None
  8159 ;; Auto vars:     Size  Location     Type
  8160 ;;  i               1    8[COMMON] unsigned char 
  8161 ;; Return value:  Size  Location     Type
  8162 ;;                  1    wreg      void 
  8163 ;; Registers used:
  8164 ;;		wreg, fsr0l, fsr0h, status,2, status,0, btemp+1, pclath, cstack
  8165 ;; Tracked objects:
  8166 ;;		On entry : 0/0
  8167 ;;		On exit  : 0/0
  8168 ;;		Unchanged: 0/0
  8169 ;; Data sizes:     COMMON   BANK0   BANK1   BANK3   BANK2
  8170 ;;      Params:         0       0       0       0       0
  8171 ;;      Locals:         1       0       0       0       0
  8172 ;;      Temps:          0       3       0       0       0
  8173 ;;      Totals:         1       3       0       0       0
  8174 ;;Total ram usage:        4 bytes
  8175 ;; Hardware stack levels used: 1
  8176 ;; Hardware stack levels required when called: 6
  8177 ;; This function calls:
  8178 ;;		_clcd_print
  8179 ;;		_display_log_in_uart
  8180 ;;		_get_saved_log
  8181 ;; This function is called by:
  8182 ;;		_main
  8183 ;; This function uses a non-reentrant model
  8184 ;;
  8185                           
  8186     179C                     _download_log:	
  8187                           ;psect for function _download_log
  8188                           
  8189     179C                     l4873:	
  8190                           ;incstack = 0
  8191                           ; Regs used in _download_log: [wreg-fsr0h+status,2+status,0+btemp+1+pclath+cstack]
  8192                           
  8193                           
  8194                           ;car_black_box_def.c: 365:     char i = 1;
  8195     179C  01F8               	clrf	download_log@i
  8196     179D  0AF8               	incf	download_log@i,f
  8197     179E                     l4875:
  8198                           
  8199                           ;car_black_box_def.c: 367:     if (log_count > 0)
  8200     179E  0879               	movf	_log_count,w
  8201     179F  1903               	btfsc	3,2
  8202     17A0  2FA2               	goto	u4811
  8203     17A1  2FA3               	goto	u4810
  8204     17A2                     u4811:
  8205     17A2  2FD7               	goto	l4889
  8206     17A3                     u4810:
  8207     17A3  2FB6               	goto	l4885
  8208     17A4                     l4879:
  8209                           
  8210                           ;car_black_box_def.c: 370:         {;car_black_box_def.c: 371:             get_saved_log
      +                          (i);
  8211     17A4  0878               	movf	download_log@i,w
  8212     17A5  160A  118A  26DD  160A  118A  	fcall	_get_saved_log
  8213     17AA                     l4881:
  8214                           
  8215                           ;car_black_box_def.c: 372:             display_log_in_uart(i);
  8216     17AA  0878               	movf	download_log@i,w
  8217     17AB  120A  158A  210C  160A  118A  	fcall	_display_log_in_uart
  8218     17B0                     l4883:
  8219                           
  8220                           ;car_black_box_def.c: 373:             i++;
  8221     17B0  3001               	movlw	1
  8222     17B1  1283               	bcf	3,5	;RP0=0, select bank0
  8223     17B2  1303               	bcf	3,6	;RP1=0, select bank0
  8224     17B3  00A3               	movwf	??_download_log
  8225     17B4  0823               	movf	??_download_log,w
  8226     17B5  07F8               	addwf	download_log@i,f
  8227     17B6                     l4885:
  8228                           
  8229                           ;car_black_box_def.c: 369:         while (i <= log_count)
  8230     17B6  0878               	movf	download_log@i,w
  8231     17B7  0279               	subwf	_log_count,w
  8232     17B8  1803               	skipnc
  8233     17B9  2FBB               	goto	u4821
  8234     17BA  2FBC               	goto	u4820
  8235     17BB                     u4821:
  8236     17BB  2FA4               	goto	l4879
  8237     17BC                     u4820:
  8238     17BC                     l4887:
  8239                           
  8240                           ;car_black_box_def.c: 375:         clcd_print(" LOGS DISPLAYED ", (0x80 + 0));
  8241     17BC  3033               	movlw	low (STR_29| (0+32768))
  8242     17BD  1283               	bcf	3,5	;RP0=0, select bank0
  8243     17BE  1303               	bcf	3,6	;RP1=0, select bank0
  8244     17BF  00A0               	movwf	clcd_print@str
  8245     17C0  3090               	movlw	high (STR_29| (0+32768))
  8246     17C1  00A1               	movwf	clcd_print@str+1
  8247     17C2  3080               	movlw	128
  8248     17C3  00A2               	movwf	clcd_print@addr
  8249     17C4  160A  118A  23B8  160A  118A  	fcall	_clcd_print
  8250                           
  8251                           ;car_black_box_def.c: 376:         clcd_print("     IN UART    ", (0xC0 + 0));
  8252     17C9  3011               	movlw	low (STR_30| (0+32768))
  8253     17CA  1283               	bcf	3,5	;RP0=0, select bank0
  8254     17CB  1303               	bcf	3,6	;RP1=0, select bank0
  8255     17CC  00A0               	movwf	clcd_print@str
  8256     17CD  3090               	movlw	high (STR_30| (0+32768))
  8257     17CE  00A1               	movwf	clcd_print@str+1
  8258     17CF  30C0               	movlw	192
  8259     17D0  00A2               	movwf	clcd_print@addr
  8260     17D1  160A  118A  23B8  160A  118A  	fcall	_clcd_print
  8261                           
  8262                           ;car_black_box_def.c: 377:     }
  8263     17D6  2FF1               	goto	l4891
  8264     17D7                     l4889:
  8265                           
  8266                           ;car_black_box_def.c: 379:     {;car_black_box_def.c: 380:         clcd_print("     NO L
      +                          OGS    ", (0x80 + 0));
  8267     17D7  3000               	movlw	low (STR_25| (0+32768))
  8268     17D8  1283               	bcf	3,5	;RP0=0, select bank0
  8269     17D9  1303               	bcf	3,6	;RP1=0, select bank0
  8270     17DA  00A0               	movwf	clcd_print@str
  8271     17DB  3090               	movlw	high (STR_25| (0+32768))
  8272     17DC  00A1               	movwf	clcd_print@str+1
  8273     17DD  3080               	movlw	128
  8274     17DE  00A2               	movwf	clcd_print@addr
  8275     17DF  160A  118A  23B8  160A  118A  	fcall	_clcd_print
  8276                           
  8277                           ;car_black_box_def.c: 381:         clcd_print("  ARE AVAILABLE ", (0xC0 + 0));
  8278     17E4  3044               	movlw	low (STR_26| (0+32768))
  8279     17E5  1283               	bcf	3,5	;RP0=0, select bank0
  8280     17E6  1303               	bcf	3,6	;RP1=0, select bank0
  8281     17E7  00A0               	movwf	clcd_print@str
  8282     17E8  3090               	movlw	high (STR_26| (0+32768))
  8283     17E9  00A1               	movwf	clcd_print@str+1
  8284     17EA  30C0               	movlw	192
  8285     17EB  00A2               	movwf	clcd_print@addr
  8286     17EC  160A  118A  23B8  160A  118A  	fcall	_clcd_print
  8287     17F1                     l4891:
  8288                           
  8289                           ;car_black_box_def.c: 383:     _delay((unsigned long)((3000)*(20000000/4000.0)));
  8290     17F1  304D               	movlw	77
  8291     17F2  1283               	bcf	3,5	;RP0=0, select bank0
  8292     17F3  1303               	bcf	3,6	;RP1=0, select bank0
  8293     17F4  00A5               	movwf	??_download_log+2
  8294     17F5  3019               	movlw	25
  8295     17F6  00A4               	movwf	??_download_log+1
  8296     17F7  304F               	movlw	79
  8297     17F8  00A3               	movwf	??_download_log
  8298     17F9                     u6297:
  8299     17F9  0BA3               	decfsz	??_download_log,f
  8300     17FA  2FF9               	goto	u6297
  8301     17FB  0BA4               	decfsz	??_download_log+1,f
  8302     17FC  2FF9               	goto	u6297
  8303     17FD  0BA5               	decfsz	??_download_log+2,f
  8304     17FE  2FF9               	goto	u6297
  8305     17FF                     l450:
  8306     17FF  0008               	return
  8307     1800                     __end_of_download_log:
  8308                           
  8309                           	psect	text29
  8310     16DD                     __ptext29:	
  8311 ;; *************** function _get_saved_log *****************
  8312 ;; Defined at:
  8313 ;;		line 238 in file "car_black_box_def.c"
  8314 ;; Parameters:    Size  Location     Type
  8315 ;;  log_pos         1    wreg     unsigned char 
  8316 ;; Auto vars:     Size  Location     Type
  8317 ;;  log_pos         1    0[BANK0 ] unsigned char 
  8318 ;;  i               1    2[BANK0 ] unsigned char 
  8319 ;;  addr            1    1[BANK0 ] unsigned char 
  8320 ;; Return value:  Size  Location     Type
  8321 ;;                  1    wreg      void 
  8322 ;; Registers used:
  8323 ;;		wreg, fsr0l, fsr0h, status,2, status,0, pclath, cstack
  8324 ;; Tracked objects:
  8325 ;;		On entry : 0/0
  8326 ;;		On exit  : 0/0
  8327 ;;		Unchanged: 0/0
  8328 ;; Data sizes:     COMMON   BANK0   BANK1   BANK3   BANK2
  8329 ;;      Params:         0       0       0       0       0
  8330 ;;      Locals:         0       3       0       0       0
  8331 ;;      Temps:          1       0       0       0       0
  8332 ;;      Totals:         1       3       0       0       0
  8333 ;;Total ram usage:        4 bytes
  8334 ;; Hardware stack levels used: 1
  8335 ;; Hardware stack levels required when called: 5
  8336 ;; This function calls:
  8337 ;;		___bmul
  8338 ;;		_ext_eeprom_24C02_read
  8339 ;; This function is called by:
  8340 ;;		_view_log
  8341 ;;		_download_log
  8342 ;; This function uses a non-reentrant model
  8343 ;;
  8344                           
  8345     16DD                     _get_saved_log:	
  8346                           ;psect for function _get_saved_log
  8347                           
  8348                           
  8349                           ;incstack = 0
  8350                           ; Regs used in _get_saved_log: [wreg-fsr0h+status,2+status,0+pclath+cstack]
  8351                           ;get_saved_log@log_pos stored from wreg
  8352     16DD  1283               	bcf	3,5	;RP0=0, select bank0
  8353     16DE  1303               	bcf	3,6	;RP1=0, select bank0
  8354     16DF  00A0               	movwf	get_saved_log@log_pos
  8355     16E0                     l4367:
  8356                           
  8357                           ;car_black_box_def.c: 238: void get_saved_log(char log_pos);car_black_box_def.c: 239: {;
      +                          car_black_box_def.c: 240:     unsigned char addr, i;;car_black_box_def.c: 241:     addr 
      +                          = (log_pos - 1) * 10 + 5;
  8358     16E0  300A               	movlw	10
  8359     16E1  00F3               	movwf	___bmul@multiplicand
  8360     16E2  0820               	movf	get_saved_log@log_pos,w
  8361     16E3  160A  158A  27D6  160A  118A  	fcall	___bmul
  8362     16E8  3EFB               	addlw	251
  8363     16E9  1283               	bcf	3,5	;RP0=0, select bank0
  8364     16EA  1303               	bcf	3,6	;RP1=0, select bank0
  8365     16EB  00A1               	movwf	get_saved_log@addr
  8366     16EC                     l4369:
  8367                           
  8368                           ;car_black_box_def.c: 243:     for (i = 0 ; i < 6 ; i++)
  8369     16EC  01A2               	clrf	get_saved_log@i
  8370     16ED                     l4375:
  8371                           
  8372                           ;car_black_box_def.c: 244:     {;car_black_box_def.c: 245:         saved_time[i] = ext_e
      +                          eprom_24C02_read(addr + i);
  8373     16ED  0822               	movf	get_saved_log@i,w
  8374     16EE  3EA0               	addlw	(low (_saved_time| 0))& (0+255)
  8375     16EF  0084               	movwf	4
  8376     16F0  0822               	movf	get_saved_log@i,w
  8377     16F1  0721               	addwf	get_saved_log@addr,w
  8378     16F2  160A  118A  22CA  160A  118A  	fcall	_ext_eeprom_24C02_read
  8379     16F7  1383               	bcf	3,7	;select IRP bank1
  8380     16F8  0080               	movwf	0
  8381     16F9                     l4377:
  8382                           
  8383                           ;car_black_box_def.c: 246:     }
  8384     16F9  3001               	movlw	1
  8385     16FA  00F7               	movwf	??_get_saved_log
  8386     16FB  0877               	movf	??_get_saved_log,w
  8387     16FC  1283               	bcf	3,5	;RP0=0, select bank0
  8388     16FD  1303               	bcf	3,6	;RP1=0, select bank0
  8389     16FE  07A2               	addwf	get_saved_log@i,f
  8390     16FF                     l4379:
  8391     16FF  3006               	movlw	6
  8392     1700  0222               	subwf	get_saved_log@i,w
  8393     1701  1C03               	skipc
  8394     1702  2F04               	goto	u4041
  8395     1703  2F05               	goto	u4040
  8396     1704                     u4041:
  8397     1704  2EED               	goto	l4375
  8398     1705                     u4040:
  8399     1705                     l4381:
  8400                           
  8401                           ;car_black_box_def.c: 247:     saved_time[i] = '\0';
  8402     1705  0822               	movf	get_saved_log@i,w
  8403     1706  3EA0               	addlw	(low (_saved_time| 0))& (0+255)
  8404     1707  0084               	movwf	4
  8405     1708  0180               	clrf	0
  8406     1709                     l4383:
  8407                           
  8408                           ;car_black_box_def.c: 249:     saved_event[0] = ext_eeprom_24C02_read(addr + 6);
  8409     1709  0821               	movf	get_saved_log@addr,w
  8410     170A  3E06               	addlw	6
  8411     170B  160A  118A  22CA  160A  118A  	fcall	_ext_eeprom_24C02_read
  8412     1710  1683               	bsf	3,5	;RP0=1, select bank1
  8413     1711  1303               	bcf	3,6	;RP1=0, select bank1
  8414     1712  00A7               	movwf	_saved_event^(0+128)
  8415     1713                     l4385:
  8416                           
  8417                           ;car_black_box_def.c: 250:     saved_event[1] = ext_eeprom_24C02_read(addr + 7);
  8418     1713  1283               	bcf	3,5	;RP0=0, select bank0
  8419     1714  1303               	bcf	3,6	;RP1=0, select bank0
  8420     1715  0821               	movf	get_saved_log@addr,w
  8421     1716  3E07               	addlw	7
  8422     1717  160A  118A  22CA  160A  118A  	fcall	_ext_eeprom_24C02_read
  8423     171C  1683               	bsf	3,5	;RP0=1, select bank1
  8424     171D  1303               	bcf	3,6	;RP1=0, select bank1
  8425     171E  00A8               	movwf	(_saved_event^(0+128)+1)
  8426     171F                     l4387:
  8427                           
  8428                           ;car_black_box_def.c: 251:     saved_event[2] = '\0';
  8429     171F  01A9               	clrf	(_saved_event^(0+128)+2)
  8430     1720                     l4389:
  8431                           
  8432                           ;car_black_box_def.c: 253:     saved_speed[0] = ext_eeprom_24C02_read(addr + 8);
  8433     1720  1283               	bcf	3,5	;RP0=0, select bank0
  8434     1721  1303               	bcf	3,6	;RP1=0, select bank0
  8435     1722  0821               	movf	get_saved_log@addr,w
  8436     1723  3E08               	addlw	8
  8437     1724  160A  118A  22CA  160A  118A  	fcall	_ext_eeprom_24C02_read
  8438     1729  1683               	bsf	3,5	;RP0=1, select bank1
  8439     172A  1303               	bcf	3,6	;RP1=0, select bank1
  8440     172B  00AA               	movwf	_saved_speed^(0+128)
  8441     172C                     l4391:
  8442                           
  8443                           ;car_black_box_def.c: 254:     saved_speed[1] = ext_eeprom_24C02_read(addr + 9);
  8444     172C  1283               	bcf	3,5	;RP0=0, select bank0
  8445     172D  1303               	bcf	3,6	;RP1=0, select bank0
  8446     172E  0821               	movf	get_saved_log@addr,w
  8447     172F  3E09               	addlw	9
  8448     1730  160A  118A  22CA  160A  118A  	fcall	_ext_eeprom_24C02_read
  8449     1735  1683               	bsf	3,5	;RP0=1, select bank1
  8450     1736  1303               	bcf	3,6	;RP1=0, select bank1
  8451     1737  00AB               	movwf	(_saved_speed^(0+128)+1)
  8452     1738                     l4393:
  8453                           
  8454                           ;car_black_box_def.c: 255:     saved_speed[2] = '\0';
  8455     1738  01AC               	clrf	(_saved_speed^(0+128)+2)
  8456     1739                     l417:
  8457     1739  0008               	return
  8458     173A                     __end_of_get_saved_log:
  8459                           
  8460                           	psect	text30
  8461     12CA                     __ptext30:	
  8462 ;; *************** function _ext_eeprom_24C02_read *****************
  8463 ;; Defined at:
  8464 ;;		line 4 in file "EEprom.c"
  8465 ;; Parameters:    Size  Location     Type
  8466 ;;  addr            1    wreg     unsigned char 
  8467 ;; Auto vars:     Size  Location     Type
  8468 ;;  addr            1    5[COMMON] unsigned char 
  8469 ;;  data            1    6[COMMON] unsigned char 
  8470 ;; Return value:  Size  Location     Type
  8471 ;;                  1    wreg      unsigned char 
  8472 ;; Registers used:
  8473 ;;		wreg, status,2, status,0, pclath, cstack
  8474 ;; Tracked objects:
  8475 ;;		On entry : 0/0
  8476 ;;		On exit  : 0/0
  8477 ;;		Unchanged: 0/0
  8478 ;; Data sizes:     COMMON   BANK0   BANK1   BANK3   BANK2
  8479 ;;      Params:         0       0       0       0       0
  8480 ;;      Locals:         2       0       0       0       0
  8481 ;;      Temps:          0       0       0       0       0
  8482 ;;      Totals:         2       0       0       0       0
  8483 ;;Total ram usage:        2 bytes
  8484 ;; Hardware stack levels used: 1
  8485 ;; Hardware stack levels required when called: 4
  8486 ;; This function calls:
  8487 ;;		_i2c_read
  8488 ;;		_i2c_rep_start
  8489 ;;		_i2c_start
  8490 ;;		_i2c_stop
  8491 ;;		_i2c_write
  8492 ;; This function is called by:
  8493 ;;		_login
  8494 ;;		_get_saved_log
  8495 ;; This function uses a non-reentrant model
  8496 ;;
  8497                           
  8498     12CA                     _ext_eeprom_24C02_read:	
  8499                           ;psect for function _ext_eeprom_24C02_read
  8500                           
  8501                           
  8502                           ;incstack = 0
  8503                           ; Regs used in _ext_eeprom_24C02_read: [wreg+status,2+status,0+pclath+cstack]
  8504                           ;ext_eeprom_24C02_read@addr stored from wreg
  8505     12CA  00F5               	movwf	ext_eeprom_24C02_read@addr
  8506     12CB                     l4213:
  8507                           
  8508                           ;EEprom.c: 4: unsigned char ext_eeprom_24C02_read(unsigned char addr);EEprom.c: 5: {;EEp
      +                          rom.c: 6:     unsigned char data;;EEprom.c: 8:     i2c_start();
  8509     12CB  160A  158A  2756  160A  118A  	fcall	_i2c_start
  8510                           
  8511                           ;EEprom.c: 9:     i2c_write(0b10100000);
  8512     12D0  30A0               	movlw	160
  8513     12D1  160A  158A  275F  160A  118A  	fcall	_i2c_write
  8514                           
  8515                           ;EEprom.c: 10:     i2c_write(addr);
  8516     12D6  0875               	movf	ext_eeprom_24C02_read@addr,w
  8517     12D7  160A  158A  275F  160A  118A  	fcall	_i2c_write
  8518                           
  8519                           ;EEprom.c: 11:     i2c_rep_start();
  8520     12DC  160A  158A  276A  160A  118A  	fcall	_i2c_rep_start
  8521                           
  8522                           ;EEprom.c: 12:     i2c_write(0b10100001);
  8523     12E1  30A1               	movlw	161
  8524     12E2  160A  158A  275F  160A  118A  	fcall	_i2c_write
  8525                           
  8526                           ;EEprom.c: 13:     data = i2c_read(0);
  8527     12E7  3000               	movlw	0
  8528     12E8  160A  118A  21E2  160A  118A  	fcall	_i2c_read
  8529     12ED  00F6               	movwf	ext_eeprom_24C02_read@data
  8530                           
  8531                           ;EEprom.c: 14:     i2c_stop();
  8532     12EE  120A  158A  2000  160A  118A  	fcall	_i2c_stop
  8533     12F3                     l4215:
  8534                           
  8535                           ;EEprom.c: 16:     return data;
  8536     12F3  0876               	movf	ext_eeprom_24C02_read@data,w
  8537     12F4                     l524:
  8538     12F4  0008               	return
  8539     12F5                     __end_of_ext_eeprom_24C02_read:
  8540                           
  8541                           	psect	text31
  8542     1FD6                     __ptext31:	
  8543 ;; *************** function ___bmul *****************
  8544 ;; Defined at:
  8545 ;;		line 4 in file "C:\Program Files\Microchip\xc8\v2.40\pic\sources\c90\common\Umul8.c"
  8546 ;; Parameters:    Size  Location     Type
  8547 ;;  multiplier      1    wreg     unsigned char 
  8548 ;;  multiplicand    1    3[COMMON] unsigned char 
  8549 ;; Auto vars:     Size  Location     Type
  8550 ;;  multiplier      1    6[COMMON] unsigned char 
  8551 ;;  product         1    5[COMMON] unsigned char 
  8552 ;; Return value:  Size  Location     Type
  8553 ;;                  1    wreg      unsigned char 
  8554 ;; Registers used:
  8555 ;;		wreg, status,2, status,0
  8556 ;; Tracked objects:
  8557 ;;		On entry : 0/0
  8558 ;;		On exit  : 0/0
  8559 ;;		Unchanged: 0/0
  8560 ;; Data sizes:     COMMON   BANK0   BANK1   BANK3   BANK2
  8561 ;;      Params:         1       0       0       0       0
  8562 ;;      Locals:         2       0       0       0       0
  8563 ;;      Temps:          1       0       0       0       0
  8564 ;;      Totals:         4       0       0       0       0
  8565 ;;Total ram usage:        4 bytes
  8566 ;; Hardware stack levels used: 1
  8567 ;; Hardware stack levels required when called: 1
  8568 ;; This function calls:
  8569 ;;		Nothing
  8570 ;; This function is called by:
  8571 ;;		_log_event
  8572 ;;		_get_saved_log
  8573 ;;		_edit_time
  8574 ;; This function uses a non-reentrant model
  8575 ;;
  8576                           
  8577     1FD6                     ___bmul:	
  8578                           ;psect for function ___bmul
  8579                           
  8580                           
  8581                           ;incstack = 0
  8582                           ; Regs used in ___bmul: [wreg+status,2+status,0]
  8583                           ;___bmul@multiplier stored from wreg
  8584     1FD6  00F6               	movwf	___bmul@multiplier
  8585     1FD7                     l4221:
  8586     1FD7  01F5               	clrf	___bmul@product
  8587     1FD8                     l4223:
  8588     1FD8  1C76               	btfss	___bmul@multiplier,0
  8589     1FD9  2FDB               	goto	u3821
  8590     1FDA  2FDC               	goto	u3820
  8591     1FDB                     u3821:
  8592     1FDB  2FE0               	goto	l4227
  8593     1FDC                     u3820:
  8594     1FDC                     l4225:
  8595     1FDC  0873               	movf	___bmul@multiplicand,w
  8596     1FDD  00F4               	movwf	??___bmul
  8597     1FDE  0874               	movf	??___bmul,w
  8598     1FDF  07F5               	addwf	___bmul@product,f
  8599     1FE0                     l4227:
  8600     1FE0  1003               	clrc
  8601     1FE1  0DF3               	rlf	___bmul@multiplicand,f
  8602     1FE2                     l4229:
  8603     1FE2  1003               	clrc
  8604     1FE3  0CF6               	rrf	___bmul@multiplier,f
  8605     1FE4  0876               	movf	___bmul@multiplier,w
  8606     1FE5  1D03               	btfss	3,2
  8607     1FE6  2FE8               	goto	u3831
  8608     1FE7  2FE9               	goto	u3830
  8609     1FE8                     u3831:
  8610     1FE8  2FD8               	goto	l4223
  8611     1FE9                     u3830:
  8612     1FE9                     l4231:
  8613     1FE9  0875               	movf	___bmul@product,w
  8614     1FEA                     l722:
  8615     1FEA  0008               	return
  8616     1FEB                     __end_of___bmul:
  8617                           
  8618                           	psect	text32
  8619     090C                     __ptext32:	
  8620 ;; *************** function _display_log_in_uart *****************
  8621 ;; Defined at:
  8622 ;;		line 342 in file "car_black_box_def.c"
  8623 ;; Parameters:    Size  Location     Type
  8624 ;;  log_pos         1    wreg     unsigned char 
  8625 ;; Auto vars:     Size  Location     Type
  8626 ;;  log_pos         1    4[COMMON] unsigned char 
  8627 ;; Return value:  Size  Location     Type
  8628 ;;                  1    wreg      void 
  8629 ;; Registers used:
  8630 ;;		wreg, status,2, status,0, pclath, cstack
  8631 ;; Tracked objects:
  8632 ;;		On entry : 0/0
  8633 ;;		On exit  : 0/0
  8634 ;;		Unchanged: 0/0
  8635 ;; Data sizes:     COMMON   BANK0   BANK1   BANK3   BANK2
  8636 ;;      Params:         0       0       0       0       0
  8637 ;;      Locals:         1       0       0       0       0
  8638 ;;      Temps:          0       0       0       0       0
  8639 ;;      Totals:         1       0       0       0       0
  8640 ;;Total ram usage:        1 bytes
  8641 ;; Hardware stack levels used: 1
  8642 ;; Hardware stack levels required when called: 2
  8643 ;; This function calls:
  8644 ;;		_putchar
  8645 ;; This function is called by:
  8646 ;;		_download_log
  8647 ;; This function uses a non-reentrant model
  8648 ;;
  8649                           
  8650     090C                     _display_log_in_uart:	
  8651                           ;psect for function _display_log_in_uart
  8652                           
  8653                           
  8654                           ;incstack = 0
  8655                           ; Regs used in _display_log_in_uart: [wreg+status,2+status,0+pclath+cstack]
  8656                           ;display_log_in_uart@log_pos stored from wreg
  8657     090C  00F4               	movwf	display_log_in_uart@log_pos
  8658     090D                     l4397:
  8659                           
  8660                           ;car_black_box_def.c: 342: void display_log_in_uart(char log_pos);car_black_box_def.c: 3
      +                          43: {;car_black_box_def.c: 344:     putchar(log_pos - 1 + '0');
  8661     090D  0874               	movf	display_log_in_uart@log_pos,w
  8662     090E  3E2F               	addlw	47
  8663     090F  160A  158A  2775  120A  158A  	fcall	_putchar
  8664                           
  8665                           ;car_black_box_def.c: 345:     putchar(' ');
  8666     0914  3020               	movlw	32
  8667     0915  160A  158A  2775  120A  158A  	fcall	_putchar
  8668                           
  8669                           ;car_black_box_def.c: 346:     putchar(saved_time[0]);
  8670     091A  1683               	bsf	3,5	;RP0=1, select bank1
  8671     091B  1303               	bcf	3,6	;RP1=0, select bank1
  8672     091C  0820               	movf	_saved_time^(0+128),w
  8673     091D  160A  158A  2775  120A  158A  	fcall	_putchar
  8674                           
  8675                           ;car_black_box_def.c: 347:     putchar(saved_time[1]);
  8676     0922  1683               	bsf	3,5	;RP0=1, select bank1
  8677     0923  1303               	bcf	3,6	;RP1=0, select bank1
  8678     0924  0821               	movf	(_saved_time^(0+128)+1),w
  8679     0925  160A  158A  2775  120A  158A  	fcall	_putchar
  8680                           
  8681                           ;car_black_box_def.c: 348:     putchar(':');
  8682     092A  303A               	movlw	58
  8683     092B  160A  158A  2775  120A  158A  	fcall	_putchar
  8684                           
  8685                           ;car_black_box_def.c: 349:     putchar(saved_time[2]);
  8686     0930  1683               	bsf	3,5	;RP0=1, select bank1
  8687     0931  1303               	bcf	3,6	;RP1=0, select bank1
  8688     0932  0822               	movf	(_saved_time^(0+128)+2),w
  8689     0933  160A  158A  2775  120A  158A  	fcall	_putchar
  8690                           
  8691                           ;car_black_box_def.c: 350:     putchar(saved_time[3]);
  8692     0938  1683               	bsf	3,5	;RP0=1, select bank1
  8693     0939  1303               	bcf	3,6	;RP1=0, select bank1
  8694     093A  0823               	movf	(_saved_time^(0+128)+3),w
  8695     093B  160A  158A  2775  120A  158A  	fcall	_putchar
  8696                           
  8697                           ;car_black_box_def.c: 351:     putchar(':');
  8698     0940  303A               	movlw	58
  8699     0941  160A  158A  2775  120A  158A  	fcall	_putchar
  8700                           
  8701                           ;car_black_box_def.c: 352:     putchar(saved_time[4]);
  8702     0946  1683               	bsf	3,5	;RP0=1, select bank1
  8703     0947  1303               	bcf	3,6	;RP1=0, select bank1
  8704     0948  0824               	movf	(_saved_time^(0+128)+4),w
  8705     0949  160A  158A  2775  120A  158A  	fcall	_putchar
  8706                           
  8707                           ;car_black_box_def.c: 353:     putchar(saved_time[5]);
  8708     094E  1683               	bsf	3,5	;RP0=1, select bank1
  8709     094F  1303               	bcf	3,6	;RP1=0, select bank1
  8710     0950  0825               	movf	(_saved_time^(0+128)+5),w
  8711     0951  160A  158A  2775  120A  158A  	fcall	_putchar
  8712                           
  8713                           ;car_black_box_def.c: 354:     putchar(' ');
  8714     0956  3020               	movlw	32
  8715     0957  160A  158A  2775  120A  158A  	fcall	_putchar
  8716                           
  8717                           ;car_black_box_def.c: 355:     putchar(saved_event[0]);
  8718     095C  1683               	bsf	3,5	;RP0=1, select bank1
  8719     095D  1303               	bcf	3,6	;RP1=0, select bank1
  8720     095E  0827               	movf	_saved_event^(0+128),w
  8721     095F  160A  158A  2775  120A  158A  	fcall	_putchar
  8722                           
  8723                           ;car_black_box_def.c: 356:     putchar(saved_event[1]);
  8724     0964  1683               	bsf	3,5	;RP0=1, select bank1
  8725     0965  1303               	bcf	3,6	;RP1=0, select bank1
  8726     0966  0828               	movf	(_saved_event^(0+128)+1),w
  8727     0967  160A  158A  2775  120A  158A  	fcall	_putchar
  8728                           
  8729                           ;car_black_box_def.c: 357:     putchar(' ');
  8730     096C  3020               	movlw	32
  8731     096D  160A  158A  2775  120A  158A  	fcall	_putchar
  8732                           
  8733                           ;car_black_box_def.c: 358:     putchar(saved_speed[0]);
  8734     0972  1683               	bsf	3,5	;RP0=1, select bank1
  8735     0973  1303               	bcf	3,6	;RP1=0, select bank1
  8736     0974  082A               	movf	_saved_speed^(0+128),w
  8737     0975  160A  158A  2775  120A  158A  	fcall	_putchar
  8738                           
  8739                           ;car_black_box_def.c: 359:     putchar(saved_speed[1]);
  8740     097A  1683               	bsf	3,5	;RP0=1, select bank1
  8741     097B  1303               	bcf	3,6	;RP1=0, select bank1
  8742     097C  082B               	movf	(_saved_speed^(0+128)+1),w
  8743     097D  160A  158A  2775  120A  158A  	fcall	_putchar
  8744                           
  8745                           ;car_black_box_def.c: 360:     putchar('\n');
  8746     0982  300A               	movlw	10
  8747     0983  160A  158A  2775  120A  158A  	fcall	_putchar
  8748     0988                     l442:
  8749     0988  0008               	return
  8750     0989                     __end_of_display_log_in_uart:
  8751                           
  8752                           	psect	text33
  8753     1F75                     __ptext33:	
  8754 ;; *************** function _putchar *****************
  8755 ;; Defined at:
  8756 ;;		line 32 in file "uart.c"
  8757 ;; Parameters:    Size  Location     Type
  8758 ;;  data            1    wreg     unsigned char 
  8759 ;; Auto vars:     Size  Location     Type
  8760 ;;  data            1    3[COMMON] unsigned char 
  8761 ;; Return value:  Size  Location     Type
  8762 ;;                  1    wreg      void 
  8763 ;; Registers used:
  8764 ;;		wreg
  8765 ;; Tracked objects:
  8766 ;;		On entry : 0/0
  8767 ;;		On exit  : 0/0
  8768 ;;		Unchanged: 0/0
  8769 ;; Data sizes:     COMMON   BANK0   BANK1   BANK3   BANK2
  8770 ;;      Params:         0       0       0       0       0
  8771 ;;      Locals:         1       0       0       0       0
  8772 ;;      Temps:          0       0       0       0       0
  8773 ;;      Totals:         1       0       0       0       0
  8774 ;;Total ram usage:        1 bytes
  8775 ;; Hardware stack levels used: 1
  8776 ;; Hardware stack levels required when called: 1
  8777 ;; This function calls:
  8778 ;;		Nothing
  8779 ;; This function is called by:
  8780 ;;		_display_log_in_uart
  8781 ;;		_puts
  8782 ;; This function uses a non-reentrant model
  8783 ;;
  8784                           
  8785     1F75                     _putchar:	
  8786                           ;psect for function _putchar
  8787                           
  8788                           
  8789                           ;incstack = 0
  8790                           ; Regs used in _putchar: [wreg]
  8791                           ;putchar@data stored from wreg
  8792     1F75  00F3               	movwf	putchar@data
  8793     1F76                     l4219:
  8794                           
  8795                           ;uart.c: 32: void putchar(unsigned char data);uart.c: 33: {;uart.c: 35:     TXREG = data
      +                          ;
  8796     1F76  0873               	movf	putchar@data,w
  8797     1F77  1283               	bcf	3,5	;RP0=0, select bank0
  8798     1F78  1303               	bcf	3,6	;RP1=0, select bank0
  8799     1F79  0099               	movwf	25	;volatile
  8800     1F7A                     l602:	
  8801                           ;uart.c: 41:     } while (TXIF != 1);
  8802                           
  8803     1F7A  1E0C               	btfss	12,4	;volatile
  8804     1F7B  2F7D               	goto	u3811
  8805     1F7C  2F7E               	goto	u3810
  8806     1F7D                     u3811:
  8807     1F7D  2F7A               	goto	l602
  8808     1F7E                     u3810:
  8809     1F7E                     l603:
  8810                           
  8811                           ;uart.c: 44:     TXIF = 0;
  8812     1F7E  120C               	bcf	12,4	;volatile
  8813     1F7F                     l604:
  8814     1F7F  0008               	return
  8815     1F80                     __end_of_putchar:
  8816                           
  8817                           	psect	text34
  8818     1579                     __ptext34:	
  8819 ;; *************** function _display_default_screen *****************
  8820 ;; Defined at:
  8821 ;;		line 49 in file "car_black_box_def.c"
  8822 ;; Parameters:    Size  Location     Type
  8823 ;;  event           1    wreg     PTR unsigned char 
  8824 ;;		 -> main@event(3), 
  8825 ;;  speed           1   23[BANK0 ] unsigned char 
  8826 ;; Auto vars:     Size  Location     Type
  8827 ;;  event           1   26[BANK0 ] PTR unsigned char 
  8828 ;;		 -> main@event(3), 
  8829 ;; Return value:  Size  Location     Type
  8830 ;;                  1    wreg      void 
  8831 ;; Registers used:
  8832 ;;		wreg, fsr0l, fsr0h, status,2, status,0, btemp+1, pclath, cstack
  8833 ;; Tracked objects:
  8834 ;;		On entry : 0/0
  8835 ;;		On exit  : 0/0
  8836 ;;		Unchanged: 0/0
  8837 ;; Data sizes:     COMMON   BANK0   BANK1   BANK3   BANK2
  8838 ;;      Params:         0       1       0       0       0
  8839 ;;      Locals:         0       1       0       0       0
  8840 ;;      Temps:          0       2       0       0       0
  8841 ;;      Totals:         0       4       0       0       0
  8842 ;;Total ram usage:        4 bytes
  8843 ;; Hardware stack levels used: 1
  8844 ;; Hardware stack levels required when called: 7
  8845 ;; This function calls:
  8846 ;;		___awdiv
  8847 ;;		___awmod
  8848 ;;		_clcd_print
  8849 ;;		_clcd_putch
  8850 ;;		_display_time
  8851 ;; This function is called by:
  8852 ;;		_main
  8853 ;; This function uses a non-reentrant model
  8854 ;;
  8855                           
  8856     1579                     _display_default_screen:	
  8857                           ;psect for function _display_default_screen
  8858                           
  8859                           
  8860                           ;incstack = 0
  8861                           ; Regs used in _display_default_screen: [wreg-fsr0h+status,2+status,0+btemp+1+pclath+cst
      +                          ack]
  8862                           ;display_default_screen@event stored from wreg
  8863     1579  1283               	bcf	3,5	;RP0=0, select bank0
  8864     157A  1303               	bcf	3,6	;RP1=0, select bank0
  8865     157B  00BA               	movwf	display_default_screen@event
  8866     157C                     l4629:
  8867                           
  8868                           ;car_black_box_def.c: 49: void display_default_screen(char *event, unsigned char speed);
      +                          car_black_box_def.c: 50: {;car_black_box_def.c: 51:     clcd_print("  TIME    EV  SP", (
      +                          0x80 + 0));
  8869     157C  3099               	movlw	low (STR_18| (0+32768))
  8870     157D  00A0               	movwf	clcd_print@str
  8871     157E  3090               	movlw	high (STR_18| (0+32768))
  8872     157F  00A1               	movwf	clcd_print@str+1
  8873     1580  3080               	movlw	128
  8874     1581  00A2               	movwf	clcd_print@addr
  8875     1582  160A  118A  23B8  160A  118A  	fcall	_clcd_print
  8876     1587                     l4631:
  8877                           
  8878                           ;car_black_box_def.c: 56:     display_time();
  8879     1587  160A  118A  273A  160A  118A  	fcall	_display_time
  8880     158C                     l4633:
  8881                           
  8882                           ;car_black_box_def.c: 57:     clcd_print(event, (0xC0 + 10));
  8883     158C  1283               	bcf	3,5	;RP0=0, select bank0
  8884     158D  1303               	bcf	3,6	;RP1=0, select bank0
  8885     158E  083A               	movf	display_default_screen@event,w
  8886     158F  00A0               	movwf	clcd_print@str
  8887     1590  3001               	movlw	1
  8888     1591  00A1               	movwf	clcd_print@str+1
  8889     1592  30CA               	movlw	202
  8890     1593  00A2               	movwf	clcd_print@addr
  8891     1594  160A  118A  23B8  160A  118A  	fcall	_clcd_print
  8892                           
  8893                           ;car_black_box_def.c: 62:     clcd_putch(speed / 10 + '0', (0xC0 + 14));
  8894     1599  30CE               	movlw	206
  8895     159A  1283               	bcf	3,5	;RP0=0, select bank0
  8896     159B  1303               	bcf	3,6	;RP1=0, select bank0
  8897     159C  00B6               	movwf	clcd_putch@addr
  8898     159D  300A               	movlw	10
  8899     159E  00F3               	movwf	___awdiv@divisor
  8900     159F  3000               	movlw	0
  8901     15A0  00F4               	movwf	___awdiv@divisor+1
  8902     15A1  0837               	movf	display_default_screen@speed,w
  8903     15A2  00B8               	movwf	??_display_default_screen
  8904     15A3  01B9               	clrf	??_display_default_screen+1
  8905     15A4  0838               	movf	??_display_default_screen,w
  8906     15A5  00F5               	movwf	___awdiv@dividend
  8907     15A6  0839               	movf	??_display_default_screen+1,w
  8908     15A7  00F6               	movwf	___awdiv@dividend+1
  8909     15A8  120A  118A  278C  160A  118A  	fcall	___awdiv
  8910     15AD  0873               	movf	?___awdiv,w
  8911     15AE  3E30               	addlw	48
  8912     15AF  160A  158A  27B0  160A  118A  	fcall	_clcd_putch
  8913                           
  8914                           ;car_black_box_def.c: 63:     clcd_putch(speed % 10 + '0', (0xC0 + 15));
  8915     15B4  30CF               	movlw	207
  8916     15B5  1283               	bcf	3,5	;RP0=0, select bank0
  8917     15B6  1303               	bcf	3,6	;RP1=0, select bank0
  8918     15B7  00B6               	movwf	clcd_putch@addr
  8919     15B8  300A               	movlw	10
  8920     15B9  00F3               	movwf	___awmod@divisor
  8921     15BA  3000               	movlw	0
  8922     15BB  00F4               	movwf	___awmod@divisor+1
  8923     15BC  0837               	movf	display_default_screen@speed,w
  8924     15BD  00B8               	movwf	??_display_default_screen
  8925     15BE  01B9               	clrf	??_display_default_screen+1
  8926     15BF  0838               	movf	??_display_default_screen,w
  8927     15C0  00F5               	movwf	___awmod@dividend
  8928     15C1  0839               	movf	??_display_default_screen+1,w
  8929     15C2  00F6               	movwf	___awmod@dividend+1
  8930     15C3  160A  118A  2627  160A  118A  	fcall	___awmod
  8931     15C8  0873               	movf	?___awmod,w
  8932     15C9  3E30               	addlw	48
  8933     15CA  160A  158A  27B0  160A  118A  	fcall	_clcd_putch
  8934     15CF                     l361:
  8935     15CF  0008               	return
  8936     15D0                     __end_of_display_default_screen:
  8937                           
  8938                           	psect	text35
  8939     173A                     __ptext35:	
  8940 ;; *************** function _display_time *****************
  8941 ;; Defined at:
  8942 ;;		line 35 in file "car_black_box_def.c"
  8943 ;; Parameters:    Size  Location     Type
  8944 ;;		None
  8945 ;; Auto vars:     Size  Location     Type
  8946 ;;		None
  8947 ;; Return value:  Size  Location     Type
  8948 ;;                  1    wreg      void 
  8949 ;; Registers used:
  8950 ;;		wreg, status,2, status,0, pclath, cstack
  8951 ;; Tracked objects:
  8952 ;;		On entry : 0/0
  8953 ;;		On exit  : 0/0
  8954 ;;		Unchanged: 0/0
  8955 ;; Data sizes:     COMMON   BANK0   BANK1   BANK3   BANK2
  8956 ;;      Params:         0       0       0       0       0
  8957 ;;      Locals:         0       0       0       0       0
  8958 ;;      Temps:          0       0       0       0       0
  8959 ;;      Totals:         0       0       0       0       0
  8960 ;;Total ram usage:        0 bytes
  8961 ;; Hardware stack levels used: 1
  8962 ;; Hardware stack levels required when called: 6
  8963 ;; This function calls:
  8964 ;;		_clcd_putch
  8965 ;;		_get_time
  8966 ;; This function is called by:
  8967 ;;		_display_default_screen
  8968 ;; This function uses a non-reentrant model
  8969 ;;
  8970                           
  8971     173A                     _display_time:	
  8972                           ;psect for function _display_time
  8973                           
  8974     173A                     l4321:	
  8975                           ;incstack = 0
  8976                           ; Regs used in _display_time: [wreg+status,2+status,0+pclath+cstack]
  8977                           
  8978                           
  8979                           ;car_black_box_def.c: 37:     get_time();
  8980     173A  160A  118A  252C  160A  118A  	fcall	_get_time
  8981                           
  8982                           ;car_black_box_def.c: 39:     clcd_putch(time[0], (0xC0 + 0));
  8983     173F  30C0               	movlw	192
  8984     1740  1283               	bcf	3,5	;RP0=0, select bank0
  8985     1741  1303               	bcf	3,6	;RP1=0, select bank0
  8986     1742  00B6               	movwf	clcd_putch@addr
  8987     1743  1683               	bsf	3,5	;RP0=1, select bank1
  8988     1744  1303               	bcf	3,6	;RP1=0, select bank1
  8989     1745  0844               	movf	_time^(0+128),w
  8990     1746  160A  158A  27B0  160A  118A  	fcall	_clcd_putch
  8991                           
  8992                           ;car_black_box_def.c: 40:     clcd_putch(time[1], (0xC0 + 1));
  8993     174B  30C1               	movlw	193
  8994     174C  1283               	bcf	3,5	;RP0=0, select bank0
  8995     174D  1303               	bcf	3,6	;RP1=0, select bank0
  8996     174E  00B6               	movwf	clcd_putch@addr
  8997     174F  1683               	bsf	3,5	;RP0=1, select bank1
  8998     1750  1303               	bcf	3,6	;RP1=0, select bank1
  8999     1751  0845               	movf	(_time^(0+128)+1),w
  9000     1752  160A  158A  27B0  160A  118A  	fcall	_clcd_putch
  9001                           
  9002                           ;car_black_box_def.c: 41:     clcd_putch(':', (0xC0 + 2));
  9003     1757  30C2               	movlw	194
  9004     1758  1283               	bcf	3,5	;RP0=0, select bank0
  9005     1759  1303               	bcf	3,6	;RP1=0, select bank0
  9006     175A  00B6               	movwf	clcd_putch@addr
  9007     175B  303A               	movlw	58
  9008     175C  160A  158A  27B0  160A  118A  	fcall	_clcd_putch
  9009                           
  9010                           ;car_black_box_def.c: 42:     clcd_putch(time[2], (0xC0 + 3));
  9011     1761  30C3               	movlw	195
  9012     1762  1283               	bcf	3,5	;RP0=0, select bank0
  9013     1763  1303               	bcf	3,6	;RP1=0, select bank0
  9014     1764  00B6               	movwf	clcd_putch@addr
  9015     1765  1683               	bsf	3,5	;RP0=1, select bank1
  9016     1766  1303               	bcf	3,6	;RP1=0, select bank1
  9017     1767  0846               	movf	(_time^(0+128)+2),w
  9018     1768  160A  158A  27B0  160A  118A  	fcall	_clcd_putch
  9019                           
  9020                           ;car_black_box_def.c: 43:     clcd_putch(time[3], (0xC0 + 4));
  9021     176D  30C4               	movlw	196
  9022     176E  1283               	bcf	3,5	;RP0=0, select bank0
  9023     176F  1303               	bcf	3,6	;RP1=0, select bank0
  9024     1770  00B6               	movwf	clcd_putch@addr
  9025     1771  1683               	bsf	3,5	;RP0=1, select bank1
  9026     1772  1303               	bcf	3,6	;RP1=0, select bank1
  9027     1773  0847               	movf	(_time^(0+128)+3),w
  9028     1774  160A  158A  27B0  160A  118A  	fcall	_clcd_putch
  9029                           
  9030                           ;car_black_box_def.c: 44:     clcd_putch(':', (0xC0 + 5));
  9031     1779  30C5               	movlw	197
  9032     177A  1283               	bcf	3,5	;RP0=0, select bank0
  9033     177B  1303               	bcf	3,6	;RP1=0, select bank0
  9034     177C  00B6               	movwf	clcd_putch@addr
  9035     177D  303A               	movlw	58
  9036     177E  160A  158A  27B0  160A  118A  	fcall	_clcd_putch
  9037                           
  9038                           ;car_black_box_def.c: 45:     clcd_putch(time[4], (0xC0 + 6));
  9039     1783  30C6               	movlw	198
  9040     1784  1283               	bcf	3,5	;RP0=0, select bank0
  9041     1785  1303               	bcf	3,6	;RP1=0, select bank0
  9042     1786  00B6               	movwf	clcd_putch@addr
  9043     1787  1683               	bsf	3,5	;RP0=1, select bank1
  9044     1788  1303               	bcf	3,6	;RP1=0, select bank1
  9045     1789  0848               	movf	(_time^(0+128)+4),w
  9046     178A  160A  158A  27B0  160A  118A  	fcall	_clcd_putch
  9047                           
  9048                           ;car_black_box_def.c: 46:     clcd_putch(time[5], (0xC0 + 7));
  9049     178F  30C7               	movlw	199
  9050     1790  1283               	bcf	3,5	;RP0=0, select bank0
  9051     1791  1303               	bcf	3,6	;RP1=0, select bank0
  9052     1792  00B6               	movwf	clcd_putch@addr
  9053     1793  1683               	bsf	3,5	;RP0=1, select bank1
  9054     1794  1303               	bcf	3,6	;RP1=0, select bank1
  9055     1795  0849               	movf	(_time^(0+128)+5),w
  9056     1796  160A  158A  27B0  160A  118A  	fcall	_clcd_putch
  9057     179B                     l358:
  9058     179B  0008               	return
  9059     179C                     __end_of_display_time:
  9060                           
  9061                           	psect	text36
  9062     152C                     __ptext36:	
  9063 ;; *************** function _get_time *****************
  9064 ;; Defined at:
  9065 ;;		line 13 in file "car_black_box_def.c"
  9066 ;; Parameters:    Size  Location     Type
  9067 ;;		None
  9068 ;; Auto vars:     Size  Location     Type
  9069 ;;		None
  9070 ;; Return value:  Size  Location     Type
  9071 ;;                  1    wreg      void 
  9072 ;; Registers used:
  9073 ;;		wreg, status,2, status,0, pclath, cstack
  9074 ;; Tracked objects:
  9075 ;;		On entry : 0/0
  9076 ;;		On exit  : 0/0
  9077 ;;		Unchanged: 0/0
  9078 ;; Data sizes:     COMMON   BANK0   BANK1   BANK3   BANK2
  9079 ;;      Params:         0       0       0       0       0
  9080 ;;      Locals:         0       0       0       0       0
  9081 ;;      Temps:          1       0       0       0       0
  9082 ;;      Totals:         1       0       0       0       0
  9083 ;;Total ram usage:        1 bytes
  9084 ;; Hardware stack levels used: 1
  9085 ;; Hardware stack levels required when called: 5
  9086 ;; This function calls:
  9087 ;;		_read_ds1307
  9088 ;; This function is called by:
  9089 ;;		_display_time
  9090 ;;		_log_car_event
  9091 ;;		_edit_time
  9092 ;; This function uses a non-reentrant model
  9093 ;;
  9094                           
  9095     152C                     _get_time:	
  9096                           ;psect for function _get_time
  9097                           
  9098     152C                     l4197:	
  9099                           ;incstack = 0
  9100                           ; Regs used in _get_time: [wreg+status,2+status,0+pclath+cstack]
  9101                           
  9102                           
  9103                           ;car_black_box_def.c: 15:     clock_reg[0] = read_ds1307(0x02);
  9104     152C  3002               	movlw	2
  9105     152D  160A  118A  229F  160A  118A  	fcall	_read_ds1307
  9106     1532  1683               	bsf	3,5	;RP0=1, select bank1
  9107     1533  1303               	bcf	3,6	;RP1=0, select bank1
  9108     1534  00AD               	movwf	_clock_reg^(0+128)
  9109                           
  9110                           ;car_black_box_def.c: 16:     clock_reg[1] = read_ds1307(0x01);
  9111     1535  3001               	movlw	1
  9112     1536  160A  118A  229F  160A  118A  	fcall	_read_ds1307
  9113     153B  1683               	bsf	3,5	;RP0=1, select bank1
  9114     153C  1303               	bcf	3,6	;RP1=0, select bank1
  9115     153D  00AE               	movwf	(_clock_reg^(0+128)+1)
  9116                           
  9117                           ;car_black_box_def.c: 17:     clock_reg[2] = read_ds1307(0x00);
  9118     153E  3000               	movlw	0
  9119     153F  160A  118A  229F  160A  118A  	fcall	_read_ds1307
  9120     1544  1683               	bsf	3,5	;RP0=1, select bank1
  9121     1545  1303               	bcf	3,6	;RP1=0, select bank1
  9122     1546  00AF               	movwf	(_clock_reg^(0+128)+2)
  9123     1547                     l4199:
  9124                           
  9125                           ;car_black_box_def.c: 20:     time[0] = ((clock_reg[0] >> 4) & 0x03) + '0';
  9126     1547  082D               	movf	_clock_reg^(0+128),w
  9127     1548  00F7               	movwf	??_get_time
  9128     1549  3004               	movlw	4
  9129     154A                     u3785:
  9130     154A  1003               	clrc
  9131     154B  0CF7               	rrf	??_get_time,f
  9132     154C  3EFF               	addlw	-1
  9133     154D  1D03               	skipz
  9134     154E  2D4A               	goto	u3785
  9135     154F  0877               	movf	??_get_time,w
  9136     1550  3903               	andlw	3
  9137     1551  3E30               	addlw	48
  9138     1552  00C4               	movwf	_time^(0+128)
  9139     1553                     l4201:
  9140                           
  9141                           ;car_black_box_def.c: 21:     time[1] = (clock_reg[0] & 0x0F) + '0';
  9142     1553  082D               	movf	_clock_reg^(0+128),w
  9143     1554  390F               	andlw	15
  9144     1555  3E30               	addlw	48
  9145     1556  00C5               	movwf	(_time^(0+128)+1)
  9146     1557                     l4203:
  9147                           
  9148                           ;car_black_box_def.c: 25:     time[2] = ((clock_reg[1] >> 4) & 0x07) + '0';
  9149     1557  082E               	movf	(_clock_reg^(0+128)+1),w
  9150     1558  00F7               	movwf	??_get_time
  9151     1559  3004               	movlw	4
  9152     155A                     u3795:
  9153     155A  1003               	clrc
  9154     155B  0CF7               	rrf	??_get_time,f
  9155     155C  3EFF               	addlw	-1
  9156     155D  1D03               	skipz
  9157     155E  2D5A               	goto	u3795
  9158     155F  0877               	movf	??_get_time,w
  9159     1560  3907               	andlw	7
  9160     1561  3E30               	addlw	48
  9161     1562  00C6               	movwf	(_time^(0+128)+2)
  9162     1563                     l4205:
  9163                           
  9164                           ;car_black_box_def.c: 26:     time[3] = (clock_reg[1] & 0x0F) + '0';
  9165     1563  082E               	movf	(_clock_reg^(0+128)+1),w
  9166     1564  390F               	andlw	15
  9167     1565  3E30               	addlw	48
  9168     1566  00C7               	movwf	(_time^(0+128)+3)
  9169     1567                     l4207:
  9170                           
  9171                           ;car_black_box_def.c: 30:     time[4] = ((clock_reg[2] >> 4) & 0x07) + '0';
  9172     1567  082F               	movf	(_clock_reg^(0+128)+2),w
  9173     1568  00F7               	movwf	??_get_time
  9174     1569  3004               	movlw	4
  9175     156A                     u3805:
  9176     156A  1003               	clrc
  9177     156B  0CF7               	rrf	??_get_time,f
  9178     156C  3EFF               	addlw	-1
  9179     156D  1D03               	skipz
  9180     156E  2D6A               	goto	u3805
  9181     156F  0877               	movf	??_get_time,w
  9182     1570  3907               	andlw	7
  9183     1571  3E30               	addlw	48
  9184     1572  00C8               	movwf	(_time^(0+128)+4)
  9185     1573                     l4209:
  9186                           
  9187                           ;car_black_box_def.c: 31:     time[5] = (clock_reg[2] & 0x0F) + '0';
  9188     1573  082F               	movf	(_clock_reg^(0+128)+2),w
  9189     1574  390F               	andlw	15
  9190     1575  3E30               	addlw	48
  9191     1576  00C9               	movwf	(_time^(0+128)+5)
  9192     1577                     l4211:
  9193                           
  9194                           ;car_black_box_def.c: 32:     time[6] = '\0';
  9195     1577  01CA               	clrf	(_time^(0+128)+6)
  9196     1578                     l355:
  9197     1578  0008               	return
  9198     1579                     __end_of_get_time:
  9199                           
  9200                           	psect	text37
  9201     129F                     __ptext37:	
  9202 ;; *************** function _read_ds1307 *****************
  9203 ;; Defined at:
  9204 ;;		line 14 in file "ds1307.c"
  9205 ;; Parameters:    Size  Location     Type
  9206 ;;  addr            1    wreg     unsigned char 
  9207 ;; Auto vars:     Size  Location     Type
  9208 ;;  addr            1    5[COMMON] unsigned char 
  9209 ;;  data            1    6[COMMON] unsigned char 
  9210 ;; Return value:  Size  Location     Type
  9211 ;;                  1    wreg      unsigned char 
  9212 ;; Registers used:
  9213 ;;		wreg, status,2, status,0, pclath, cstack
  9214 ;; Tracked objects:
  9215 ;;		On entry : 0/0
  9216 ;;		On exit  : 0/0
  9217 ;;		Unchanged: 0/0
  9218 ;; Data sizes:     COMMON   BANK0   BANK1   BANK3   BANK2
  9219 ;;      Params:         0       0       0       0       0
  9220 ;;      Locals:         2       0       0       0       0
  9221 ;;      Temps:          0       0       0       0       0
  9222 ;;      Totals:         2       0       0       0       0
  9223 ;;Total ram usage:        2 bytes
  9224 ;; Hardware stack levels used: 1
  9225 ;; Hardware stack levels required when called: 4
  9226 ;; This function calls:
  9227 ;;		_i2c_read
  9228 ;;		_i2c_rep_start
  9229 ;;		_i2c_start
  9230 ;;		_i2c_stop
  9231 ;;		_i2c_write
  9232 ;; This function is called by:
  9233 ;;		_init_ds1307
  9234 ;;		_get_time
  9235 ;; This function uses a non-reentrant model
  9236 ;;
  9237                           
  9238     129F                     _read_ds1307:	
  9239                           ;psect for function _read_ds1307
  9240                           
  9241                           
  9242                           ;incstack = 0
  9243                           ; Regs used in _read_ds1307: [wreg+status,2+status,0+pclath+cstack]
  9244                           ;read_ds1307@addr stored from wreg
  9245     129F  00F5               	movwf	read_ds1307@addr
  9246     12A0                     l4155:
  9247                           
  9248                           ;ds1307.c: 14: unsigned char read_ds1307(unsigned char addr);ds1307.c: 15: {;ds1307.c: 1
      +                          6:     unsigned char data;;ds1307.c: 18:     i2c_start();
  9249     12A0  160A  158A  2756  160A  118A  	fcall	_i2c_start
  9250                           
  9251                           ;ds1307.c: 19:     i2c_write(0b11010000);
  9252     12A5  30D0               	movlw	208
  9253     12A6  160A  158A  275F  160A  118A  	fcall	_i2c_write
  9254                           
  9255                           ;ds1307.c: 20:     i2c_write(addr);
  9256     12AB  0875               	movf	read_ds1307@addr,w
  9257     12AC  160A  158A  275F  160A  118A  	fcall	_i2c_write
  9258                           
  9259                           ;ds1307.c: 21:     i2c_rep_start();
  9260     12B1  160A  158A  276A  160A  118A  	fcall	_i2c_rep_start
  9261                           
  9262                           ;ds1307.c: 22:     i2c_write(0b11010001);
  9263     12B6  30D1               	movlw	209
  9264     12B7  160A  158A  275F  160A  118A  	fcall	_i2c_write
  9265                           
  9266                           ;ds1307.c: 23:     data = i2c_read(0);
  9267     12BC  3000               	movlw	0
  9268     12BD  160A  118A  21E2  160A  118A  	fcall	_i2c_read
  9269     12C2  00F6               	movwf	read_ds1307@data
  9270                           
  9271                           ;ds1307.c: 24:     i2c_stop();
  9272     12C3  120A  158A  2000  160A  118A  	fcall	_i2c_stop
  9273     12C8                     l4157:
  9274                           
  9275                           ;ds1307.c: 26:     return data;
  9276     12C8  0876               	movf	read_ds1307@data,w
  9277     12C9                     l241:
  9278     12C9  0008               	return
  9279     12CA                     __end_of_read_ds1307:
  9280                           
  9281                           	psect	text38
  9282     1F6A                     __ptext38:	
  9283 ;; *************** function _i2c_rep_start *****************
  9284 ;; Defined at:
  9285 ;;		line 28 in file "i2c.c"
  9286 ;; Parameters:    Size  Location     Type
  9287 ;;		None
  9288 ;; Auto vars:     Size  Location     Type
  9289 ;;		None
  9290 ;; Return value:  Size  Location     Type
  9291 ;;                  1    wreg      void 
  9292 ;; Registers used:
  9293 ;;		wreg, status,2, status,0, pclath, cstack
  9294 ;; Tracked objects:
  9295 ;;		On entry : 0/0
  9296 ;;		On exit  : 0/0
  9297 ;;		Unchanged: 0/0
  9298 ;; Data sizes:     COMMON   BANK0   BANK1   BANK3   BANK2
  9299 ;;      Params:         0       0       0       0       0
  9300 ;;      Locals:         0       0       0       0       0
  9301 ;;      Temps:          0       0       0       0       0
  9302 ;;      Totals:         0       0       0       0       0
  9303 ;;Total ram usage:        0 bytes
  9304 ;; Hardware stack levels used: 1
  9305 ;; Hardware stack levels required when called: 3
  9306 ;; This function calls:
  9307 ;;		_i2c_start
  9308 ;;		_i2c_stop
  9309 ;; This function is called by:
  9310 ;;		_read_ds1307
  9311 ;;		_ext_eeprom_24C02_read
  9312 ;; This function uses a non-reentrant model
  9313 ;;
  9314                           
  9315     1F6A                     _i2c_rep_start:	
  9316                           ;psect for function _i2c_rep_start
  9317                           
  9318     1F6A                     l4131:	
  9319                           ;incstack = 0
  9320                           ; Regs used in _i2c_rep_start: [wreg+status,2+status,0+pclath+cstack]
  9321                           
  9322                           
  9323                           ;i2c.c: 30:     i2c_stop();
  9324     1F6A  120A  158A  2000  160A  158A  	fcall	_i2c_stop
  9325                           
  9326                           ;i2c.c: 31:     i2c_start();
  9327     1F6F  160A  158A  2756  160A  158A  	fcall	_i2c_start
  9328     1F74                     l285:
  9329     1F74  0008               	return
  9330     1F75                     __end_of_i2c_rep_start:
  9331                           
  9332                           	psect	text39
  9333     11E2                     __ptext39:	
  9334 ;; *************** function _i2c_read *****************
  9335 ;; Defined at:
  9336 ;;		line 41 in file "i2c.c"
  9337 ;; Parameters:    Size  Location     Type
  9338 ;;  ack             1    wreg     unsigned char 
  9339 ;; Auto vars:     Size  Location     Type
  9340 ;;  ack             1    3[COMMON] unsigned char 
  9341 ;;  data            1    4[COMMON] unsigned char 
  9342 ;; Return value:  Size  Location     Type
  9343 ;;                  1    wreg      unsigned char 
  9344 ;; Registers used:
  9345 ;;		wreg, status,2, status,0, pclath, cstack
  9346 ;; Tracked objects:
  9347 ;;		On entry : 0/0
  9348 ;;		On exit  : 0/0
  9349 ;;		Unchanged: 0/0
  9350 ;; Data sizes:     COMMON   BANK0   BANK1   BANK3   BANK2
  9351 ;;      Params:         0       0       0       0       0
  9352 ;;      Locals:         2       0       0       0       0
  9353 ;;      Temps:          0       0       0       0       0
  9354 ;;      Totals:         2       0       0       0       0
  9355 ;;Total ram usage:        2 bytes
  9356 ;; Hardware stack levels used: 1
  9357 ;; Hardware stack levels required when called: 2
  9358 ;; This function calls:
  9359 ;;		_i2c_wait_for_idle
  9360 ;; This function is called by:
  9361 ;;		_read_ds1307
  9362 ;;		_ext_eeprom_24C02_read
  9363 ;; This function uses a non-reentrant model
  9364 ;;
  9365                           
  9366     11E2                     _i2c_read:	
  9367                           ;psect for function _i2c_read
  9368                           
  9369                           
  9370                           ;incstack = 0
  9371                           ; Regs used in _i2c_read: [wreg+status,2+status,0+pclath+cstack]
  9372                           ;i2c_read@ack stored from wreg
  9373     11E2  00F3               	movwf	i2c_read@ack
  9374     11E3                     l4133:
  9375                           
  9376                           ;i2c.c: 41: unsigned char i2c_read(unsigned char ack);i2c.c: 42: {;i2c.c: 43:     unsign
      +                          ed char data;;i2c.c: 45:     i2c_wait_for_idle();
  9377     11E3  160A  158A  2780  160A  118A  	fcall	_i2c_wait_for_idle
  9378     11E8                     l4135:
  9379                           
  9380                           ;i2c.c: 46:     RCEN = 1;
  9381     11E8  1683               	bsf	3,5	;RP0=1, select bank1
  9382     11E9  1303               	bcf	3,6	;RP1=0, select bank1
  9383     11EA  1591               	bsf	17,3	;volatile
  9384                           
  9385                           ;i2c.c: 48:     i2c_wait_for_idle();
  9386     11EB  160A  158A  2780  160A  118A  	fcall	_i2c_wait_for_idle
  9387     11F0                     l4137:
  9388                           
  9389                           ;i2c.c: 49:     data = SSPBUF;
  9390     11F0  1283               	bcf	3,5	;RP0=0, select bank0
  9391     11F1  1303               	bcf	3,6	;RP1=0, select bank0
  9392     11F2  0813               	movf	19,w	;volatile
  9393     11F3  00F4               	movwf	i2c_read@data
  9394     11F4                     l4139:
  9395                           
  9396                           ;i2c.c: 51:     if (ack == 1)
  9397     11F4  0373               	decf	i2c_read@ack,w
  9398     11F5  1D03               	btfss	3,2
  9399     11F6  29F8               	goto	u3741
  9400     11F7  29F9               	goto	u3740
  9401     11F8                     u3741:
  9402     11F8  29FD               	goto	l291
  9403     11F9                     u3740:
  9404     11F9                     l4141:
  9405                           
  9406                           ;i2c.c: 52:     {;i2c.c: 53:         ACKDT = 1;
  9407     11F9  1683               	bsf	3,5	;RP0=1, select bank1
  9408     11FA  1303               	bcf	3,6	;RP1=0, select bank1
  9409     11FB  1691               	bsf	17,5	;volatile
  9410                           
  9411                           ;i2c.c: 54:     }
  9412     11FC  2A00               	goto	l292
  9413     11FD                     l291:	
  9414                           ;i2c.c: 55:     else
  9415                           
  9416                           
  9417                           ;i2c.c: 56:     {;i2c.c: 57:         ACKDT = 0;
  9418     11FD  1683               	bsf	3,5	;RP0=1, select bank1
  9419     11FE  1303               	bcf	3,6	;RP1=0, select bank1
  9420     11FF  1291               	bcf	17,5	;volatile
  9421     1200                     l292:	
  9422                           ;i2c.c: 58:     }
  9423                           
  9424                           
  9425                           ;i2c.c: 60:     ACKEN = 1;
  9426     1200  1611               	bsf	17,4	;volatile
  9427     1201                     l4143:
  9428                           
  9429                           ;i2c.c: 62:     return data;
  9430     1201  0874               	movf	i2c_read@data,w
  9431     1202                     l293:
  9432     1202  0008               	return
  9433     1203                     __end_of_i2c_read:
  9434                           
  9435                           	psect	text40
  9436     1627                     __ptext40:	
  9437 ;; *************** function ___awmod *****************
  9438 ;; Defined at:
  9439 ;;		line 5 in file "C:\Program Files\Microchip\xc8\v2.40\pic\sources\c90\common\awmod.c"
  9440 ;; Parameters:    Size  Location     Type
  9441 ;;  divisor         2    3[COMMON] int 
  9442 ;;  dividend        2    5[COMMON] int 
  9443 ;; Auto vars:     Size  Location     Type
  9444 ;;  sign            1    1[BANK0 ] unsigned char 
  9445 ;;  counter         1    0[BANK0 ] unsigned char 
  9446 ;; Return value:  Size  Location     Type
  9447 ;;                  2    3[COMMON] int 
  9448 ;; Registers used:
  9449 ;;		wreg, status,2, status,0
  9450 ;; Tracked objects:
  9451 ;;		On entry : 0/0
  9452 ;;		On exit  : 0/0
  9453 ;;		Unchanged: 0/0
  9454 ;; Data sizes:     COMMON   BANK0   BANK1   BANK3   BANK2
  9455 ;;      Params:         4       0       0       0       0
  9456 ;;      Locals:         0       2       0       0       0
  9457 ;;      Temps:          1       0       0       0       0
  9458 ;;      Totals:         5       2       0       0       0
  9459 ;;Total ram usage:        7 bytes
  9460 ;; Hardware stack levels used: 1
  9461 ;; Hardware stack levels required when called: 1
  9462 ;; This function calls:
  9463 ;;		Nothing
  9464 ;; This function is called by:
  9465 ;;		_main
  9466 ;;		_display_default_screen
  9467 ;;		_log_car_event
  9468 ;;		_edit_time
  9469 ;; This function uses a non-reentrant model
  9470 ;;
  9471                           
  9472     1627                     ___awmod:	
  9473                           ;psect for function ___awmod
  9474                           
  9475     1627                     l4515:	
  9476                           ;incstack = 0
  9477                           ; Regs used in ___awmod: [wreg+status,2+status,0]
  9478                           
  9479     1627  1283               	bcf	3,5	;RP0=0, select bank0
  9480     1628  1303               	bcf	3,6	;RP1=0, select bank0
  9481     1629  01A1               	clrf	___awmod@sign
  9482     162A                     l4517:
  9483     162A  1FF6               	btfss	___awmod@dividend+1,7
  9484     162B  2E2D               	goto	u4341
  9485     162C  2E2E               	goto	u4340
  9486     162D                     u4341:
  9487     162D  2E35               	goto	l4523
  9488     162E                     u4340:
  9489     162E                     l4519:
  9490     162E  09F5               	comf	___awmod@dividend,f
  9491     162F  09F6               	comf	___awmod@dividend+1,f
  9492     1630  0AF5               	incf	___awmod@dividend,f
  9493     1631  1903               	skipnz
  9494     1632  0AF6               	incf	___awmod@dividend+1,f
  9495     1633                     l4521:
  9496     1633  01A1               	clrf	___awmod@sign
  9497     1634  0AA1               	incf	___awmod@sign,f
  9498     1635                     l4523:
  9499     1635  1FF4               	btfss	___awmod@divisor+1,7
  9500     1636  2E38               	goto	u4351
  9501     1637  2E39               	goto	u4350
  9502     1638                     u4351:
  9503     1638  2E3E               	goto	l4527
  9504     1639                     u4350:
  9505     1639                     l4525:
  9506     1639  09F3               	comf	___awmod@divisor,f
  9507     163A  09F4               	comf	___awmod@divisor+1,f
  9508     163B  0AF3               	incf	___awmod@divisor,f
  9509     163C  1903               	skipnz
  9510     163D  0AF4               	incf	___awmod@divisor+1,f
  9511     163E                     l4527:
  9512     163E  0873               	movf	___awmod@divisor,w
  9513     163F  0474               	iorwf	___awmod@divisor+1,w
  9514     1640  1903               	btfsc	3,2
  9515     1641  2E43               	goto	u4361
  9516     1642  2E44               	goto	u4360
  9517     1643                     u4361:
  9518     1643  2E73               	goto	l4545
  9519     1644                     u4360:
  9520     1644                     l4529:
  9521     1644  01A0               	clrf	___awmod@counter
  9522     1645  0AA0               	incf	___awmod@counter,f
  9523     1646  2E52               	goto	l4535
  9524     1647                     l4531:
  9525     1647  3001               	movlw	1
  9526     1648                     u4375:
  9527     1648  1003               	clrc
  9528     1649  0DF3               	rlf	___awmod@divisor,f
  9529     164A  0DF4               	rlf	___awmod@divisor+1,f
  9530     164B  3EFF               	addlw	-1
  9531     164C  1D03               	skipz
  9532     164D  2E48               	goto	u4375
  9533     164E                     l4533:
  9534     164E  3001               	movlw	1
  9535     164F  00F7               	movwf	??___awmod
  9536     1650  0877               	movf	??___awmod,w
  9537     1651  07A0               	addwf	___awmod@counter,f
  9538     1652                     l4535:
  9539     1652  1FF4               	btfss	___awmod@divisor+1,7
  9540     1653  2E55               	goto	u4381
  9541     1654  2E56               	goto	u4380
  9542     1655                     u4381:
  9543     1655  2E47               	goto	l4531
  9544     1656                     u4380:
  9545     1656                     l4537:
  9546     1656  0874               	movf	___awmod@divisor+1,w
  9547     1657  0276               	subwf	___awmod@dividend+1,w
  9548     1658  1D03               	skipz
  9549     1659  2E5C               	goto	u4395
  9550     165A  0873               	movf	___awmod@divisor,w
  9551     165B  0275               	subwf	___awmod@dividend,w
  9552     165C                     u4395:
  9553     165C  1C03               	skipc
  9554     165D  2E5F               	goto	u4391
  9555     165E  2E60               	goto	u4390
  9556     165F                     u4391:
  9557     165F  2E66               	goto	l4541
  9558     1660                     u4390:
  9559     1660                     l4539:
  9560     1660  0873               	movf	___awmod@divisor,w
  9561     1661  02F5               	subwf	___awmod@dividend,f
  9562     1662  0874               	movf	___awmod@divisor+1,w
  9563     1663  1C03               	skipc
  9564     1664  03F6               	decf	___awmod@dividend+1,f
  9565     1665  02F6               	subwf	___awmod@dividend+1,f
  9566     1666                     l4541:
  9567     1666  3001               	movlw	1
  9568     1667                     u4405:
  9569     1667  1003               	clrc
  9570     1668  0CF4               	rrf	___awmod@divisor+1,f
  9571     1669  0CF3               	rrf	___awmod@divisor,f
  9572     166A  3EFF               	addlw	-1
  9573     166B  1D03               	skipz
  9574     166C  2E67               	goto	u4405
  9575     166D                     l4543:
  9576     166D  3001               	movlw	1
  9577     166E  02A0               	subwf	___awmod@counter,f
  9578     166F  1D03               	btfss	3,2
  9579     1670  2E72               	goto	u4411
  9580     1671  2E73               	goto	u4410
  9581     1672                     u4411:
  9582     1672  2E56               	goto	l4537
  9583     1673                     u4410:
  9584     1673                     l4545:
  9585     1673  0821               	movf	___awmod@sign,w
  9586     1674  1903               	btfsc	3,2
  9587     1675  2E77               	goto	u4421
  9588     1676  2E78               	goto	u4420
  9589     1677                     u4421:
  9590     1677  2E7D               	goto	l4549
  9591     1678                     u4420:
  9592     1678                     l4547:
  9593     1678  09F5               	comf	___awmod@dividend,f
  9594     1679  09F6               	comf	___awmod@dividend+1,f
  9595     167A  0AF5               	incf	___awmod@dividend,f
  9596     167B  1903               	skipnz
  9597     167C  0AF6               	incf	___awmod@dividend+1,f
  9598     167D                     l4549:
  9599     167D  0876               	movf	___awmod@dividend+1,w
  9600     167E  00F4               	movwf	?___awmod+1
  9601     167F  0875               	movf	___awmod@dividend,w
  9602     1680  00F3               	movwf	?___awmod
  9603     1681                     l862:
  9604     1681  0008               	return
  9605     1682                     __end_of___awmod:
  9606                           
  9607                           	psect	text41
  9608     078C                     __ptext41:	
  9609 ;; *************** function ___awdiv *****************
  9610 ;; Defined at:
  9611 ;;		line 5 in file "C:\Program Files\Microchip\xc8\v2.40\pic\sources\c90\common\awdiv.c"
  9612 ;; Parameters:    Size  Location     Type
  9613 ;;  divisor         2    3[COMMON] int 
  9614 ;;  dividend        2    5[COMMON] int 
  9615 ;; Auto vars:     Size  Location     Type
  9616 ;;  quotient        2    2[BANK0 ] int 
  9617 ;;  sign            1    1[BANK0 ] unsigned char 
  9618 ;;  counter         1    0[BANK0 ] unsigned char 
  9619 ;; Return value:  Size  Location     Type
  9620 ;;                  2    3[COMMON] int 
  9621 ;; Registers used:
  9622 ;;		wreg, status,2, status,0
  9623 ;; Tracked objects:
  9624 ;;		On entry : 0/0
  9625 ;;		On exit  : 0/0
  9626 ;;		Unchanged: 0/0
  9627 ;; Data sizes:     COMMON   BANK0   BANK1   BANK3   BANK2
  9628 ;;      Params:         4       0       0       0       0
  9629 ;;      Locals:         0       4       0       0       0
  9630 ;;      Temps:          1       0       0       0       0
  9631 ;;      Totals:         5       4       0       0       0
  9632 ;;Total ram usage:        9 bytes
  9633 ;; Hardware stack levels used: 1
  9634 ;; Hardware stack levels required when called: 1
  9635 ;; This function calls:
  9636 ;;		Nothing
  9637 ;; This function is called by:
  9638 ;;		_main
  9639 ;;		_display_default_screen
  9640 ;;		_log_car_event
  9641 ;;		_edit_time
  9642 ;; This function uses a non-reentrant model
  9643 ;;
  9644                           
  9645     078C                     ___awdiv:	
  9646                           ;psect for function ___awdiv
  9647                           
  9648     078C                     l4471:	
  9649                           ;incstack = 0
  9650                           ; Regs used in ___awdiv: [wreg+status,2+status,0]
  9651                           
  9652     078C  1283               	bcf	3,5	;RP0=0, select bank0
  9653     078D  1303               	bcf	3,6	;RP1=0, select bank0
  9654     078E  01A1               	clrf	___awdiv@sign
  9655     078F                     l4473:
  9656     078F  1FF4               	btfss	___awdiv@divisor+1,7
  9657     0790  2F92               	goto	u4241
  9658     0791  2F93               	goto	u4240
  9659     0792                     u4241:
  9660     0792  2F9A               	goto	l4479
  9661     0793                     u4240:
  9662     0793                     l4475:
  9663     0793  09F3               	comf	___awdiv@divisor,f
  9664     0794  09F4               	comf	___awdiv@divisor+1,f
  9665     0795  0AF3               	incf	___awdiv@divisor,f
  9666     0796  1903               	skipnz
  9667     0797  0AF4               	incf	___awdiv@divisor+1,f
  9668     0798                     l4477:
  9669     0798  01A1               	clrf	___awdiv@sign
  9670     0799  0AA1               	incf	___awdiv@sign,f
  9671     079A                     l4479:
  9672     079A  1FF6               	btfss	___awdiv@dividend+1,7
  9673     079B  2F9D               	goto	u4251
  9674     079C  2F9E               	goto	u4250
  9675     079D                     u4251:
  9676     079D  2FA7               	goto	l4485
  9677     079E                     u4250:
  9678     079E                     l4481:
  9679     079E  09F5               	comf	___awdiv@dividend,f
  9680     079F  09F6               	comf	___awdiv@dividend+1,f
  9681     07A0  0AF5               	incf	___awdiv@dividend,f
  9682     07A1  1903               	skipnz
  9683     07A2  0AF6               	incf	___awdiv@dividend+1,f
  9684     07A3                     l4483:
  9685     07A3  3001               	movlw	1
  9686     07A4  00F7               	movwf	??___awdiv
  9687     07A5  0877               	movf	??___awdiv,w
  9688     07A6  06A1               	xorwf	___awdiv@sign,f
  9689     07A7                     l4485:
  9690     07A7  01A2               	clrf	___awdiv@quotient
  9691     07A8  01A3               	clrf	___awdiv@quotient+1
  9692     07A9                     l4487:
  9693     07A9  0873               	movf	___awdiv@divisor,w
  9694     07AA  0474               	iorwf	___awdiv@divisor+1,w
  9695     07AB  1903               	btfsc	3,2
  9696     07AC  2FAE               	goto	u4261
  9697     07AD  2FAF               	goto	u4260
  9698     07AE                     u4261:
  9699     07AE  2FE6               	goto	l4507
  9700     07AF                     u4260:
  9701     07AF                     l4489:
  9702     07AF  01A0               	clrf	___awdiv@counter
  9703     07B0  0AA0               	incf	___awdiv@counter,f
  9704     07B1  2FBD               	goto	l4495
  9705     07B2                     l4491:
  9706     07B2  3001               	movlw	1
  9707     07B3                     u4275:
  9708     07B3  1003               	clrc
  9709     07B4  0DF3               	rlf	___awdiv@divisor,f
  9710     07B5  0DF4               	rlf	___awdiv@divisor+1,f
  9711     07B6  3EFF               	addlw	-1
  9712     07B7  1D03               	skipz
  9713     07B8  2FB3               	goto	u4275
  9714     07B9                     l4493:
  9715     07B9  3001               	movlw	1
  9716     07BA  00F7               	movwf	??___awdiv
  9717     07BB  0877               	movf	??___awdiv,w
  9718     07BC  07A0               	addwf	___awdiv@counter,f
  9719     07BD                     l4495:
  9720     07BD  1FF4               	btfss	___awdiv@divisor+1,7
  9721     07BE  2FC0               	goto	u4281
  9722     07BF  2FC1               	goto	u4280
  9723     07C0                     u4281:
  9724     07C0  2FB2               	goto	l4491
  9725     07C1                     u4280:
  9726     07C1                     l4497:
  9727     07C1  3001               	movlw	1
  9728     07C2                     u4295:
  9729     07C2  1003               	clrc
  9730     07C3  0DA2               	rlf	___awdiv@quotient,f
  9731     07C4  0DA3               	rlf	___awdiv@quotient+1,f
  9732     07C5  3EFF               	addlw	-1
  9733     07C6  1D03               	skipz
  9734     07C7  2FC2               	goto	u4295
  9735     07C8  0874               	movf	___awdiv@divisor+1,w
  9736     07C9  0276               	subwf	___awdiv@dividend+1,w
  9737     07CA  1D03               	skipz
  9738     07CB  2FCE               	goto	u4305
  9739     07CC  0873               	movf	___awdiv@divisor,w
  9740     07CD  0275               	subwf	___awdiv@dividend,w
  9741     07CE                     u4305:
  9742     07CE  1C03               	skipc
  9743     07CF  2FD1               	goto	u4301
  9744     07D0  2FD2               	goto	u4300
  9745     07D1                     u4301:
  9746     07D1  2FD9               	goto	l4503
  9747     07D2                     u4300:
  9748     07D2                     l4499:
  9749     07D2  0873               	movf	___awdiv@divisor,w
  9750     07D3  02F5               	subwf	___awdiv@dividend,f
  9751     07D4  0874               	movf	___awdiv@divisor+1,w
  9752     07D5  1C03               	skipc
  9753     07D6  03F6               	decf	___awdiv@dividend+1,f
  9754     07D7  02F6               	subwf	___awdiv@dividend+1,f
  9755     07D8                     l4501:
  9756     07D8  1422               	bsf	___awdiv@quotient,0
  9757     07D9                     l4503:
  9758     07D9  3001               	movlw	1
  9759     07DA                     u4315:
  9760     07DA  1003               	clrc
  9761     07DB  0CF4               	rrf	___awdiv@divisor+1,f
  9762     07DC  0CF3               	rrf	___awdiv@divisor,f
  9763     07DD  3EFF               	addlw	-1
  9764     07DE  1D03               	skipz
  9765     07DF  2FDA               	goto	u4315
  9766     07E0                     l4505:
  9767     07E0  3001               	movlw	1
  9768     07E1  02A0               	subwf	___awdiv@counter,f
  9769     07E2  1D03               	btfss	3,2
  9770     07E3  2FE5               	goto	u4321
  9771     07E4  2FE6               	goto	u4320
  9772     07E5                     u4321:
  9773     07E5  2FC1               	goto	l4497
  9774     07E6                     u4320:
  9775     07E6                     l4507:
  9776     07E6  0821               	movf	___awdiv@sign,w
  9777     07E7  1903               	btfsc	3,2
  9778     07E8  2FEA               	goto	u4331
  9779     07E9  2FEB               	goto	u4330
  9780     07EA                     u4331:
  9781     07EA  2FF0               	goto	l4511
  9782     07EB                     u4330:
  9783     07EB                     l4509:
  9784     07EB  09A2               	comf	___awdiv@quotient,f
  9785     07EC  09A3               	comf	___awdiv@quotient+1,f
  9786     07ED  0AA2               	incf	___awdiv@quotient,f
  9787     07EE  1903               	skipnz
  9788     07EF  0AA3               	incf	___awdiv@quotient+1,f
  9789     07F0                     l4511:
  9790     07F0  0823               	movf	___awdiv@quotient+1,w
  9791     07F1  00F4               	movwf	?___awdiv+1
  9792     07F2  0822               	movf	___awdiv@quotient,w
  9793     07F3  00F3               	movwf	?___awdiv
  9794     07F4                     l849:
  9795     07F4  0008               	return
  9796     07F5                     __end_of___awdiv:
  9797                           
  9798                           	psect	text42
  9799     13EB                     __ptext42:	
  9800 ;; *************** function _clear_log *****************
  9801 ;; Defined at:
  9802 ;;		line 330 in file "car_black_box_def.c"
  9803 ;; Parameters:    Size  Location     Type
  9804 ;;  reset_flag      1    wreg     unsigned char 
  9805 ;; Auto vars:     Size  Location     Type
  9806 ;;  reset_flag      1    7[COMMON] unsigned char 
  9807 ;; Return value:  Size  Location     Type
  9808 ;;                  1    wreg      void 
  9809 ;; Registers used:
  9810 ;;		wreg, fsr0l, fsr0h, status,2, status,0, btemp+1, pclath, cstack
  9811 ;; Tracked objects:
  9812 ;;		On entry : 0/0
  9813 ;;		On exit  : 0/0
  9814 ;;		Unchanged: 0/0
  9815 ;; Data sizes:     COMMON   BANK0   BANK1   BANK3   BANK2
  9816 ;;      Params:         0       0       0       0       0
  9817 ;;      Locals:         1       0       0       0       0
  9818 ;;      Temps:          0       3       0       0       0
  9819 ;;      Totals:         1       3       0       0       0
  9820 ;;Total ram usage:        4 bytes
  9821 ;; Hardware stack levels used: 1
  9822 ;; Hardware stack levels required when called: 3
  9823 ;; This function calls:
  9824 ;;		_clcd_print
  9825 ;; This function is called by:
  9826 ;;		_main
  9827 ;; This function uses a non-reentrant model
  9828 ;;
  9829                           
  9830     13EB                     _clear_log:	
  9831                           ;psect for function _clear_log
  9832                           
  9833                           
  9834                           ;incstack = 0
  9835                           ; Regs used in _clear_log: [wreg-fsr0h+status,2+status,0+btemp+1+pclath+cstack]
  9836                           ;clear_log@reset_flag stored from wreg
  9837     13EB  00F7               	movwf	clear_log@reset_flag
  9838     13EC                     l4861:
  9839                           
  9840                           ;car_black_box_def.c: 330: void clear_log(unsigned char reset_flag);car_black_box_def.c:
      +                           331: {;car_black_box_def.c: 332:     if (reset_flag == 0x04)
  9841     13EC  3004               	movlw	4
  9842     13ED  0677               	xorwf	clear_log@reset_flag,w
  9843     13EE  1D03               	btfss	3,2
  9844     13EF  2BF1               	goto	u4801
  9845     13F0  2BF2               	goto	u4800
  9846     13F1                     u4801:
  9847     13F1  2C1D               	goto	l439
  9848     13F2                     u4800:
  9849     13F2                     l4863:
  9850                           
  9851                           ;car_black_box_def.c: 333:     {;car_black_box_def.c: 334:         log_count = 0;
  9852     13F2  01F9               	clrf	_log_count
  9853     13F3                     l4865:
  9854                           
  9855                           ;car_black_box_def.c: 335:         pos = -1;
  9856     13F3  30FF               	movlw	255
  9857     13F4  00FA               	movwf	_pos
  9858     13F5                     l4867:
  9859                           
  9860                           ;car_black_box_def.c: 336:         clcd_print("LOGS ARE CLEARED", (0x80 + 0));
  9861     13F5  3077               	movlw	low (STR_27| (0+32768))
  9862     13F6  1283               	bcf	3,5	;RP0=0, select bank0
  9863     13F7  1303               	bcf	3,6	;RP1=0, select bank0
  9864     13F8  00A0               	movwf	clcd_print@str
  9865     13F9  3090               	movlw	high (STR_27| (0+32768))
  9866     13FA  00A1               	movwf	clcd_print@str+1
  9867     13FB  3080               	movlw	128
  9868     13FC  00A2               	movwf	clcd_print@addr
  9869     13FD  160A  118A  23B8  160A  118A  	fcall	_clcd_print
  9870     1402                     l4869:
  9871                           
  9872                           ;car_black_box_def.c: 337:         clcd_print("  SUCCESSFULLY  ", (0xC0 + 0));
  9873     1402  3022               	movlw	low (STR_28| (0+32768))
  9874     1403  1283               	bcf	3,5	;RP0=0, select bank0
  9875     1404  1303               	bcf	3,6	;RP1=0, select bank0
  9876     1405  00A0               	movwf	clcd_print@str
  9877     1406  3090               	movlw	high (STR_28| (0+32768))
  9878     1407  00A1               	movwf	clcd_print@str+1
  9879     1408  30C0               	movlw	192
  9880     1409  00A2               	movwf	clcd_print@addr
  9881     140A  160A  118A  23B8  160A  118A  	fcall	_clcd_print
  9882     140F                     l4871:
  9883                           
  9884                           ;car_black_box_def.c: 338:         _delay((unsigned long)((3000)*(20000000/4000.0)));
  9885     140F  304D               	movlw	77
  9886     1410  1283               	bcf	3,5	;RP0=0, select bank0
  9887     1411  1303               	bcf	3,6	;RP1=0, select bank0
  9888     1412  00A5               	movwf	??_clear_log+2
  9889     1413  3019               	movlw	25
  9890     1414  00A4               	movwf	??_clear_log+1
  9891     1415  304F               	movlw	79
  9892     1416  00A3               	movwf	??_clear_log
  9893     1417                     u6307:
  9894     1417  0BA3               	decfsz	??_clear_log,f
  9895     1418  2C17               	goto	u6307
  9896     1419  0BA4               	decfsz	??_clear_log+1,f
  9897     141A  2C17               	goto	u6307
  9898     141B  0BA5               	decfsz	??_clear_log+2,f
  9899     141C  2C17               	goto	u6307
  9900     141D                     l439:
  9901     141D  0008               	return
  9902     141E                     __end_of_clear_log:
  9903                           
  9904                           	psect	text43
  9905     0C1C                     __ptext43:	
  9906 ;; *************** function _change_password *****************
  9907 ;; Defined at:
  9908 ;;		line 467 in file "car_black_box_def.c"
  9909 ;; Parameters:    Size  Location     Type
  9910 ;;  reset_flag      1    wreg     unsigned char 
  9911 ;;  key             1   23[BANK0 ] unsigned char 
  9912 ;; Auto vars:     Size  Location     Type
  9913 ;;  reset_flag      1   27[BANK0 ] unsigned char 
  9914 ;;  i               2   28[BANK0 ] int 
  9915 ;;  saved_passwd    4    0        unsigned char [4]
  9916 ;; Return value:  Size  Location     Type
  9917 ;;                  1    wreg      unsigned char 
  9918 ;; Registers used:
  9919 ;;		wreg, fsr0l, fsr0h, status,2, status,0, btemp+1, pclath, cstack
  9920 ;; Tracked objects:
  9921 ;;		On entry : 0/0
  9922 ;;		On exit  : 0/0
  9923 ;;		Unchanged: 0/0
  9924 ;; Data sizes:     COMMON   BANK0   BANK1   BANK3   BANK2
  9925 ;;      Params:         0       1       0       0       0
  9926 ;;      Locals:         0       3       0       0       0
  9927 ;;      Temps:          0       3       0       0       0
  9928 ;;      Totals:         0       7       0       0       0
  9929 ;;Total ram usage:        7 bytes
  9930 ;; Hardware stack levels used: 1
  9931 ;; Hardware stack levels required when called: 4
  9932 ;; This function calls:
  9933 ;;		_clcd_print
  9934 ;;		_clcd_putch
  9935 ;;		_clcd_write
  9936 ;;		_clear_screen
  9937 ;;		_ext_eeprom_24C02_byte_write
  9938 ;;		_strncmp
  9939 ;; This function is called by:
  9940 ;;		_main
  9941 ;; This function uses a non-reentrant model
  9942 ;;
  9943                           
  9944     0C1C                     _change_password:	
  9945                           ;psect for function _change_password
  9946                           
  9947                           
  9948                           ;incstack = 0
  9949                           ; Regs used in _change_password: [wreg-fsr0h+status,2+status,0+btemp+1+pclath+cstack]
  9950                           ;change_password@reset_flag stored from wreg
  9951     0C1C  1283               	bcf	3,5	;RP0=0, select bank0
  9952     0C1D  1303               	bcf	3,6	;RP1=0, select bank0
  9953     0C1E  00BB               	movwf	change_password@reset_flag
  9954     0C1F                     l4975:
  9955                           
  9956                           ;car_black_box_def.c: 467: char change_password(unsigned char reset_flag, unsigned char 
      +                          key);car_black_box_def.c: 468: {;car_black_box_def.c: 469:     char saved_passwd[4];;car
      +                          _black_box_def.c: 470:     static char new_passwd_1[4], new_passwd_2[4];;car_black_box_d
      +                          ef.c: 471:     static int i, j;;car_black_box_def.c: 472:     if (reset_flag == 0x01)
  9957     0C1F  033B               	decf	change_password@reset_flag,w
  9958     0C20  1D03               	btfss	3,2
  9959     0C21  2C23               	goto	u5011
  9960     0C22  2C24               	goto	u5010
  9961     0C23                     u5011:
  9962     0C23  2C62               	goto	l5007
  9963     0C24                     u5010:
  9964     0C24                     l4977:
  9965                           
  9966                           ;car_black_box_def.c: 473:     {;car_black_box_def.c: 474:         clear_screen();
  9967     0C24  160A  158A  278D  120A  158A  	fcall	_clear_screen
  9968     0C29                     l4979:
  9969                           
  9970                           ;car_black_box_def.c: 475:         return_time = 5;
  9971     0C29  3005               	movlw	5
  9972     0C2A  1283               	bcf	3,5	;RP0=0, select bank0
  9973     0C2B  1303               	bcf	3,6	;RP1=0, select bank0
  9974     0C2C  00DF               	movwf	_return_time
  9975     0C2D  3000               	movlw	0
  9976     0C2E  00E0               	movwf	_return_time+1
  9977     0C2F                     l4981:
  9978                           
  9979                           ;car_black_box_def.c: 476:         clcd_print(" ENTER PASSWORD ", (0x80 + 0));
  9980     0C2F  30CC               	movlw	low (STR_12| (0+32768))
  9981     0C30  00A0               	movwf	clcd_print@str
  9982     0C31  3090               	movlw	high (STR_12| (0+32768))
  9983     0C32  00A1               	movwf	clcd_print@str+1
  9984     0C33  3080               	movlw	128
  9985     0C34  00A2               	movwf	clcd_print@addr
  9986     0C35  160A  118A  23B8  120A  158A  	fcall	_clcd_print
  9987     0C3A                     l4983:
  9988                           
  9989                           ;car_black_box_def.c: 477:         clcd_putch(' ', (0xC0 + 5));
  9990     0C3A  30C5               	movlw	197
  9991     0C3B  1283               	bcf	3,5	;RP0=0, select bank0
  9992     0C3C  1303               	bcf	3,6	;RP1=0, select bank0
  9993     0C3D  00B6               	movwf	clcd_putch@addr
  9994     0C3E  3020               	movlw	32
  9995     0C3F  160A  158A  27B0  120A  158A  	fcall	_clcd_putch
  9996     0C44                     l4985:
  9997                           
  9998                           ;car_black_box_def.c: 478:         clcd_write(0x0F, 0);
  9999     0C44  01F3               	clrf	clcd_write@mode
 10000     0C45  300F               	movlw	15
 10001     0C46  160A  118A  21C2  120A  158A  	fcall	_clcd_write
 10002     0C4B                     l4987:
 10003                           
 10004                           ;car_black_box_def.c: 479:         _delay((unsigned long)((100)*(20000000/4000000.0)));
 10005     0C4B  30A5               	movlw	165
 10006     0C4C  1283               	bcf	3,5	;RP0=0, select bank0
 10007     0C4D  1303               	bcf	3,6	;RP1=0, select bank0
 10008     0C4E  00B8               	movwf	??_change_password
 10009     0C4F                     u6317:
 10010     0C4F  0BB8               	decfsz	??_change_password,f
 10011     0C50  2C4F               	goto	u6317
 10012     0C51  2C52               	nop2
 10013     0C52                     l4989:
 10014                           
 10015                           ;car_black_box_def.c: 480:         i = j = 0;
 10016     0C52  1283               	bcf	3,5	;RP0=0, select bank0
 10017     0C53  1303               	bcf	3,6	;RP1=0, select bank0
 10018     0C54  01D1               	clrf	change_password@j
 10019     0C55  01D2               	clrf	change_password@j+1
 10020     0C56  01D3               	clrf	change_password@i
 10021     0C57  01D4               	clrf	change_password@i+1
 10022     0C58                     l4991:
 10023                           
 10024                           ;car_black_box_def.c: 481:         new_passwd_1[0] = '\0';
 10025     0C58  1683               	bsf	3,5	;RP0=1, select bank1
 10026     0C59  1303               	bcf	3,6	;RP1=0, select bank1
 10027     0C5A  01CF               	clrf	change_password@new_passwd_1^(0+128)
 10028     0C5B                     l4993:
 10029                           
 10030                           ;car_black_box_def.c: 482:         new_passwd_1[1] = '\0';
 10031     0C5B  01D0               	clrf	(change_password@new_passwd_1^(0+128)+1)
 10032     0C5C                     l4995:
 10033                           
 10034                           ;car_black_box_def.c: 483:         new_passwd_1[2] = '\0';
 10035     0C5C  01D1               	clrf	(change_password@new_passwd_1^(0+128)+2)
 10036     0C5D                     l4997:
 10037                           
 10038                           ;car_black_box_def.c: 484:         new_passwd_1[3] = '\0';
 10039     0C5D  01D2               	clrf	(change_password@new_passwd_1^(0+128)+3)
 10040     0C5E                     l4999:
 10041                           
 10042                           ;car_black_box_def.c: 485:         new_passwd_2[0] = '\0';
 10043     0C5E  01CB               	clrf	change_password@new_passwd_2^(0+128)
 10044     0C5F                     l5001:
 10045                           
 10046                           ;car_black_box_def.c: 486:         new_passwd_2[1] = '\0';
 10047     0C5F  01CC               	clrf	(change_password@new_passwd_2^(0+128)+1)
 10048     0C60                     l5003:
 10049                           
 10050                           ;car_black_box_def.c: 487:         new_passwd_2[2] = '\0';
 10051     0C60  01CD               	clrf	(change_password@new_passwd_2^(0+128)+2)
 10052     0C61                     l5005:
 10053                           
 10054                           ;car_black_box_def.c: 488:         new_passwd_2[3] = '\0';
 10055     0C61  01CE               	clrf	(change_password@new_passwd_2^(0+128)+3)
 10056     0C62                     l5007:
 10057                           
 10058                           ;car_black_box_def.c: 491:     if (key == 0x3F && press < 13)
 10059     0C62  303F               	movlw	63
 10060     0C63  1283               	bcf	3,5	;RP0=0, select bank0
 10061     0C64  0637               	xorwf	change_password@key,w
 10062     0C65  1D03               	btfss	3,2
 10063     0C66  2C68               	goto	u5021
 10064     0C67  2C69               	goto	u5020
 10065     0C68                     u5021:
 10066     0C68  2D08               	goto	l5055
 10067     0C69                     u5020:
 10068     0C69                     l5009:
 10069     0C69  085E               	movf	_press+1,w
 10070     0C6A  3A80               	xorlw	128
 10071     0C6B  00FF               	movwf	btemp+1
 10072     0C6C  3080               	movlw	128
 10073     0C6D  027F               	subwf	btemp+1,w
 10074     0C6E  1D03               	skipz
 10075     0C6F  2C72               	goto	u5035
 10076     0C70  300D               	movlw	13
 10077     0C71  025D               	subwf	_press,w
 10078     0C72                     u5035:
 10079     0C72  1803               	skipnc
 10080     0C73  2C75               	goto	u5031
 10081     0C74  2C76               	goto	u5030
 10082     0C75                     u5031:
 10083     0C75  2D08               	goto	l5055
 10084     0C76                     u5030:
 10085     0C76                     l5011:
 10086                           
 10087                           ;car_black_box_def.c: 492:     {;car_black_box_def.c: 494:         if (pre_key == 0x37)
 10088     0C76  3037               	movlw	55
 10089     0C77  1283               	bcf	3,5	;RP0=0, select bank0
 10090     0C78  1303               	bcf	3,6	;RP1=0, select bank0
 10091     0C79  0669               	xorwf	_pre_key,w
 10092     0C7A  1D03               	btfss	3,2
 10093     0C7B  2C7D               	goto	u5041
 10094     0C7C  2C7E               	goto	u5040
 10095     0C7D                     u5041:
 10096     0C7D  2CD1               	goto	l5033
 10097     0C7E                     u5040:
 10098     0C7E                     l5013:
 10099                           
 10100                           ;car_black_box_def.c: 495:         {;car_black_box_def.c: 496:             if (i < 4)
 10101     0C7E  0854               	movf	change_password@i+1,w
 10102     0C7F  3A80               	xorlw	128
 10103     0C80  00FF               	movwf	btemp+1
 10104     0C81  3080               	movlw	128
 10105     0C82  027F               	subwf	btemp+1,w
 10106     0C83  1D03               	skipz
 10107     0C84  2C87               	goto	u5055
 10108     0C85  3004               	movlw	4
 10109     0C86  0253               	subwf	change_password@i,w
 10110     0C87                     u5055:
 10111     0C87  1803               	skipnc
 10112     0C88  2C8A               	goto	u5051
 10113     0C89  2C8B               	goto	u5050
 10114     0C8A                     u5051:
 10115     0C8A  2CAC               	goto	l5023
 10116     0C8B                     u5050:
 10117     0C8B                     l5015:
 10118                           
 10119                           ;car_black_box_def.c: 497:             {;car_black_box_def.c: 498:                 new_p
      +                          asswd_1[i] = '1';
 10120     0C8B  1283               	bcf	3,5	;RP0=0, select bank0
 10121     0C8C  1303               	bcf	3,6	;RP1=0, select bank0
 10122     0C8D  0853               	movf	change_password@i,w
 10123     0C8E  3ECF               	addlw	(low (change_password@new_passwd_1| 0))& (0+255)
 10124     0C8F  0084               	movwf	4
 10125     0C90  3031               	movlw	49
 10126     0C91  1383               	bcf	3,7	;select IRP bank1
 10127     0C92  0080               	movwf	0
 10128     0C93                     l5017:
 10129                           
 10130                           ;car_black_box_def.c: 499:                 clcd_putch('*', (0xC0 + i + 6));
 10131     0C93  0853               	movf	change_password@i,w
 10132     0C94  3EC6               	addlw	198
 10133     0C95  00B6               	movwf	clcd_putch@addr
 10134     0C96  302A               	movlw	42
 10135     0C97  160A  158A  27B0  120A  158A  	fcall	_clcd_putch
 10136     0C9C                     l5019:
 10137                           
 10138                           ;car_black_box_def.c: 500:                 i++;
 10139     0C9C  3001               	movlw	1
 10140     0C9D  1283               	bcf	3,5	;RP0=0, select bank0
 10141     0C9E  1303               	bcf	3,6	;RP1=0, select bank0
 10142     0C9F  07D3               	addwf	change_password@i,f
 10143     0CA0  1803               	skipnc
 10144     0CA1  0AD4               	incf	change_password@i+1,f
 10145     0CA2  3000               	movlw	0
 10146     0CA3  07D4               	addwf	change_password@i+1,f
 10147     0CA4                     l5021:
 10148                           
 10149                           ;car_black_box_def.c: 501:                 pre_key = press = 0;
 10150     0CA4  01DD               	clrf	_press
 10151     0CA5  01DE               	clrf	_press+1
 10152     0CA6  1003               	clrc
 10153     0CA7  3000               	movlw	0
 10154     0CA8  1803               	btfsc	3,0
 10155     0CA9  3001               	movlw	1
 10156     0CAA  00E9               	movwf	_pre_key
 10157                           
 10158                           ;car_black_box_def.c: 502:             }
 10159     0CAB  2CC5               	goto	l5029
 10160     0CAC                     l5023:
 10161                           
 10162                           ;car_black_box_def.c: 504:             {;car_black_box_def.c: 505:                 new_p
      +                          asswd_2[j] = '1';
 10163     0CAC  1283               	bcf	3,5	;RP0=0, select bank0
 10164     0CAD  1303               	bcf	3,6	;RP1=0, select bank0
 10165     0CAE  0851               	movf	change_password@j,w
 10166     0CAF  3ECB               	addlw	(low (change_password@new_passwd_2| 0))& (0+255)
 10167     0CB0  0084               	movwf	4
 10168     0CB1  3031               	movlw	49
 10169     0CB2  1383               	bcf	3,7	;select IRP bank1
 10170     0CB3  0080               	movwf	0
 10171     0CB4                     l5025:
 10172                           
 10173                           ;car_black_box_def.c: 506:                 clcd_putch('*', (0xC0 + j + 6));
 10174     0CB4  0851               	movf	change_password@j,w
 10175     0CB5  3EC6               	addlw	198
 10176     0CB6  00B6               	movwf	clcd_putch@addr
 10177     0CB7  302A               	movlw	42
 10178     0CB8  160A  158A  27B0  120A  158A  	fcall	_clcd_putch
 10179     0CBD                     l5027:
 10180                           
 10181                           ;car_black_box_def.c: 507:                 j++;
 10182     0CBD  3001               	movlw	1
 10183     0CBE  1283               	bcf	3,5	;RP0=0, select bank0
 10184     0CBF  1303               	bcf	3,6	;RP1=0, select bank0
 10185     0CC0  07D1               	addwf	change_password@j,f
 10186     0CC1  1803               	skipnc
 10187     0CC2  0AD2               	incf	change_password@j+1,f
 10188     0CC3  3000               	movlw	0
 10189     0CC4  07D2               	addwf	change_password@j+1,f
 10190     0CC5                     l5029:
 10191                           
 10192                           ;car_black_box_def.c: 509:             return_time = 5;
 10193     0CC5  3005               	movlw	5
 10194     0CC6  00DF               	movwf	_return_time
 10195     0CC7  3000               	movlw	0
 10196     0CC8  00E0               	movwf	_return_time+1
 10197     0CC9                     l5031:
 10198                           
 10199                           ;car_black_box_def.c: 510:             pre_key = press = 0;
 10200     0CC9  01DD               	clrf	_press
 10201     0CCA  01DE               	clrf	_press+1
 10202     0CCB  1003               	clrc
 10203     0CCC  3000               	movlw	0
 10204     0CCD  1803               	btfsc	3,0
 10205     0CCE  3001               	movlw	1
 10206     0CCF  00E9               	movwf	_pre_key
 10207                           
 10208                           ;car_black_box_def.c: 511:         }
 10209     0CD0  2D08               	goto	l5055
 10210     0CD1                     l5033:
 10211     0CD1  302F               	movlw	47
 10212     0CD2  0669               	xorwf	_pre_key,w
 10213     0CD3  1D03               	btfss	3,2
 10214     0CD4  2CD6               	goto	u5061
 10215     0CD5  2CD7               	goto	u5060
 10216     0CD6                     u5061:
 10217     0CD6  2D08               	goto	l5055
 10218     0CD7                     u5060:
 10219     0CD7                     l5035:
 10220                           
 10221                           ;car_black_box_def.c: 513:         {;car_black_box_def.c: 514:             if (i < 4)
 10222     0CD7  0854               	movf	change_password@i+1,w
 10223     0CD8  3A80               	xorlw	128
 10224     0CD9  00FF               	movwf	btemp+1
 10225     0CDA  3080               	movlw	128
 10226     0CDB  027F               	subwf	btemp+1,w
 10227     0CDC  1D03               	skipz
 10228     0CDD  2CE0               	goto	u5075
 10229     0CDE  3004               	movlw	4
 10230     0CDF  0253               	subwf	change_password@i,w
 10231     0CE0                     u5075:
 10232     0CE0  1803               	skipnc
 10233     0CE1  2CE3               	goto	u5071
 10234     0CE2  2CE4               	goto	u5070
 10235     0CE3                     u5071:
 10236     0CE3  2CF6               	goto	l5045
 10237     0CE4                     u5070:
 10238     0CE4                     l5037:
 10239                           
 10240                           ;car_black_box_def.c: 515:             {;car_black_box_def.c: 516:                 new_p
      +                          asswd_1[i] = '0';
 10241     0CE4  1283               	bcf	3,5	;RP0=0, select bank0
 10242     0CE5  1303               	bcf	3,6	;RP1=0, select bank0
 10243     0CE6  0853               	movf	change_password@i,w
 10244     0CE7  3ECF               	addlw	(low (change_password@new_passwd_1| 0))& (0+255)
 10245     0CE8  0084               	movwf	4
 10246     0CE9  3030               	movlw	48
 10247     0CEA  1383               	bcf	3,7	;select IRP bank1
 10248     0CEB  0080               	movwf	0
 10249     0CEC                     l5039:
 10250                           
 10251                           ;car_black_box_def.c: 517:                 clcd_putch('*', (0xC0 + i + 6));
 10252     0CEC  0853               	movf	change_password@i,w
 10253     0CED  3EC6               	addlw	198
 10254     0CEE  00B6               	movwf	clcd_putch@addr
 10255     0CEF  302A               	movlw	42
 10256     0CF0  160A  158A  27B0  120A  158A  	fcall	_clcd_putch
 10257     0CF5  2C9C               	goto	l5019
 10258     0CF6                     l5045:
 10259                           
 10260                           ;car_black_box_def.c: 522:             {;car_black_box_def.c: 523:                 new_p
      +                          asswd_2[j] = '0';
 10261     0CF6  1283               	bcf	3,5	;RP0=0, select bank0
 10262     0CF7  1303               	bcf	3,6	;RP1=0, select bank0
 10263     0CF8  0851               	movf	change_password@j,w
 10264     0CF9  3ECB               	addlw	(low (change_password@new_passwd_2| 0))& (0+255)
 10265     0CFA  0084               	movwf	4
 10266     0CFB  3030               	movlw	48
 10267     0CFC  1383               	bcf	3,7	;select IRP bank1
 10268     0CFD  0080               	movwf	0
 10269     0CFE                     l5047:
 10270                           
 10271                           ;car_black_box_def.c: 524:                 clcd_putch('*', (0xC0 + j + 6));
 10272     0CFE  0851               	movf	change_password@j,w
 10273     0CFF  3EC6               	addlw	198
 10274     0D00  00B6               	movwf	clcd_putch@addr
 10275     0D01  302A               	movlw	42
 10276     0D02  160A  158A  27B0  120A  158A  	fcall	_clcd_putch
 10277     0D07  2CBD               	goto	l5027
 10278     0D08                     l5055:
 10279                           
 10280                           ;car_black_box_def.c: 532:     if (i == 4)
 10281     0D08  3004               	movlw	4
 10282     0D09  1283               	bcf	3,5	;RP0=0, select bank0
 10283     0D0A  1303               	bcf	3,6	;RP1=0, select bank0
 10284     0D0B  0653               	xorwf	change_password@i,w
 10285     0D0C  0454               	iorwf	change_password@i+1,w
 10286     0D0D  1D03               	btfss	3,2
 10287     0D0E  2D10               	goto	u5081
 10288     0D0F  2D11               	goto	u5080
 10289     0D10                     u5081:
 10290     0D10  2D34               	goto	l5065
 10291     0D11                     u5080:
 10292     0D11                     l5057:
 10293                           
 10294                           ;car_black_box_def.c: 533:     {;car_black_box_def.c: 534:         i++;
 10295     0D11  3001               	movlw	1
 10296     0D12  07D3               	addwf	change_password@i,f
 10297     0D13  1803               	skipnc
 10298     0D14  0AD4               	incf	change_password@i+1,f
 10299     0D15  3000               	movlw	0
 10300     0D16  07D4               	addwf	change_password@i+1,f
 10301     0D17                     l5059:
 10302                           
 10303                           ;car_black_box_def.c: 535:         clear_screen();
 10304     0D17  160A  158A  278D  120A  158A  	fcall	_clear_screen
 10305     0D1C                     l5061:
 10306                           
 10307                           ;car_black_box_def.c: 536:         clcd_print("RE-ENTER", (0x80 + 4));
 10308     0D1C  303F               	movlw	low (STR_35| (0+32768))
 10309     0D1D  1283               	bcf	3,5	;RP0=0, select bank0
 10310     0D1E  1303               	bcf	3,6	;RP1=0, select bank0
 10311     0D1F  00A0               	movwf	clcd_print@str
 10312     0D20  3091               	movlw	high (STR_35| (0+32768))
 10313     0D21  00A1               	movwf	clcd_print@str+1
 10314     0D22  3084               	movlw	132
 10315     0D23  00A2               	movwf	clcd_print@addr
 10316     0D24  160A  118A  23B8  120A  158A  	fcall	_clcd_print
 10317     0D29                     l5063:
 10318                           
 10319                           ;car_black_box_def.c: 537:         clcd_putch(' ', (0xC0 + 5));
 10320     0D29  30C5               	movlw	197
 10321     0D2A  1283               	bcf	3,5	;RP0=0, select bank0
 10322     0D2B  1303               	bcf	3,6	;RP1=0, select bank0
 10323     0D2C  00B6               	movwf	clcd_putch@addr
 10324     0D2D  3020               	movlw	32
 10325     0D2E  160A  158A  27B0  120A  158A  	fcall	_clcd_putch
 10326                           
 10327                           ;car_black_box_def.c: 538:     }
 10328     0D33  2DFB               	goto	l5125
 10329     0D34                     l5065:
 10330     0D34  3004               	movlw	4
 10331     0D35  0651               	xorwf	change_password@j,w
 10332     0D36  0452               	iorwf	change_password@j+1,w
 10333     0D37  1D03               	btfss	3,2
 10334     0D38  2D3A               	goto	u5091
 10335     0D39  2D3B               	goto	u5090
 10336     0D3A                     u5091:
 10337     0D3A  2DFB               	goto	l5125
 10338     0D3B                     u5090:
 10339     0D3B                     l5067:
 10340                           
 10341                           ;car_black_box_def.c: 540:     {;car_black_box_def.c: 541:         if (!strncmp(new_pass
      +                          wd_1, new_passwd_2, 4))
 10342     0D3B  30CB               	movlw	(low (change_password@new_passwd_2| 0))& (0+255)
 10343     0D3C  00F3               	movwf	strncmp@s2
 10344     0D3D  3004               	movlw	4
 10345     0D3E  00F4               	movwf	strncmp@len
 10346     0D3F  3000               	movlw	0
 10347     0D40  00F5               	movwf	strncmp@len+1
 10348     0D41  30CF               	movlw	(low (change_password@new_passwd_1| 0))& (0+255)
 10349     0D42  160A  118A  241E  120A  158A  	fcall	_strncmp
 10350     0D47  0873               	movf	?_strncmp,w
 10351     0D48  0474               	iorwf	?_strncmp+1,w
 10352     0D49  1D03               	btfss	3,2
 10353     0D4A  2D4C               	goto	u5101
 10354     0D4B  2D4D               	goto	u5100
 10355     0D4C                     u5101:
 10356     0D4C  2DA3               	goto	l5093
 10357     0D4D                     u5100:
 10358     0D4D                     l5069:
 10359                           
 10360                           ;car_black_box_def.c: 542:         {;car_black_box_def.c: 543:             clear_screen(
      +                          );
 10361     0D4D  160A  158A  278D  120A  158A  	fcall	_clear_screen
 10362     0D52                     l5071:
 10363                           
 10364                           ;car_black_box_def.c: 544:             for (int i = 0 ; i < 4 ; i++)
 10365     0D52  1283               	bcf	3,5	;RP0=0, select bank0
 10366     0D53  1303               	bcf	3,6	;RP1=0, select bank0
 10367     0D54  01BC               	clrf	change_password@i_442
 10368     0D55  01BD               	clrf	change_password@i_442+1
 10369     0D56                     l5077:
 10370                           
 10371                           ;car_black_box_def.c: 545:             {;car_black_box_def.c: 546:                 ext_e
      +                          eprom_24C02_byte_write(i, new_passwd_1[i]);
 10372     0D56  1283               	bcf	3,5	;RP0=0, select bank0
 10373     0D57  1303               	bcf	3,6	;RP1=0, select bank0
 10374     0D58  083C               	movf	change_password@i_442,w
 10375     0D59  3ECF               	addlw	(low (change_password@new_passwd_1| 0))& (0+255)
 10376     0D5A  0084               	movwf	4
 10377     0D5B  1383               	bcf	3,7	;select IRP bank1
 10378     0D5C  0800               	movf	0,w
 10379     0D5D  00F4               	movwf	ext_eeprom_24C02_byte_write@data
 10380     0D5E  083C               	movf	change_password@i_442,w
 10381     0D5F  160A  118A  21A4  120A  158A  	fcall	_ext_eeprom_24C02_byte_write
 10382     0D64                     l5079:
 10383                           
 10384                           ;car_black_box_def.c: 547:             }
 10385     0D64  3001               	movlw	1
 10386     0D65  1283               	bcf	3,5	;RP0=0, select bank0
 10387     0D66  1303               	bcf	3,6	;RP1=0, select bank0
 10388     0D67  07BC               	addwf	change_password@i_442,f
 10389     0D68  1803               	skipnc
 10390     0D69  0ABD               	incf	change_password@i_442+1,f
 10391     0D6A  3000               	movlw	0
 10392     0D6B  07BD               	addwf	change_password@i_442+1,f
 10393     0D6C                     l5081:
 10394     0D6C  083D               	movf	change_password@i_442+1,w
 10395     0D6D  3A80               	xorlw	128
 10396     0D6E  00FF               	movwf	btemp+1
 10397     0D6F  3080               	movlw	128
 10398     0D70  027F               	subwf	btemp+1,w
 10399     0D71  1D03               	skipz
 10400     0D72  2D75               	goto	u5115
 10401     0D73  3004               	movlw	4
 10402     0D74  023C               	subwf	change_password@i_442,w
 10403     0D75                     u5115:
 10404     0D75  1C03               	skipc
 10405     0D76  2D78               	goto	u5111
 10406     0D77  2D79               	goto	u5110
 10407     0D78                     u5111:
 10408     0D78  2D56               	goto	l5077
 10409     0D79                     u5110:
 10410     0D79                     l5083:
 10411                           
 10412                           ;car_black_box_def.c: 548:             clcd_print("PASSWORD CHANGED", (0x80 + 0));
 10413     0D79  3066               	movlw	low (STR_36| (0+32768))
 10414     0D7A  1283               	bcf	3,5	;RP0=0, select bank0
 10415     0D7B  1303               	bcf	3,6	;RP1=0, select bank0
 10416     0D7C  00A0               	movwf	clcd_print@str
 10417     0D7D  3090               	movlw	high (STR_36| (0+32768))
 10418     0D7E  00A1               	movwf	clcd_print@str+1
 10419     0D7F  3080               	movlw	128
 10420     0D80  00A2               	movwf	clcd_print@addr
 10421     0D81  160A  118A  23B8  120A  158A  	fcall	_clcd_print
 10422                           
 10423                           ;car_black_box_def.c: 549:             clcd_print("  SUCCESSFULLY  ", (0xC0 + 0));
 10424     0D86  3022               	movlw	low (STR_28| (0+32768))
 10425     0D87  1283               	bcf	3,5	;RP0=0, select bank0
 10426     0D88  1303               	bcf	3,6	;RP1=0, select bank0
 10427     0D89  00A0               	movwf	clcd_print@str
 10428     0D8A  3090               	movlw	high (STR_28| (0+32768))
 10429     0D8B  00A1               	movwf	clcd_print@str+1
 10430     0D8C  30C0               	movlw	192
 10431     0D8D  00A2               	movwf	clcd_print@addr
 10432     0D8E  160A  118A  23B8  120A  158A  	fcall	_clcd_print
 10433     0D93                     l5085:
 10434                           
 10435                           ;car_black_box_def.c: 550:              _delay((unsigned long)((3000)*(20000000/4000.0))
      +                          );
 10436     0D93  304D               	movlw	77
 10437     0D94  1283               	bcf	3,5	;RP0=0, select bank0
 10438     0D95  1303               	bcf	3,6	;RP1=0, select bank0
 10439     0D96  00BA               	movwf	??_change_password+2
 10440     0D97  3019               	movlw	25
 10441     0D98  00B9               	movwf	??_change_password+1
 10442     0D99  304F               	movlw	79
 10443     0D9A  00B8               	movwf	??_change_password
 10444     0D9B                     u6327:
 10445     0D9B  0BB8               	decfsz	??_change_password,f
 10446     0D9C  2D9B               	goto	u6327
 10447     0D9D  0BB9               	decfsz	??_change_password+1,f
 10448     0D9E  2D9B               	goto	u6327
 10449     0D9F  0BBA               	decfsz	??_change_password+2,f
 10450     0DA0  2D9B               	goto	u6327
 10451     0DA1                     l5087:
 10452                           
 10453                           ;car_black_box_def.c: 551:             return 0x11;
 10454     0DA1  3011               	movlw	17
 10455     0DA2  2E09               	goto	l510
 10456     0DA3                     l5093:
 10457                           
 10458                           ;car_black_box_def.c: 554:         {;car_black_box_def.c: 555:             i = j = 0;
 10459     0DA3  1283               	bcf	3,5	;RP0=0, select bank0
 10460     0DA4  1303               	bcf	3,6	;RP1=0, select bank0
 10461     0DA5  01D1               	clrf	change_password@j
 10462     0DA6  01D2               	clrf	change_password@j+1
 10463     0DA7  01D3               	clrf	change_password@i
 10464     0DA8  01D4               	clrf	change_password@i+1
 10465     0DA9                     l5095:
 10466                           
 10467                           ;car_black_box_def.c: 556:             clcd_print("PASSWORD DIDN'T ", (0x80 + 0));
 10468     0DA9  3055               	movlw	low (STR_38| (0+32768))
 10469     0DAA  00A0               	movwf	clcd_print@str
 10470     0DAB  3090               	movlw	high (STR_38| (0+32768))
 10471     0DAC  00A1               	movwf	clcd_print@str+1
 10472     0DAD  3080               	movlw	128
 10473     0DAE  00A2               	movwf	clcd_print@addr
 10474     0DAF  160A  118A  23B8  120A  158A  	fcall	_clcd_print
 10475     0DB4                     l5097:
 10476                           
 10477                           ;car_black_box_def.c: 557:             clcd_print("MATCH, TRY AGAIN", (0xC0 + 0));
 10478     0DB4  3088               	movlw	low (STR_39| (0+32768))
 10479     0DB5  1283               	bcf	3,5	;RP0=0, select bank0
 10480     0DB6  1303               	bcf	3,6	;RP1=0, select bank0
 10481     0DB7  00A0               	movwf	clcd_print@str
 10482     0DB8  3090               	movlw	high (STR_39| (0+32768))
 10483     0DB9  00A1               	movwf	clcd_print@str+1
 10484     0DBA  30C0               	movlw	192
 10485     0DBB  00A2               	movwf	clcd_print@addr
 10486     0DBC  160A  118A  23B8  120A  158A  	fcall	_clcd_print
 10487     0DC1                     l5099:
 10488                           
 10489                           ;car_black_box_def.c: 558:              _delay((unsigned long)((3000)*(20000000/4000.0))
      +                          );
 10490     0DC1  304D               	movlw	77
 10491     0DC2  1283               	bcf	3,5	;RP0=0, select bank0
 10492     0DC3  1303               	bcf	3,6	;RP1=0, select bank0
 10493     0DC4  00BA               	movwf	??_change_password+2
 10494     0DC5  3019               	movlw	25
 10495     0DC6  00B9               	movwf	??_change_password+1
 10496     0DC7  304F               	movlw	79
 10497     0DC8  00B8               	movwf	??_change_password
 10498     0DC9                     u6337:
 10499     0DC9  0BB8               	decfsz	??_change_password,f
 10500     0DCA  2DC9               	goto	u6337
 10501     0DCB  0BB9               	decfsz	??_change_password+1,f
 10502     0DCC  2DC9               	goto	u6337
 10503     0DCD  0BBA               	decfsz	??_change_password+2,f
 10504     0DCE  2DC9               	goto	u6337
 10505     0DCF                     l5101:
 10506                           
 10507                           ;car_black_box_def.c: 559:             clear_screen();
 10508     0DCF  160A  158A  278D  120A  158A  	fcall	_clear_screen
 10509     0DD4                     l5103:
 10510                           
 10511                           ;car_black_box_def.c: 560:             clcd_print(" ENTER PASSWORD ", (0x80 + 0));
 10512     0DD4  30CC               	movlw	low (STR_12| (0+32768))
 10513     0DD5  1283               	bcf	3,5	;RP0=0, select bank0
 10514     0DD6  1303               	bcf	3,6	;RP1=0, select bank0
 10515     0DD7  00A0               	movwf	clcd_print@str
 10516     0DD8  3090               	movlw	high (STR_12| (0+32768))
 10517     0DD9  00A1               	movwf	clcd_print@str+1
 10518     0DDA  3080               	movlw	128
 10519     0DDB  00A2               	movwf	clcd_print@addr
 10520     0DDC  160A  118A  23B8  120A  158A  	fcall	_clcd_print
 10521     0DE1                     l5105:
 10522                           
 10523                           ;car_black_box_def.c: 561:             clcd_putch(' ', (0xC0 + 5));
 10524     0DE1  30C5               	movlw	197
 10525     0DE2  1283               	bcf	3,5	;RP0=0, select bank0
 10526     0DE3  1303               	bcf	3,6	;RP1=0, select bank0
 10527     0DE4  00B6               	movwf	clcd_putch@addr
 10528     0DE5  3020               	movlw	32
 10529     0DE6  160A  158A  27B0  120A  158A  	fcall	_clcd_putch
 10530     0DEB                     l5107:
 10531                           
 10532                           ;car_black_box_def.c: 562:             new_passwd_1[0] = '\0';
 10533     0DEB  1683               	bsf	3,5	;RP0=1, select bank1
 10534     0DEC  1303               	bcf	3,6	;RP1=0, select bank1
 10535     0DED  01CF               	clrf	change_password@new_passwd_1^(0+128)
 10536     0DEE                     l5109:
 10537                           
 10538                           ;car_black_box_def.c: 563:             new_passwd_1[1] = '\0';
 10539     0DEE  01D0               	clrf	(change_password@new_passwd_1^(0+128)+1)
 10540     0DEF                     l5111:
 10541                           
 10542                           ;car_black_box_def.c: 564:             new_passwd_1[2] = '\0';
 10543     0DEF  01D1               	clrf	(change_password@new_passwd_1^(0+128)+2)
 10544     0DF0                     l5113:
 10545                           
 10546                           ;car_black_box_def.c: 565:             new_passwd_1[3] = '\0';
 10547     0DF0  01D2               	clrf	(change_password@new_passwd_1^(0+128)+3)
 10548     0DF1                     l5115:
 10549                           
 10550                           ;car_black_box_def.c: 566:             new_passwd_2[0] = '\0';
 10551     0DF1  01CB               	clrf	change_password@new_passwd_2^(0+128)
 10552     0DF2                     l5117:
 10553                           
 10554                           ;car_black_box_def.c: 567:             new_passwd_2[1] = '\0';
 10555     0DF2  01CC               	clrf	(change_password@new_passwd_2^(0+128)+1)
 10556     0DF3                     l5119:
 10557                           
 10558                           ;car_black_box_def.c: 568:             new_passwd_2[2] = '\0';
 10559     0DF3  01CD               	clrf	(change_password@new_passwd_2^(0+128)+2)
 10560     0DF4                     l5121:
 10561                           
 10562                           ;car_black_box_def.c: 569:             new_passwd_2[3] = '\0';
 10563     0DF4  01CE               	clrf	(change_password@new_passwd_2^(0+128)+3)
 10564     0DF5                     l5123:
 10565                           
 10566                           ;car_black_box_def.c: 570:             return_time = 5;
 10567     0DF5  3005               	movlw	5
 10568     0DF6  1283               	bcf	3,5	;RP0=0, select bank0
 10569     0DF7  1303               	bcf	3,6	;RP1=0, select bank0
 10570     0DF8  00DF               	movwf	_return_time
 10571     0DF9  3000               	movlw	0
 10572     0DFA  00E0               	movwf	_return_time+1
 10573     0DFB                     l5125:
 10574                           
 10575                           ;car_black_box_def.c: 573:     _delay((unsigned long)((81)*(20000000/4000.0)));
 10576     0DFB  3003               	movlw	3
 10577     0DFC  1283               	bcf	3,5	;RP0=0, select bank0
 10578     0DFD  1303               	bcf	3,6	;RP1=0, select bank0
 10579     0DFE  00BA               	movwf	??_change_password+2
 10580     0DFF  300E               	movlw	14
 10581     0E00  00B9               	movwf	??_change_password+1
 10582     0E01  30F5               	movlw	245
 10583     0E02  00B8               	movwf	??_change_password
 10584     0E03                     u6347:
 10585     0E03  0BB8               	decfsz	??_change_password,f
 10586     0E04  2E03               	goto	u6347
 10587     0E05  0BB9               	decfsz	??_change_password+1,f
 10588     0E06  2E03               	goto	u6347
 10589     0E07  0BBA               	decfsz	??_change_password+2,f
 10590     0E08  2E03               	goto	u6347
 10591     0E09                     l510:
 10592     0E09  0008               	return
 10593     0E0A                     __end_of_change_password:
 10594                           
 10595                           	psect	text44
 10596     141E                     __ptext44:	
 10597 ;; *************** function _strncmp *****************
 10598 ;; Defined at:
 10599 ;;		line 4 in file "C:\Program Files\Microchip\xc8\v2.40\pic\sources\c90\common\strncmp.c"
 10600 ;; Parameters:    Size  Location     Type
 10601 ;;  s1              1    wreg     PTR const unsigned char 
 10602 ;;		 -> change_password@new_passwd_1(4), login@saved_passwd(4), 
 10603 ;;  s2              1    3[COMMON] PTR const unsigned char 
 10604 ;;		 -> change_password@new_passwd_2(4), login@new_passwd(4), 
 10605 ;;  len             2    4[COMMON] unsigned int 
 10606 ;; Auto vars:     Size  Location     Type
 10607 ;;  s1              1    8[COMMON] PTR const unsigned char 
 10608 ;;		 -> change_password@new_passwd_1(4), login@saved_passwd(4), 
 10609 ;; Return value:  Size  Location     Type
 10610 ;;                  2    3[COMMON] int 
 10611 ;; Registers used:
 10612 ;;		wreg, fsr0l, fsr0h, status,2, status,0
 10613 ;; Tracked objects:
 10614 ;;		On entry : 0/0
 10615 ;;		On exit  : 0/0
 10616 ;;		Unchanged: 0/0
 10617 ;; Data sizes:     COMMON   BANK0   BANK1   BANK3   BANK2
 10618 ;;      Params:         3       0       0       0       0
 10619 ;;      Locals:         1       0       0       0       0
 10620 ;;      Temps:          2       0       0       0       0
 10621 ;;      Totals:         6       0       0       0       0
 10622 ;;Total ram usage:        6 bytes
 10623 ;; Hardware stack levels used: 1
 10624 ;; Hardware stack levels required when called: 1
 10625 ;; This function calls:
 10626 ;;		Nothing
 10627 ;; This function is called by:
 10628 ;;		_login
 10629 ;;		_change_password
 10630 ;; This function uses a non-reentrant model
 10631 ;;
 10632                           
 10633     141E                     _strncmp:	
 10634                           ;psect for function _strncmp
 10635                           
 10636                           
 10637                           ;incstack = 0
 10638                           ; Regs used in _strncmp: [wreg-fsr0h+status,2+status,0]
 10639                           ;strncmp@s1 stored from wreg
 10640     141E  00F8               	movwf	strncmp@s1
 10641     141F                     l4351:
 10642     141F  2C4B               	goto	l1161
 10643     1420                     l4353:
 10644     1420  0878               	movf	strncmp@s1,w
 10645     1421  0084               	movwf	4
 10646     1422  1383               	bcf	3,7	;select IRP bank0
 10647     1423  0800               	movf	0,w
 10648     1424  1903               	btfsc	3,2
 10649     1425  2C27               	goto	u4011
 10650     1426  2C28               	goto	u4010
 10651     1427                     u4011:
 10652     1427  2C34               	goto	l4357
 10653     1428                     u4010:
 10654     1428                     l4355:
 10655     1428  0873               	movf	strncmp@s2,w
 10656     1429  0084               	movwf	4
 10657     142A  0800               	movf	0,w
 10658     142B  00F6               	movwf	??_strncmp
 10659     142C  0878               	movf	strncmp@s1,w
 10660     142D  0084               	movwf	4
 10661     142E  0800               	movf	0,w
 10662     142F  0676               	xorwf	??_strncmp,w
 10663     1430  1903               	skipnz
 10664     1431  2C33               	goto	u4021
 10665     1432  2C34               	goto	u4020
 10666     1433                     u4021:
 10667     1433  2C43               	goto	l4361
 10668     1434                     u4020:
 10669     1434                     l4357:
 10670     1434  0873               	movf	strncmp@s2,w
 10671     1435  0084               	movwf	4
 10672     1436  0800               	movf	0,w
 10673     1437  00F6               	movwf	??_strncmp
 10674     1438  0878               	movf	strncmp@s1,w
 10675     1439  0084               	movwf	4
 10676     143A  0800               	movf	0,w
 10677     143B  00F7               	movwf	??_strncmp+1
 10678     143C  0876               	movf	??_strncmp,w
 10679     143D  0277               	subwf	??_strncmp+1,w
 10680     143E  00F3               	movwf	?_strncmp
 10681     143F  01F4               	clrf	?_strncmp+1
 10682     1440  1C03               	skipc
 10683     1441  03F4               	decf	?_strncmp+1,f
 10684     1442  2C5B               	goto	l1166
 10685     1443                     l4361:
 10686     1443  3001               	movlw	1
 10687     1444  00F6               	movwf	??_strncmp
 10688     1445  0876               	movf	??_strncmp,w
 10689     1446  07F8               	addwf	strncmp@s1,f
 10690     1447  3001               	movlw	1
 10691     1448  00F6               	movwf	??_strncmp
 10692     1449  0876               	movf	??_strncmp,w
 10693     144A  07F3               	addwf	strncmp@s2,f
 10694     144B                     l1161:
 10695     144B  3001               	movlw	1
 10696     144C  02F4               	subwf	strncmp@len,f
 10697     144D  3000               	movlw	0
 10698     144E  1C03               	skipc
 10699     144F  03F5               	decf	strncmp@len+1,f
 10700     1450  02F5               	subwf	strncmp@len+1,f
 10701     1451  0A74               	incf	strncmp@len,w
 10702     1452  1D03               	skipz
 10703     1453  2C58               	goto	u4031
 10704     1454  0A75               	incf	strncmp@len+1,w
 10705     1455  1D03               	btfss	3,2
 10706     1456  2C58               	goto	u4031
 10707     1457  2C59               	goto	u4030
 10708     1458                     u4031:
 10709     1458  2C20               	goto	l4353
 10710     1459                     u4030:
 10711     1459                     l4363:
 10712     1459  01F3               	clrf	?_strncmp
 10713     145A  01F4               	clrf	?_strncmp+1
 10714     145B                     l1166:
 10715     145B  0008               	return
 10716     145C                     __end_of_strncmp:
 10717                           
 10718                           	psect	text45
 10719     11A4                     __ptext45:	
 10720 ;; *************** function _ext_eeprom_24C02_byte_write *****************
 10721 ;; Defined at:
 10722 ;;		line 20 in file "EEprom.c"
 10723 ;; Parameters:    Size  Location     Type
 10724 ;;  addr            1    wreg     unsigned char 
 10725 ;;  data            1    4[COMMON] unsigned char 
 10726 ;; Auto vars:     Size  Location     Type
 10727 ;;  addr            1    5[COMMON] unsigned char 
 10728 ;; Return value:  Size  Location     Type
 10729 ;;                  1    wreg      void 
 10730 ;; Registers used:
 10731 ;;		wreg, status,2, status,0, pclath, cstack
 10732 ;; Tracked objects:
 10733 ;;		On entry : 0/0
 10734 ;;		On exit  : 0/0
 10735 ;;		Unchanged: 0/0
 10736 ;; Data sizes:     COMMON   BANK0   BANK1   BANK3   BANK2
 10737 ;;      Params:         1       0       0       0       0
 10738 ;;      Locals:         1       0       0       0       0
 10739 ;;      Temps:          0       0       0       0       0
 10740 ;;      Totals:         2       0       0       0       0
 10741 ;;Total ram usage:        2 bytes
 10742 ;; Hardware stack levels used: 1
 10743 ;; Hardware stack levels required when called: 3
 10744 ;; This function calls:
 10745 ;;		_i2c_start
 10746 ;;		_i2c_stop
 10747 ;;		_i2c_write
 10748 ;; This function is called by:
 10749 ;;		_change_password
 10750 ;;		_ext_eeprom_24C02_str_write
 10751 ;; This function uses a non-reentrant model
 10752 ;;
 10753                           
 10754     11A4                     _ext_eeprom_24C02_byte_write:	
 10755                           ;psect for function _ext_eeprom_24C02_byte_write
 10756                           
 10757                           
 10758                           ;incstack = 0
 10759                           ; Regs used in _ext_eeprom_24C02_byte_write: [wreg+status,2+status,0+pclath+cstack]
 10760                           ;ext_eeprom_24C02_byte_write@addr stored from wreg
 10761     11A4  00F5               	movwf	ext_eeprom_24C02_byte_write@addr
 10762     11A5                     l4161:
 10763                           
 10764                           ;EEprom.c: 20: void ext_eeprom_24C02_byte_write(unsigned char addr, char data);EEprom.c:
      +                           21: {;EEprom.c: 22:     i2c_start();
 10765     11A5  160A  158A  2756  160A  118A  	fcall	_i2c_start
 10766                           
 10767                           ;EEprom.c: 23:     i2c_write(0b10100000);
 10768     11AA  30A0               	movlw	160
 10769     11AB  160A  158A  275F  160A  118A  	fcall	_i2c_write
 10770                           
 10771                           ;EEprom.c: 24:     i2c_write(addr);
 10772     11B0  0875               	movf	ext_eeprom_24C02_byte_write@addr,w
 10773     11B1  160A  158A  275F  160A  118A  	fcall	_i2c_write
 10774                           
 10775                           ;EEprom.c: 25:     i2c_write(data);
 10776     11B6  0874               	movf	ext_eeprom_24C02_byte_write@data,w
 10777     11B7  160A  158A  275F  160A  118A  	fcall	_i2c_write
 10778                           
 10779                           ;EEprom.c: 26:     i2c_stop();
 10780     11BC  120A  158A  2000  160A  118A  	fcall	_i2c_stop
 10781     11C1                     l527:
 10782     11C1  0008               	return
 10783     11C2                     __end_of_ext_eeprom_24C02_byte_write:
 10784                           
 10785                           	psect	text46
 10786     1F5F                     __ptext46:	
 10787 ;; *************** function _i2c_write *****************
 10788 ;; Defined at:
 10789 ;;		line 65 in file "i2c.c"
 10790 ;; Parameters:    Size  Location     Type
 10791 ;;  data            1    wreg     unsigned char 
 10792 ;; Auto vars:     Size  Location     Type
 10793 ;;  data            1    3[COMMON] unsigned char 
 10794 ;; Return value:  Size  Location     Type
 10795 ;;                  2  229[None  ] int 
 10796 ;; Registers used:
 10797 ;;		wreg, status,2, status,0, pclath, cstack
 10798 ;; Tracked objects:
 10799 ;;		On entry : 0/0
 10800 ;;		On exit  : 0/0
 10801 ;;		Unchanged: 0/0
 10802 ;; Data sizes:     COMMON   BANK0   BANK1   BANK3   BANK2
 10803 ;;      Params:         0       0       0       0       0
 10804 ;;      Locals:         1       0       0       0       0
 10805 ;;      Temps:          0       0       0       0       0
 10806 ;;      Totals:         1       0       0       0       0
 10807 ;;Total ram usage:        1 bytes
 10808 ;; Hardware stack levels used: 1
 10809 ;; Hardware stack levels required when called: 2
 10810 ;; This function calls:
 10811 ;;		_i2c_wait_for_idle
 10812 ;; This function is called by:
 10813 ;;		_read_ds1307
 10814 ;;		_write_ds1307
 10815 ;;		_ext_eeprom_24C02_read
 10816 ;;		_ext_eeprom_24C02_byte_write
 10817 ;; This function uses a non-reentrant model
 10818 ;;
 10819                           
 10820     1F5F                     _i2c_write:	
 10821                           ;psect for function _i2c_write
 10822                           
 10823                           
 10824                           ;incstack = 0
 10825                           ; Regs used in _i2c_write: [wreg+status,2+status,0+pclath+cstack]
 10826                           ;i2c_write@data stored from wreg
 10827     1F5F  00F3               	movwf	i2c_write@data
 10828     1F60                     l4123:
 10829                           
 10830                           ;i2c.c: 65: int i2c_write(unsigned char data);i2c.c: 66: {;i2c.c: 67:     i2c_wait_for_i
      +                          dle();
 10831     1F60  160A  158A  2780  160A  158A  	fcall	_i2c_wait_for_idle
 10832     1F65                     l4125:
 10833                           
 10834                           ;i2c.c: 68:     SSPBUF = data;
 10835     1F65  0873               	movf	i2c_write@data,w
 10836     1F66  1283               	bcf	3,5	;RP0=0, select bank0
 10837     1F67  1303               	bcf	3,6	;RP1=0, select bank0
 10838     1F68  0093               	movwf	19	;volatile
 10839     1F69                     l4127:
 10840     1F69                     l296:	
 10841                           ;i2c.c: 70:     return !ACKSTAT;;	Return value of _i2c_write is never used
 10842                           
 10843     1F69  0008               	return
 10844     1F6A                     __end_of_i2c_write:
 10845                           
 10846                           	psect	text47
 10847     0800                     __ptext47:	
 10848 ;; *************** function _i2c_stop *****************
 10849 ;; Defined at:
 10850 ;;		line 35 in file "i2c.c"
 10851 ;; Parameters:    Size  Location     Type
 10852 ;;		None
 10853 ;; Auto vars:     Size  Location     Type
 10854 ;;		None
 10855 ;; Return value:  Size  Location     Type
 10856 ;;                  1    wreg      void 
 10857 ;; Registers used:
 10858 ;;		wreg, status,2, status,0, pclath, cstack
 10859 ;; Tracked objects:
 10860 ;;		On entry : 0/0
 10861 ;;		On exit  : 0/0
 10862 ;;		Unchanged: 0/0
 10863 ;; Data sizes:     COMMON   BANK0   BANK1   BANK3   BANK2
 10864 ;;      Params:         0       0       0       0       0
 10865 ;;      Locals:         0       0       0       0       0
 10866 ;;      Temps:          0       0       0       0       0
 10867 ;;      Totals:         0       0       0       0       0
 10868 ;;Total ram usage:        0 bytes
 10869 ;; Hardware stack levels used: 1
 10870 ;; Hardware stack levels required when called: 2
 10871 ;; This function calls:
 10872 ;;		_i2c_wait_for_idle
 10873 ;; This function is called by:
 10874 ;;		_read_ds1307
 10875 ;;		_write_ds1307
 10876 ;;		_i2c_rep_start
 10877 ;;		_ext_eeprom_24C02_read
 10878 ;;		_ext_eeprom_24C02_byte_write
 10879 ;; This function uses a non-reentrant model
 10880 ;;
 10881                           
 10882     0800                     _i2c_stop:	
 10883                           ;psect for function _i2c_stop
 10884                           
 10885     0800                     l4119:	
 10886                           ;incstack = 0
 10887                           ; Regs used in _i2c_stop: [wreg+status,2+status,0+pclath+cstack]
 10888                           
 10889                           
 10890                           ;i2c.c: 37:     i2c_wait_for_idle();
 10891     0800  160A  158A  2780  120A  158A  	fcall	_i2c_wait_for_idle
 10892     0805                     l4121:
 10893                           
 10894                           ;i2c.c: 38:     PEN = 1;
 10895     0805  1683               	bsf	3,5	;RP0=1, select bank1
 10896     0806  1303               	bcf	3,6	;RP1=0, select bank1
 10897     0807  1511               	bsf	17,2	;volatile
 10898     0808                     l288:
 10899     0808  0008               	return
 10900     0809                     __end_of_i2c_stop:
 10901                           
 10902                           	psect	text48
 10903     1F56                     __ptext48:	
 10904 ;; *************** function _i2c_start *****************
 10905 ;; Defined at:
 10906 ;;		line 22 in file "i2c.c"
 10907 ;; Parameters:    Size  Location     Type
 10908 ;;		None
 10909 ;; Auto vars:     Size  Location     Type
 10910 ;;		None
 10911 ;; Return value:  Size  Location     Type
 10912 ;;                  1    wreg      void 
 10913 ;; Registers used:
 10914 ;;		wreg, status,2, status,0, pclath, cstack
 10915 ;; Tracked objects:
 10916 ;;		On entry : 0/0
 10917 ;;		On exit  : 0/0
 10918 ;;		Unchanged: 0/0
 10919 ;; Data sizes:     COMMON   BANK0   BANK1   BANK3   BANK2
 10920 ;;      Params:         0       0       0       0       0
 10921 ;;      Locals:         0       0       0       0       0
 10922 ;;      Temps:          0       0       0       0       0
 10923 ;;      Totals:         0       0       0       0       0
 10924 ;;Total ram usage:        0 bytes
 10925 ;; Hardware stack levels used: 1
 10926 ;; Hardware stack levels required when called: 2
 10927 ;; This function calls:
 10928 ;;		_i2c_wait_for_idle
 10929 ;; This function is called by:
 10930 ;;		_read_ds1307
 10931 ;;		_write_ds1307
 10932 ;;		_i2c_rep_start
 10933 ;;		_ext_eeprom_24C02_read
 10934 ;;		_ext_eeprom_24C02_byte_write
 10935 ;; This function uses a non-reentrant model
 10936 ;;
 10937                           
 10938     1F56                     _i2c_start:	
 10939                           ;psect for function _i2c_start
 10940                           
 10941     1F56                     l4115:	
 10942                           ;incstack = 0
 10943                           ; Regs used in _i2c_start: [wreg+status,2+status,0+pclath+cstack]
 10944                           
 10945                           
 10946                           ;i2c.c: 24:     i2c_wait_for_idle();
 10947     1F56  160A  158A  2780  160A  158A  	fcall	_i2c_wait_for_idle
 10948     1F5B                     l4117:
 10949                           
 10950                           ;i2c.c: 25:     SEN = 1;
 10951     1F5B  1683               	bsf	3,5	;RP0=1, select bank1
 10952     1F5C  1303               	bcf	3,6	;RP1=0, select bank1
 10953     1F5D  1411               	bsf	17,0	;volatile
 10954     1F5E                     l282:
 10955     1F5E  0008               	return
 10956     1F5F                     __end_of_i2c_start:
 10957                           
 10958                           	psect	text49
 10959     1F80                     __ptext49:	
 10960 ;; *************** function _i2c_wait_for_idle *****************
 10961 ;; Defined at:
 10962 ;;		line 16 in file "i2c.c"
 10963 ;; Parameters:    Size  Location     Type
 10964 ;;		None
 10965 ;; Auto vars:     Size  Location     Type
 10966 ;;		None
 10967 ;; Return value:  Size  Location     Type
 10968 ;;                  1    wreg      void 
 10969 ;; Registers used:
 10970 ;;		wreg, status,2
 10971 ;; Tracked objects:
 10972 ;;		On entry : 0/0
 10973 ;;		On exit  : 0/0
 10974 ;;		Unchanged: 0/0
 10975 ;; Data sizes:     COMMON   BANK0   BANK1   BANK3   BANK2
 10976 ;;      Params:         0       0       0       0       0
 10977 ;;      Locals:         0       0       0       0       0
 10978 ;;      Temps:          0       0       0       0       0
 10979 ;;      Totals:         0       0       0       0       0
 10980 ;;Total ram usage:        0 bytes
 10981 ;; Hardware stack levels used: 1
 10982 ;; Hardware stack levels required when called: 1
 10983 ;; This function calls:
 10984 ;;		Nothing
 10985 ;; This function is called by:
 10986 ;;		_i2c_start
 10987 ;;		_i2c_stop
 10988 ;;		_i2c_read
 10989 ;;		_i2c_write
 10990 ;; This function uses a non-reentrant model
 10991 ;;
 10992                           
 10993     1F80                     _i2c_wait_for_idle:	
 10994                           ;psect for function _i2c_wait_for_idle
 10995                           
 10996     1F80                     l4111:	
 10997                           ;incstack = 0
 10998                           ; Regs used in _i2c_wait_for_idle: [wreg+status,2]
 10999                           
 11000     1F80                     l276:	
 11001                           ;i2c.c: 19:     while (R_nW || (SSPCON2 & 0x1F));
 11002                           
 11003     1F80  1683               	bsf	3,5	;RP0=1, select bank1
 11004     1F81  1303               	bcf	3,6	;RP1=0, select bank1
 11005     1F82  1914               	btfsc	20,2	;volatile
 11006     1F83  2F85               	goto	u3721
 11007     1F84  2F86               	goto	u3720
 11008     1F85                     u3721:
 11009     1F85  2F80               	goto	l276
 11010     1F86                     u3720:
 11011     1F86                     l4113:
 11012     1F86  0811               	movf	17,w	;volatile
 11013     1F87  391F               	andlw	31
 11014     1F88  1D03               	btfss	3,2
 11015     1F89  2F8B               	goto	u3731
 11016     1F8A  2F8C               	goto	u3730
 11017     1F8B                     u3731:
 11018     1F8B  2F80               	goto	l276
 11019     1F8C                     u3730:
 11020     1F8C                     l279:
 11021     1F8C  0008               	return
 11022     1F8D                     __end_of_i2c_wait_for_idle:
 11023                           
 11024                           	psect	text50
 11025     1F8D                     __ptext50:	
 11026 ;; *************** function _clear_screen *****************
 11027 ;; Defined at:
 11028 ;;		line 89 in file "car_black_box_def.c"
 11029 ;; Parameters:    Size  Location     Type
 11030 ;;		None
 11031 ;; Auto vars:     Size  Location     Type
 11032 ;;		None
 11033 ;; Return value:  Size  Location     Type
 11034 ;;                  1    wreg      void 
 11035 ;; Registers used:
 11036 ;;		wreg, status,2, status,0, pclath, cstack
 11037 ;; Tracked objects:
 11038 ;;		On entry : 0/0
 11039 ;;		On exit  : 0/0
 11040 ;;		Unchanged: 0/0
 11041 ;; Data sizes:     COMMON   BANK0   BANK1   BANK3   BANK2
 11042 ;;      Params:         0       0       0       0       0
 11043 ;;      Locals:         0       0       0       0       0
 11044 ;;      Temps:          2       0       0       0       0
 11045 ;;      Totals:         2       0       0       0       0
 11046 ;;Total ram usage:        2 bytes
 11047 ;; Hardware stack levels used: 1
 11048 ;; Hardware stack levels required when called: 2
 11049 ;; This function calls:
 11050 ;;		_clcd_write
 11051 ;; This function is called by:
 11052 ;;		_main
 11053 ;;		_login
 11054 ;;		_login_menu
 11055 ;;		_view_log
 11056 ;;		_edit_time
 11057 ;;		_change_password
 11058 ;; This function uses a non-reentrant model
 11059 ;;
 11060                           
 11061     1F8D                     _clear_screen:	
 11062                           ;psect for function _clear_screen
 11063                           
 11064     1F8D                     l4309:	
 11065                           ;incstack = 0
 11066                           ; Regs used in _clear_screen: [wreg+status,2+status,0+pclath+cstack]
 11067                           
 11068                           
 11069                           ;car_black_box_def.c: 91:     clcd_write(0x01, 0);
 11070     1F8D  01F3               	clrf	clcd_write@mode
 11071     1F8E  3001               	movlw	1
 11072     1F8F  160A  118A  21C2  160A  158A  	fcall	_clcd_write
 11073     1F94                     l4311:
 11074                           
 11075                           ;car_black_box_def.c: 92:     _delay((unsigned long)((500)*(20000000/4000000.0)));
 11076     1F94  3004               	movlw	4
 11077     1F95  00F8               	movwf	??_clear_screen+1
 11078     1F96  303D               	movlw	61
 11079     1F97  00F7               	movwf	??_clear_screen
 11080     1F98                     u6357:
 11081     1F98  0BF7               	decfsz	??_clear_screen,f
 11082     1F99  2F98               	goto	u6357
 11083     1F9A  0BF8               	decfsz	??_clear_screen+1,f
 11084     1F9B  2F98               	goto	u6357
 11085     1F9C  2F9D               	nop2
 11086     1F9D                     l372:
 11087     1F9D  0008               	return
 11088     1F9E                     __end_of_clear_screen:
 11089                           
 11090                           	psect	text51
 11091     1FB0                     __ptext51:	
 11092 ;; *************** function _clcd_putch *****************
 11093 ;; Defined at:
 11094 ;;		line 49 in file "clcd.c"
 11095 ;; Parameters:    Size  Location     Type
 11096 ;;  data            1    wreg     const unsigned char 
 11097 ;;  addr            1   22[BANK0 ] unsigned char 
 11098 ;; Auto vars:     Size  Location     Type
 11099 ;;  data            1    8[COMMON] const unsigned char 
 11100 ;; Return value:  Size  Location     Type
 11101 ;;                  1    wreg      void 
 11102 ;; Registers used:
 11103 ;;		wreg, status,2, status,0, pclath, cstack
 11104 ;; Tracked objects:
 11105 ;;		On entry : 0/0
 11106 ;;		On exit  : 0/0
 11107 ;;		Unchanged: 0/0
 11108 ;; Data sizes:     COMMON   BANK0   BANK1   BANK3   BANK2
 11109 ;;      Params:         0       1       0       0       0
 11110 ;;      Locals:         1       0       0       0       0
 11111 ;;      Temps:          0       0       0       0       0
 11112 ;;      Totals:         1       1       0       0       0
 11113 ;;Total ram usage:        2 bytes
 11114 ;; Hardware stack levels used: 1
 11115 ;; Hardware stack levels required when called: 2
 11116 ;; This function calls:
 11117 ;;		_clcd_write
 11118 ;; This function is called by:
 11119 ;;		_main
 11120 ;;		_display_time
 11121 ;;		_display_default_screen
 11122 ;;		_login
 11123 ;;		_login_menu
 11124 ;;		_print_log
 11125 ;;		_edit_time
 11126 ;;		_change_password
 11127 ;; This function uses a non-reentrant model
 11128 ;;
 11129                           
 11130     1FB0                     _clcd_putch:	
 11131                           ;psect for function _clcd_putch
 11132                           
 11133                           
 11134                           ;incstack = 0
 11135                           ; Regs used in _clcd_putch: [wreg+status,2+status,0+pclath+cstack]
 11136                           ;clcd_putch@data stored from wreg
 11137     1FB0  00F8               	movwf	clcd_putch@data
 11138     1FB1                     l4173:
 11139                           
 11140                           ;clcd.c: 49: void clcd_putch(const char data, unsigned char addr);clcd.c: 50: {;clcd.c: 
      +                          51:     clcd_write(addr, 0);
 11141     1FB1  01F3               	clrf	clcd_write@mode
 11142     1FB2  1283               	bcf	3,5	;RP0=0, select bank0
 11143     1FB3  1303               	bcf	3,6	;RP1=0, select bank0
 11144     1FB4  0836               	movf	clcd_putch@addr,w
 11145     1FB5  160A  118A  21C2  160A  158A  	fcall	_clcd_write
 11146                           
 11147                           ;clcd.c: 52:     clcd_write(data, 1);
 11148     1FBA  01F3               	clrf	clcd_write@mode
 11149     1FBB  0AF3               	incf	clcd_write@mode,f
 11150     1FBC  0878               	movf	clcd_putch@data,w
 11151     1FBD  160A  118A  21C2  160A  158A  	fcall	_clcd_write
 11152     1FC2                     l177:
 11153     1FC2  0008               	return
 11154     1FC3                     __end_of_clcd_putch:
 11155                           
 11156                           	psect	text52
 11157     13B8                     __ptext52:	
 11158 ;; *************** function _clcd_print *****************
 11159 ;; Defined at:
 11160 ;;		line 55 in file "clcd.c"
 11161 ;; Parameters:    Size  Location     Type
 11162 ;;  str             2    0[BANK0 ] PTR const unsigned char 
 11163 ;;		 -> STR_40(17), STR_39(17), STR_38(17), STR_37(17), 
 11164 ;;		 -> STR_36(17), STR_35(9), STR_34(17), STR_33(9), 
 11165 ;;		 -> STR_32(17), STR_31(17), STR_30(17), STR_29(17), 
 11166 ;;		 -> STR_28(17), STR_27(17), STR_26(17), STR_25(17), 
 11167 ;;		 -> STR_24(17), STR_23(17), STR_22(15), STR_21(16), 
 11168 ;;		 -> STR_20(14), STR_19(16), STR_18(17), STR_17(14), 
 11169 ;;		 -> STR_16(9), STR_15(13), STR_14(10), STR_13(9), 
 11170 ;;		 -> STR_12(17), main@event(3), 
 11171 ;;  addr            1    2[BANK0 ] unsigned char 
 11172 ;; Auto vars:     Size  Location     Type
 11173 ;;		None
 11174 ;; Return value:  Size  Location     Type
 11175 ;;                  1    wreg      void 
 11176 ;; Registers used:
 11177 ;;		wreg, fsr0l, fsr0h, status,2, status,0, btemp+1, pclath, cstack
 11178 ;; Tracked objects:
 11179 ;;		On entry : 0/0
 11180 ;;		On exit  : 0/0
 11181 ;;		Unchanged: 0/0
 11182 ;; Data sizes:     COMMON   BANK0   BANK1   BANK3   BANK2
 11183 ;;      Params:         0       3       0       0       0
 11184 ;;      Locals:         0       0       0       0       0
 11185 ;;      Temps:          0       0       0       0       0
 11186 ;;      Totals:         0       3       0       0       0
 11187 ;;Total ram usage:        3 bytes
 11188 ;; Hardware stack levels used: 1
 11189 ;; Hardware stack levels required when called: 2
 11190 ;; This function calls:
 11191 ;;		_clcd_write
 11192 ;; This function is called by:
 11193 ;;		_main
 11194 ;;		_display_default_screen
 11195 ;;		_login
 11196 ;;		_login_menu
 11197 ;;		_view_log
 11198 ;;		_clear_log
 11199 ;;		_download_log
 11200 ;;		_edit_time
 11201 ;;		_change_password
 11202 ;; This function uses a non-reentrant model
 11203 ;;
 11204                           
 11205     13B8                     _clcd_print:	
 11206                           ;psect for function _clcd_print
 11207                           
 11208     13B8                     l4313:	
 11209                           ;incstack = 0
 11210                           ; Regs used in _clcd_print: [wreg-fsr0h+status,2+status,0+btemp+1+pclath+cstack]
 11211                           
 11212                           
 11213                           ;clcd.c: 55: void clcd_print(const char *str, unsigned char addr);clcd.c: 56: {;clcd.c: 
      +                          57:     clcd_write(addr, 0);
 11214     13B8  01F3               	clrf	clcd_write@mode
 11215     13B9  1283               	bcf	3,5	;RP0=0, select bank0
 11216     13BA  1303               	bcf	3,6	;RP1=0, select bank0
 11217     13BB  0822               	movf	clcd_print@addr,w
 11218     13BC  160A  118A  21C2  160A  118A  	fcall	_clcd_write
 11219                           
 11220                           ;clcd.c: 59:     while (*str != '\0')
 11221     13C1  2BDA               	goto	l4319
 11222     13C2                     l4315:
 11223                           
 11224                           ;clcd.c: 60:     {;clcd.c: 61:         clcd_write(*str, 1);
 11225     13C2  01F3               	clrf	clcd_write@mode
 11226     13C3  0AF3               	incf	clcd_write@mode,f
 11227     13C4  0821               	movf	clcd_print@str+1,w
 11228     13C5  00FF               	movwf	btemp+1
 11229     13C6  0820               	movf	clcd_print@str,w
 11230     13C7  0084               	movwf	4
 11231     13C8  160A  158A  2000  160A  118A  	fcall	stringtab
 11232     13CD  160A  118A  21C2  160A  118A  	fcall	_clcd_write
 11233     13D2                     l4317:
 11234                           
 11235                           ;clcd.c: 62:         str++;
 11236     13D2  3001               	movlw	1
 11237     13D3  1283               	bcf	3,5	;RP0=0, select bank0
 11238     13D4  1303               	bcf	3,6	;RP1=0, select bank0
 11239     13D5  07A0               	addwf	clcd_print@str,f
 11240     13D6  1803               	skipnc
 11241     13D7  0AA1               	incf	clcd_print@str+1,f
 11242     13D8  3000               	movlw	0
 11243     13D9  07A1               	addwf	clcd_print@str+1,f
 11244     13DA                     l4319:
 11245                           
 11246                           ;clcd.c: 59:     while (*str != '\0')
 11247     13DA  1283               	bcf	3,5	;RP0=0, select bank0
 11248     13DB  1303               	bcf	3,6	;RP1=0, select bank0
 11249     13DC  0821               	movf	clcd_print@str+1,w
 11250     13DD  00FF               	movwf	btemp+1
 11251     13DE  0820               	movf	clcd_print@str,w
 11252     13DF  0084               	movwf	4
 11253     13E0  160A  158A  2000  160A  118A  	fcall	stringtab
 11254     13E5  3A00               	xorlw	0
 11255     13E6  1D03               	skipz
 11256     13E7  2BE9               	goto	u3951
 11257     13E8  2BEA               	goto	u3950
 11258     13E9                     u3951:
 11259     13E9  2BC2               	goto	l4315
 11260     13EA                     u3950:
 11261     13EA                     l183:
 11262     13EA  0008               	return
 11263     13EB                     __end_of_clcd_print:
 11264                           
 11265                           	psect	text53
 11266     11C2                     __ptext53:	
 11267 ;; *************** function _clcd_write *****************
 11268 ;; Defined at:
 11269 ;;		line 4 in file "clcd.c"
 11270 ;; Parameters:    Size  Location     Type
 11271 ;;  byte            1    wreg     unsigned char 
 11272 ;;  mode            1    3[COMMON] unsigned char 
 11273 ;; Auto vars:     Size  Location     Type
 11274 ;;  byte            1    6[COMMON] unsigned char 
 11275 ;; Return value:  Size  Location     Type
 11276 ;;                  1    wreg      void 
 11277 ;; Registers used:
 11278 ;;		wreg
 11279 ;; Tracked objects:
 11280 ;;		On entry : 0/0
 11281 ;;		On exit  : 0/0
 11282 ;;		Unchanged: 0/0
 11283 ;; Data sizes:     COMMON   BANK0   BANK1   BANK3   BANK2
 11284 ;;      Params:         1       0       0       0       0
 11285 ;;      Locals:         1       0       0       0       0
 11286 ;;      Temps:          2       0       0       0       0
 11287 ;;      Totals:         4       0       0       0       0
 11288 ;;Total ram usage:        4 bytes
 11289 ;; Hardware stack levels used: 1
 11290 ;; Hardware stack levels required when called: 1
 11291 ;; This function calls:
 11292 ;;		Nothing
 11293 ;; This function is called by:
 11294 ;;		_main
 11295 ;;		_init_display_controller
 11296 ;;		_clcd_putch
 11297 ;;		_clcd_print
 11298 ;;		_clear_screen
 11299 ;;		_login
 11300 ;;		_change_password
 11301 ;; This function uses a non-reentrant model
 11302 ;;
 11303                           
 11304     11C2                     _clcd_write:	
 11305                           ;psect for function _clcd_write
 11306                           
 11307                           
 11308                           ;incstack = 0
 11309                           ; Regs used in _clcd_write: [wreg]
 11310                           ;clcd_write@byte stored from wreg
 11311     11C2  00F6               	movwf	clcd_write@byte
 11312     11C3                     l4147:
 11313                           
 11314                           ;clcd.c: 4: void clcd_write(unsigned char byte, unsigned char mode);clcd.c: 5: {;clcd.c:
      +                           6:     RE2 = mode;
 11315     11C3  1873               	btfsc	clcd_write@mode,0
 11316     11C4  29C6               	goto	u3751
 11317     11C5  29CA               	goto	u3750
 11318     11C6                     u3751:
 11319     11C6  1283               	bcf	3,5	;RP0=0, select bank0
 11320     11C7  1303               	bcf	3,6	;RP1=0, select bank0
 11321     11C8  1509               	bsf	9,2	;volatile
 11322     11C9  29CD               	goto	u3764
 11323     11CA                     u3750:
 11324     11CA  1283               	bcf	3,5	;RP0=0, select bank0
 11325     11CB  1303               	bcf	3,6	;RP1=0, select bank0
 11326     11CC  1109               	bcf	9,2	;volatile
 11327     11CD                     u3764:
 11328     11CD                     l4149:
 11329                           
 11330                           ;clcd.c: 7:     PORTD = byte;
 11331     11CD  0876               	movf	clcd_write@byte,w
 11332     11CE  0088               	movwf	8	;volatile
 11333     11CF                     l4151:
 11334                           
 11335                           ;clcd.c: 9:     RE1 = 1;
 11336     11CF  1489               	bsf	9,1	;volatile
 11337                           
 11338                           ;clcd.c: 10:     _delay((unsigned long)((100)*(20000000/4000000.0)));
 11339     11D0  30A6               	movlw	166
 11340     11D1  00F4               	movwf	??_clcd_write
 11341     11D2                     u6367:
 11342     11D2  0BF4               	decfsz	??_clcd_write,f
 11343     11D3  29D2               	goto	u6367
 11344     11D4  0000               	nop
 11345     11D5                     l4153:
 11346                           
 11347                           ;clcd.c: 11:     RE1 = 0;
 11348     11D5  1283               	bcf	3,5	;RP0=0, select bank0
 11349     11D6  1303               	bcf	3,6	;RP1=0, select bank0
 11350     11D7  1089               	bcf	9,1	;volatile
 11351                           
 11352                           ;clcd.c: 13:     _delay((unsigned long)((4100)*(20000000/4000000.0)));
 11353     11D8  301B               	movlw	27
 11354     11D9  00F5               	movwf	??_clcd_write+1
 11355     11DA  309E               	movlw	158
 11356     11DB  00F4               	movwf	??_clcd_write
 11357     11DC                     u6377:
 11358     11DC  0BF4               	decfsz	??_clcd_write,f
 11359     11DD  29DC               	goto	u6377
 11360     11DE  0BF5               	decfsz	??_clcd_write+1,f
 11361     11DF  29DC               	goto	u6377
 11362     11E0  0000               	nop
 11363     11E1                     l168:
 11364     11E1  0008               	return
 11365     11E2                     __end_of_clcd_write:
 11366                           
 11367                           	psect	text54
 11368     149F                     __ptext54:	
 11369 ;; *************** function ___lwdiv *****************
 11370 ;; Defined at:
 11371 ;;		line 5 in file "C:\Program Files\Microchip\xc8\v2.40\pic\sources\c90\common\lwdiv.c"
 11372 ;; Parameters:    Size  Location     Type
 11373 ;;  divisor         2    0[BANK0 ] unsigned int 
 11374 ;;  dividend        2    2[BANK0 ] unsigned int 
 11375 ;; Auto vars:     Size  Location     Type
 11376 ;;  quotient        2    5[BANK0 ] unsigned int 
 11377 ;;  counter         1    4[BANK0 ] unsigned char 
 11378 ;; Return value:  Size  Location     Type
 11379 ;;                  2    0[BANK0 ] unsigned int 
 11380 ;; Registers used:
 11381 ;;		wreg, status,2, status,0
 11382 ;; Tracked objects:
 11383 ;;		On entry : 0/0
 11384 ;;		On exit  : 0/0
 11385 ;;		Unchanged: 0/0
 11386 ;; Data sizes:     COMMON   BANK0   BANK1   BANK3   BANK2
 11387 ;;      Params:         0       4       0       0       0
 11388 ;;      Locals:         0       3       0       0       0
 11389 ;;      Temps:          1       0       0       0       0
 11390 ;;      Totals:         1       7       0       0       0
 11391 ;;Total ram usage:        8 bytes
 11392 ;; Hardware stack levels used: 1
 11393 ;; Hardware stack levels required when called: 1
 11394 ;; This function calls:
 11395 ;;		Nothing
 11396 ;; This function is called by:
 11397 ;;		_main
 11398 ;; This function uses a non-reentrant model
 11399 ;;
 11400                           
 11401     149F                     ___lwdiv:	
 11402                           ;psect for function ___lwdiv
 11403                           
 11404     149F                     l5127:	
 11405                           ;incstack = 0
 11406                           ; Regs used in ___lwdiv: [wreg+status,2+status,0]
 11407                           
 11408     149F  1283               	bcf	3,5	;RP0=0, select bank0
 11409     14A0  1303               	bcf	3,6	;RP1=0, select bank0
 11410     14A1  01A5               	clrf	___lwdiv@quotient
 11411     14A2  01A6               	clrf	___lwdiv@quotient+1
 11412     14A3                     l5129:
 11413     14A3  0820               	movf	___lwdiv@divisor,w
 11414     14A4  0421               	iorwf	___lwdiv@divisor+1,w
 11415     14A5  1903               	btfsc	3,2
 11416     14A6  2CA8               	goto	u5121
 11417     14A7  2CA9               	goto	u5120
 11418     14A8                     u5121:
 11419     14A8  2CE0               	goto	l5149
 11420     14A9                     u5120:
 11421     14A9                     l5131:
 11422     14A9  01A4               	clrf	___lwdiv@counter
 11423     14AA  0AA4               	incf	___lwdiv@counter,f
 11424     14AB  2CB7               	goto	l5137
 11425     14AC                     l5133:
 11426     14AC  3001               	movlw	1
 11427     14AD                     u5135:
 11428     14AD  1003               	clrc
 11429     14AE  0DA0               	rlf	___lwdiv@divisor,f
 11430     14AF  0DA1               	rlf	___lwdiv@divisor+1,f
 11431     14B0  3EFF               	addlw	-1
 11432     14B1  1D03               	skipz
 11433     14B2  2CAD               	goto	u5135
 11434     14B3                     l5135:
 11435     14B3  3001               	movlw	1
 11436     14B4  00F7               	movwf	??___lwdiv
 11437     14B5  0877               	movf	??___lwdiv,w
 11438     14B6  07A4               	addwf	___lwdiv@counter,f
 11439     14B7                     l5137:
 11440     14B7  1FA1               	btfss	___lwdiv@divisor+1,7
 11441     14B8  2CBA               	goto	u5141
 11442     14B9  2CBB               	goto	u5140
 11443     14BA                     u5141:
 11444     14BA  2CAC               	goto	l5133
 11445     14BB                     u5140:
 11446     14BB                     l5139:
 11447     14BB  3001               	movlw	1
 11448     14BC                     u5155:
 11449     14BC  1003               	clrc
 11450     14BD  0DA5               	rlf	___lwdiv@quotient,f
 11451     14BE  0DA6               	rlf	___lwdiv@quotient+1,f
 11452     14BF  3EFF               	addlw	-1
 11453     14C0  1D03               	skipz
 11454     14C1  2CBC               	goto	u5155
 11455     14C2  0821               	movf	___lwdiv@divisor+1,w
 11456     14C3  0223               	subwf	___lwdiv@dividend+1,w
 11457     14C4  1D03               	skipz
 11458     14C5  2CC8               	goto	u5165
 11459     14C6  0820               	movf	___lwdiv@divisor,w
 11460     14C7  0222               	subwf	___lwdiv@dividend,w
 11461     14C8                     u5165:
 11462     14C8  1C03               	skipc
 11463     14C9  2CCB               	goto	u5161
 11464     14CA  2CCC               	goto	u5160
 11465     14CB                     u5161:
 11466     14CB  2CD3               	goto	l5145
 11467     14CC                     u5160:
 11468     14CC                     l5141:
 11469     14CC  0820               	movf	___lwdiv@divisor,w
 11470     14CD  02A2               	subwf	___lwdiv@dividend,f
 11471     14CE  0821               	movf	___lwdiv@divisor+1,w
 11472     14CF  1C03               	skipc
 11473     14D0  03A3               	decf	___lwdiv@dividend+1,f
 11474     14D1  02A3               	subwf	___lwdiv@dividend+1,f
 11475     14D2                     l5143:
 11476     14D2  1425               	bsf	___lwdiv@quotient,0
 11477     14D3                     l5145:
 11478     14D3  3001               	movlw	1
 11479     14D4                     u5175:
 11480     14D4  1003               	clrc
 11481     14D5  0CA1               	rrf	___lwdiv@divisor+1,f
 11482     14D6  0CA0               	rrf	___lwdiv@divisor,f
 11483     14D7  3EFF               	addlw	-1
 11484     14D8  1D03               	skipz
 11485     14D9  2CD4               	goto	u5175
 11486     14DA                     l5147:
 11487     14DA  3001               	movlw	1
 11488     14DB  02A4               	subwf	___lwdiv@counter,f
 11489     14DC  1D03               	btfss	3,2
 11490     14DD  2CDF               	goto	u5181
 11491     14DE  2CE0               	goto	u5180
 11492     14DF                     u5181:
 11493     14DF  2CBB               	goto	l5139
 11494     14E0                     u5180:
 11495     14E0                     l5149:
 11496     14E0  0826               	movf	___lwdiv@quotient+1,w
 11497     14E1  00A1               	movwf	?___lwdiv+1
 11498     14E2  0825               	movf	___lwdiv@quotient,w
 11499     14E3  00A0               	movwf	?___lwdiv
 11500     14E4                     l968:
 11501     14E4  0008               	return
 11502     14E5                     __end_of___lwdiv:
 11503                           
 11504                           	psect	text55
 11505     083D                     __ptext55:	
 11506 ;; *************** function _isr *****************
 11507 ;; Defined at:
 11508 ;;		line 5 in file "isr.c"
 11509 ;; Parameters:    Size  Location     Type
 11510 ;;		None
 11511 ;; Auto vars:     Size  Location     Type
 11512 ;;		None
 11513 ;; Return value:  Size  Location     Type
 11514 ;;                  1    wreg      void 
 11515 ;; Registers used:
 11516 ;;		wreg, status,2, status,0, btemp+1
 11517 ;; Tracked objects:
 11518 ;;		On entry : 0/0
 11519 ;;		On exit  : 0/0
 11520 ;;		Unchanged: 0/0
 11521 ;; Data sizes:     COMMON   BANK0   BANK1   BANK3   BANK2
 11522 ;;      Params:         0       0       0       0       0
 11523 ;;      Locals:         0       0       0       0       0
 11524 ;;      Temps:          3       0       0       0       0
 11525 ;;      Totals:         3       0       0       0       0
 11526 ;;Total ram usage:        3 bytes
 11527 ;; Hardware stack levels used: 1
 11528 ;; This function calls:
 11529 ;;		Nothing
 11530 ;; This function is called by:
 11531 ;;		Interrupt level 1
 11532 ;; This function uses a non-reentrant model
 11533 ;;
 11534                           
 11535     083D                     _isr:	
 11536                           ;psect for function _isr
 11537                           
 11538     083D                     i1l4003:
 11539                           
 11540                           ;isr.c: 7:     static unsigned int count = 0;;isr.c: 9:     if (TMR2IF == 1)
 11541     083D  1283               	bcf	3,5	;RP0=0, select bank0
 11542     083E  1303               	bcf	3,6	;RP1=0, select bank0
 11543     083F  1C8C               	btfss	12,1	;volatile
 11544     0840  2842               	goto	u367_21
 11545     0841  2843               	goto	u367_20
 11546     0842                     u367_21:
 11547     0842  289B               	goto	i1l551
 11548     0843                     u367_20:
 11549     0843                     i1l4005:
 11550                           
 11551                           ;isr.c: 10:     {;isr.c: 11:         if (++count == 1250)
 11552     0843  3001               	movlw	1
 11553     0844  1683               	bsf	3,5	;RP0=1, select bank1
 11554     0845  1303               	bcf	3,6	;RP1=0, select bank1
 11555     0846  07B0               	addwf	isr@count^(0+128),f
 11556     0847  1803               	skipnc
 11557     0848  0AB1               	incf	(isr@count+1)^(0+128),f
 11558     0849  3000               	movlw	0
 11559     084A  07B1               	addwf	(isr@count+1)^(0+128),f
 11560     084B  30E2               	movlw	226
 11561     084C  0630               	xorwf	isr@count^(0+128),w
 11562     084D  3004               	movlw	4
 11563     084E  1903               	skipnz
 11564     084F  0631               	xorwf	(isr@count+1)^(0+128),w
 11565     0850  1D03               	btfss	3,2
 11566     0851  2853               	goto	u368_21
 11567     0852  2854               	goto	u368_20
 11568     0853                     u368_21:
 11569     0853  2898               	goto	i1l4019
 11570     0854                     u368_20:
 11571     0854                     i1l4007:
 11572                           
 11573                           ;isr.c: 12:         {;isr.c: 13:             count = 0;
 11574     0854  01B0               	clrf	isr@count^(0+128)
 11575     0855  01B1               	clrf	(isr@count+1)^(0+128)
 11576     0856                     i1l4009:
 11577                           
 11578                           ;isr.c: 15:             if (sec > 0)
 11579     0856  1283               	bcf	3,5	;RP0=0, select bank0
 11580     0857  1303               	bcf	3,6	;RP1=0, select bank0
 11581     0858  1BD0               	btfsc	_sec+3,7
 11582     0859  286A               	goto	u369_21
 11583     085A  0850               	movf	_sec+3,w
 11584     085B  1D03               	btfss	3,2
 11585     085C  286B               	goto	u369_20
 11586     085D  084F               	movf	_sec+2,w
 11587     085E  1D03               	btfss	3,2
 11588     085F  286B               	goto	u369_20
 11589     0860  084E               	movf	_sec+1,w
 11590     0861  1D03               	btfss	3,2
 11591     0862  286B               	goto	u369_20
 11592     0863  3001               	movlw	1
 11593     0864  024D               	subwf	_sec,w
 11594     0865  1D03               	skipz
 11595     0866  2867               	goto	u369_23
 11596     0867                     u369_23:
 11597     0867  1C03               	btfss	3,0
 11598     0868  286A               	goto	u369_21
 11599     0869  286B               	goto	u369_20
 11600     086A                     u369_21:
 11601     086A  2879               	goto	i1l4013
 11602     086B                     u369_20:
 11603     086B                     i1l4011:
 11604                           
 11605                           ;isr.c: 16:                 sec--;
 11606     086B  30FF               	movlw	255
 11607     086C  1283               	bcf	3,5	;RP0=0, select bank0
 11608     086D  1303               	bcf	3,6	;RP1=0, select bank0
 11609     086E  07CD               	addwf	_sec,f
 11610     086F  30FF               	movlw	255
 11611     0870  1C03               	skipc
 11612     0871  07CE               	addwf	_sec+1,f
 11613     0872  30FF               	movlw	255
 11614     0873  1C03               	skipc
 11615     0874  07CF               	addwf	_sec+2,f
 11616     0875  30FF               	movlw	255
 11617     0876  1C03               	skipc
 11618     0877  07D0               	addwf	_sec+3,f
 11619     0878  2898               	goto	i1l4019
 11620     0879                     i1l4013:
 11621     0879  1283               	bcf	3,5	;RP0=0, select bank0
 11622     087A  1303               	bcf	3,6	;RP1=0, select bank0
 11623     087B  0850               	movf	_sec+3,w
 11624     087C  044F               	iorwf	_sec+2,w
 11625     087D  044E               	iorwf	_sec+1,w
 11626     087E  044D               	iorwf	_sec,w
 11627     087F  1D03               	skipz
 11628     0880  2882               	goto	u370_21
 11629     0881  2883               	goto	u370_20
 11630     0882                     u370_21:
 11631     0882  2898               	goto	i1l4019
 11632     0883                     u370_20:
 11633     0883                     i1l4015:
 11634     0883  0860               	movf	_return_time+1,w
 11635     0884  3A80               	xorlw	128
 11636     0885  00FF               	movwf	btemp+1
 11637     0886  3080               	movlw	128
 11638     0887  027F               	subwf	btemp+1,w
 11639     0888  1D03               	skipz
 11640     0889  288C               	goto	u371_25
 11641     088A  3001               	movlw	1
 11642     088B  025F               	subwf	_return_time,w
 11643     088C                     u371_25:
 11644     088C  1C03               	skipc
 11645     088D  288F               	goto	u371_21
 11646     088E  2890               	goto	u371_20
 11647     088F                     u371_21:
 11648     088F  2898               	goto	i1l4019
 11649     0890                     u371_20:
 11650     0890                     i1l4017:
 11651                           
 11652                           ;isr.c: 18:                 return_time--;
 11653     0890  30FF               	movlw	255
 11654     0891  1283               	bcf	3,5	;RP0=0, select bank0
 11655     0892  1303               	bcf	3,6	;RP1=0, select bank0
 11656     0893  07DF               	addwf	_return_time,f
 11657     0894  1803               	skipnc
 11658     0895  0AE0               	incf	_return_time+1,f
 11659     0896  30FF               	movlw	255
 11660     0897  07E0               	addwf	_return_time+1,f
 11661     0898                     i1l4019:
 11662                           
 11663                           ;isr.c: 21:         TMR2IF = 0;
 11664     0898  1283               	bcf	3,5	;RP0=0, select bank0
 11665     0899  1303               	bcf	3,6	;RP1=0, select bank0
 11666     089A  108C               	bcf	12,1	;volatile
 11667     089B                     i1l551:
 11668     089B  0872               	movf	??_isr+2,w
 11669     089C  00FF               	movwf	btemp+1
 11670     089D  0871               	movf	??_isr+1,w
 11671     089E  008A               	movwf	10
 11672     089F  0E70               	swapf	??_isr,w
 11673     08A0  0083               	movwf	3
 11674     08A1  0EFE               	swapf	btemp,f
 11675     08A2  0E7E               	swapf	btemp,w
 11676     08A3  0009               	retfie
 11677     08A4                     __end_of_isr:
 11678     007E                     btemp	set	126	;btemp
 11679     007E                     wtemp0	set	126
 11680                           
 11681                           	psect	intentry
 11682     0004                     __pintentry:	
 11683                           ;incstack = 0
 11684                           ; Regs used in _isr: [wreg+status,2+status,0+btemp+1]
 11685                           
 11686     0004                     interrupt_function:
 11687     007E                     saved_w	set	btemp
 11688     0004  00FE               	movwf	btemp
 11689     0005  0E03               	swapf	3,w
 11690     0006  00F0               	movwf	??_isr
 11691     0007  080A               	movf	10,w
 11692     0008  00F1               	movwf	??_isr+1
 11693     0009  087F               	movf	btemp+1,w
 11694     000A  00F2               	movwf	??_isr+2
 11695     000B  120A  158A  283D   	ljmp	_isr
 11696                           
 11697                           	psect	config
 11698                           
 11699                           ;Config register CONFIG @ 0x2007
 11700                           ;	Oscillator Selection bits
 11701                           ;	FOSC = 0x3, unprogrammed default
 11702                           ;	Watchdog Timer Enable bit
 11703                           ;	WDTE = OFF, WDT disabled
 11704                           ;	Power-up Timer Enable bit
 11705                           ;	PWRTE = 0x1, unprogrammed default
 11706                           ;	Brown-out Reset Enable bit
 11707                           ;	BOREN = 0x1, unprogrammed default
 11708                           ;	Low-Voltage (Single-Supply) In-Circuit Serial Programming Enable bit
 11709                           ;	LVP = 0x1, unprogrammed default
 11710                           ;	Data EEPROM Memory Code Protection bit
 11711                           ;	CPD = 0x1, unprogrammed default
 11712                           ;	Flash Program Memory Write Enable bits
 11713                           ;	WRT = 0x3, unprogrammed default
 11714                           ;	In-Circuit Debugger Mode bit
 11715                           ;	DEBUG = 0x1, unprogrammed default
 11716                           ;	Flash Program Memory Code Protection bit
 11717                           ;	CP = 0x1, unprogrammed default
 11718     2007                     	org	8199
 11719     2007  3FFB               	dw	16379

Data Sizes:
    Strings     381
    Constant    0
    Data        27
    BSS         85
    Persistent  0
    Stack       0

Auto Spaces:
    Space          Size  Autos    Used
    COMMON           14      9      11
    BANK0            80     45      75
    BANK1            80      0      80
    BANK3            96     10      10
    BANK2            96      0       0

Pointer List with Targets:

    strncpy@from	PTR const unsigned char  size(2) Largest target is 7
		 -> time(BANK1[7]), main@event(BANK3[3]), 

    strncpy@to	PTR unsigned char  size(1) Largest target is 11
		 -> log(BANK1[11]), 

    strncpy@cp	PTR unsigned char  size(1) Largest target is 11
		 -> log(BANK1[11]), 

    strncmp@s2	PTR const unsigned char  size(1) Largest target is 4
		 -> change_password@new_passwd_2(BANK1[4]), login@new_passwd(BANK1[4]), 

    strncmp@s1	PTR const unsigned char  size(1) Largest target is 4
		 -> change_password@new_passwd_1(BANK1[4]), login@saved_passwd(BANK0[4]), 

    strcpy@from	PTR const unsigned char  size(2) Largest target is 7
		 -> time(BANK1[7]), STR_11(CODE[3]), STR_6(CODE[3]), STR_5(CODE[3]), 
		 -> STR_4(CODE[3]), STR_3(CODE[3]), STR_2(CODE[3]), STR_1(CODE[3]), 

    strcpy@to	PTR unsigned char  size(2) Largest target is 7
		 -> edit_time@new_time(BANK1[7]), main@event(BANK3[3]), 

    strcpy@cp	PTR unsigned char  size(2) Largest target is 7
		 -> edit_time@new_time(BANK1[7]), main@event(BANK3[3]), 

    strcmp@s2	PTR const unsigned char  size(2) Largest target is 3
		 -> STR_10(CODE[3]), 

    strcmp@s1	PTR const unsigned char  size(1) Largest target is 3
		 -> main@event(BANK3[3]), 

    puts@s	PTR const unsigned char  size(2) Largest target is 17
		 -> STR_7(CODE[17]), 

    ext_eeprom_24C02_str_write@str	PTR unsigned char  size(2) Largest target is 11
		 -> log(BANK1[11]), STR_8(CODE[5]), 

    log_car_event@event	PTR unsigned char  size(1) Largest target is 3
		 -> main@event(BANK3[3]), 

    sp__strncpy	PTR unsigned char  size(1) Largest target is 11
		 -> log(BANK1[11]), 

    display_default_screen@event	PTR unsigned char  size(1) Largest target is 3
		 -> main@event(BANK3[3]), 

    menu	PTR unsigned char [5] size(2) Largest target is 14
		 -> STR_17(CODE[14]), STR_16(CODE[9]), STR_15(CODE[13]), STR_14(CODE[10]), 
		 -> STR_13(CODE[9]), 

    clcd_print@str	PTR const unsigned char  size(2) Largest target is 17
		 -> STR_40(CODE[17]), STR_39(CODE[17]), STR_38(CODE[17]), STR_37(CODE[17]), 
		 -> STR_36(CODE[17]), STR_35(CODE[9]), STR_34(CODE[17]), STR_33(CODE[9]), 
		 -> STR_32(CODE[17]), STR_31(CODE[17]), STR_30(CODE[17]), STR_29(CODE[17]), 
		 -> STR_28(CODE[17]), STR_27(CODE[17]), STR_26(CODE[17]), STR_25(CODE[17]), 
		 -> STR_24(CODE[17]), STR_23(CODE[17]), STR_22(CODE[15]), STR_21(CODE[16]), 
		 -> STR_20(CODE[14]), STR_19(CODE[16]), STR_18(CODE[17]), STR_17(CODE[14]), 
		 -> STR_16(CODE[9]), STR_15(CODE[13]), STR_14(CODE[10]), STR_13(CODE[9]), 
		 -> STR_12(CODE[17]), main@event(BANK3[3]), 

    sp__strcpy	PTR unsigned char  size(2) Largest target is 7
		 -> edit_time@new_time(BANK1[7]), main@event(BANK3[3]), 

    gear	PTR unsigned char [6] size(2) Largest target is 3
		 -> STR_6(CODE[3]), STR_5(CODE[3]), STR_4(CODE[3]), STR_3(CODE[3]), 
		 -> STR_2(CODE[3]), STR_1(CODE[3]), 


Critical Paths under _main in COMMON

    _main->_clcd_putch
    _main->_clear_screen
    _main->_download_log
    _main->_ext_eeprom_24C02_str_write
    _main->_strcmp
    _main->_write_ds1307
    _view_log->_clear_screen
    _print_log->_clcd_putch
    _login_menu->_clcd_putch
    _login_menu->_clear_screen
    _login->_clcd_putch
    _login->_clear_screen
    _login->_strncmp
    ___aldiv->___almod
    _log_car_event->_strncpy
    _log_event->_ext_eeprom_24C02_str_write
    _ext_eeprom_24C02_str_write->_ext_eeprom_24C02_byte_write
    _puts->_putchar
    _init_uart->___lldiv
    _init_i2c->___lldiv
    _init_ds1307->_write_ds1307
    _write_ds1307->___awdiv
    _write_ds1307->___awmod
    _init_clcd->_init_display_controller
    _init_display_controller->_clcd_write
    _edit_time->_clcd_putch
    _edit_time->_clear_screen
    _download_log->_get_saved_log
    _get_saved_log->___bmul
    _get_saved_log->_ext_eeprom_24C02_read
    _ext_eeprom_24C02_read->_i2c_read
    _display_log_in_uart->_putchar
    _display_default_screen->_clcd_putch
    _display_time->_clcd_putch
    _get_time->_read_ds1307
    _read_ds1307->_i2c_read
    _change_password->_clcd_putch
    _change_password->_clear_screen
    _change_password->_strncmp
    _ext_eeprom_24C02_byte_write->_i2c_write
    _clear_screen->_clcd_write
    _clcd_putch->___awdiv
    _clcd_putch->___awmod
    _clcd_print->_clcd_write
    ___lwdiv->_read_adc

Critical Paths under _isr in COMMON

    None.

Critical Paths under _main in BANK0

    _main->_login
    _view_log->_print_log
    _print_log->_clcd_putch
    _login_menu->_clcd_putch
    _login->_clcd_putch
    ___aldiv->___almod
    _log_car_event->___awdiv
    _log_event->_ext_eeprom_24C02_str_write
    _init_config->_init_i2c
    _init_config->_init_uart
    _init_uart->___lldiv
    _init_i2c->___lldiv
    _init_ds1307->_write_ds1307
    _write_ds1307->___awdiv
    _edit_time->_clcd_putch
    _download_log->_clcd_print
    _download_log->_get_saved_log
    _display_default_screen->_clcd_putch
    _display_time->_clcd_putch
    _clear_log->_clcd_print
    _change_password->_clcd_putch
    _clcd_putch->___aldiv

Critical Paths under _isr in BANK0

    None.

Critical Paths under _main in BANK1

    None.

Critical Paths under _isr in BANK1

    None.

Critical Paths under _main in BANK3

    None.

Critical Paths under _isr in BANK3

    None.

Critical Paths under _main in BANK2

    None.

Critical Paths under _isr in BANK2

    None.

Call Graph Tables:

 ---------------------------------------------------------------------------------
 (Depth) Function   	        Calls       Base Space   Used Autos Params    Refs
 ---------------------------------------------------------------------------------
 (0) _main                                                17    17      0  170948
                                             38 BANK0      7     7      0
                                              0 BANK3     10    10      0
                            ___awdiv
                            ___awmod
                            ___lwdiv
                    _change_password
                         _clcd_print
                         _clcd_putch
                         _clcd_write
                          _clear_log
                       _clear_screen
             _display_default_screen
                       _download_log
                          _edit_time
         _ext_eeprom_24C02_str_write
                        _init_config
                      _log_car_event
                              _login
                         _login_menu
                           _read_adc
                _read_digital_keypad
                             _strcmp
                             _strcpy
                           _view_log
                       _write_ds1307
 ---------------------------------------------------------------------------------
 (1) _view_log                                             5     4      1   17014
                                             24 BANK0      5     4      1
                         _clcd_print
                       _clear_screen
                      _get_saved_log
                          _print_log
 ---------------------------------------------------------------------------------
 (2) _print_log                                            1     1      0    6545
                                             23 BANK0      1     1      0
                         _clcd_putch
 ---------------------------------------------------------------------------------
 (2) _strcmp                                               6     4      2     259
                                              3 COMMON     6     4      2
 ---------------------------------------------------------------------------------
 (1) _read_digital_keypad                                  2     2      0      31
                                              3 COMMON     2     2      0
 ---------------------------------------------------------------------------------
 (1) _read_adc                                             4     2      2      34
                                              3 COMMON     4     2      2
 ---------------------------------------------------------------------------------
 (1) _login_menu                                           4     3      1   15886
                                             23 BANK0      4     3      1
                         _clcd_print
                         _clcd_putch
                       _clear_screen
 ---------------------------------------------------------------------------------
 (1) _login                                               15    14      1   20642
                                             23 BANK0     15    14      1
                            ___aldiv
                            ___almod
                         _clcd_print
                         _clcd_putch
                         _clcd_write
                       _clear_screen
              _ext_eeprom_24C02_read
                            _strncmp
 ---------------------------------------------------------------------------------
 (2) ___almod                                             11     3      8     973
                                              3 COMMON     3     3      0
                                              0 BANK0      8     0      8
 ---------------------------------------------------------------------------------
 (2) ___aldiv                                             15     7      8     805
                                              6 COMMON     1     1      0
                                              8 BANK0     14     6      8
                            ___almod (ARG)
 ---------------------------------------------------------------------------------
 (1) _log_car_event                                        4     3      1    6577
                                              4 BANK0      4     3      1
                            ___awdiv
                            ___awmod
                           _get_time
                          _log_event
                            _strncpy
 ---------------------------------------------------------------------------------
 (2) _strncpy                                              9     5      4     780
                                              3 COMMON     6     2      4
                                              0 BANK0      3     3      0
 ---------------------------------------------------------------------------------
 (2) _log_event                                            2     2      0    1172
                                              1 BANK0      2     2      0
                             ___bmul
         _ext_eeprom_24C02_str_write
 ---------------------------------------------------------------------------------
 (3) _ext_eeprom_24C02_str_write                           4     2      2     552
                                              6 COMMON     3     1      2
                                              0 BANK0      1     1      0
        _ext_eeprom_24C02_byte_write
 ---------------------------------------------------------------------------------
 (1) _init_config                                          0     0      0    4264
                           _init_adc
                          _init_clcd
                _init_digital_keypad
                        _init_ds1307
                           _init_i2c
                        _init_timer2
                          _init_uart
                               _puts
 ---------------------------------------------------------------------------------
 (2) _puts                                                 2     0      2     186
                                              4 COMMON     2     0      2
                            _putchar
 ---------------------------------------------------------------------------------
 (2) _init_uart                                            8     4      4     722
                                              8 BANK0      8     4      4
                            ___lldiv
 ---------------------------------------------------------------------------------
 (2) _init_timer2                                          0     0      0       0
 ---------------------------------------------------------------------------------
 (2) _init_i2c                                             8     4      4     722
                                              8 BANK0      8     4      4
                            ___lldiv
 ---------------------------------------------------------------------------------
 (3) ___lldiv                                             14     6      8     601
                                              3 COMMON     6     6      0
                                              0 BANK0      8     0      8
 ---------------------------------------------------------------------------------
 (2) _init_ds1307                                          1     1      0     682
                                              5 BANK0      1     1      0
                        _read_ds1307
                       _write_ds1307
 ---------------------------------------------------------------------------------
 (1) _write_ds1307                                         2     1      1     453
                                              8 COMMON     1     0      1
                                              4 BANK0      1     1      0
                            ___awdiv (ARG)
                            ___awmod (ARG)
                          _i2c_start
                           _i2c_stop
                          _i2c_write
 ---------------------------------------------------------------------------------
 (2) _init_digital_keypad                                  0     0      0       0
 ---------------------------------------------------------------------------------
 (2) _init_clcd                                            0     0      0    1952
            _init_display_controller
 ---------------------------------------------------------------------------------
 (3) _init_display_controller                              2     2      0    1952
                                              7 COMMON     2     2      0
                         _clcd_write
 ---------------------------------------------------------------------------------
 (2) _init_adc                                             0     0      0       0
 ---------------------------------------------------------------------------------
 (1) _edit_time                                            4     3      1   21177
                                             23 BANK0      4     3      1
                            ___awdiv
                            ___awmod
                             ___bmul
                         _clcd_print
                         _clcd_putch
                       _clear_screen
                           _get_time
                             _strcpy
 ---------------------------------------------------------------------------------
 (2) _strcpy                                               7     3      4     748
                                              3 COMMON     5     1      4
                                              0 BANK0      2     2      0
 ---------------------------------------------------------------------------------
 (1) _download_log                                         4     4      0    8526
                                              8 COMMON     1     1      0
                                              3 BANK0      3     3      0
                         _clcd_print
                _display_log_in_uart
                      _get_saved_log
 ---------------------------------------------------------------------------------
 (2) _get_saved_log                                        4     4      0    1097
                                              7 COMMON     1     1      0
                                              0 BANK0      3     3      0
                             ___bmul
              _ext_eeprom_24C02_read
 ---------------------------------------------------------------------------------
 (3) _ext_eeprom_24C02_read                                2     2      0     161
                                              5 COMMON     2     2      0
                           _i2c_read
                      _i2c_rep_start
                          _i2c_start
                           _i2c_stop
                          _i2c_write
 ---------------------------------------------------------------------------------
 (3) ___bmul                                               4     3      1     586
                                              3 COMMON     4     3      1
 ---------------------------------------------------------------------------------
 (2) _display_log_in_uart                                  1     1      0      62
                                              4 COMMON     1     1      0
                            _putchar
 ---------------------------------------------------------------------------------
 (3) _putchar                                              1     1      0      31
                                              3 COMMON     1     1      0
 ---------------------------------------------------------------------------------
 (1) _display_default_screen                               4     3      1   24434
                                             23 BANK0      4     3      1
                            ___awdiv
                            ___awmod
                         _clcd_print
                         _clcd_putch
                       _display_time
 ---------------------------------------------------------------------------------
 (2) _display_time                                         0     0      0    6675
                         _clcd_putch
                           _get_time
 ---------------------------------------------------------------------------------
 (2) _get_time                                             1     1      0     161
                                              7 COMMON     1     1      0
                        _read_ds1307
 ---------------------------------------------------------------------------------
 (3) _read_ds1307                                          2     2      0     161
                                              5 COMMON     2     2      0
                           _i2c_read
                      _i2c_rep_start
                          _i2c_start
                           _i2c_stop
                          _i2c_write
 ---------------------------------------------------------------------------------
 (4) _i2c_rep_start                                        0     0      0       0
                          _i2c_start
                           _i2c_stop
 ---------------------------------------------------------------------------------
 (4) _i2c_read                                             2     2      0      65
                                              3 COMMON     2     2      0
                  _i2c_wait_for_idle
 ---------------------------------------------------------------------------------
 (2) ___awmod                                              7     3      4    1873
                                              3 COMMON     5     1      4
                                              0 BANK0      2     2      0
 ---------------------------------------------------------------------------------
 (2) ___awdiv                                              9     5      4    1885
                                              3 COMMON     5     1      4
                                              0 BANK0      4     4      0
 ---------------------------------------------------------------------------------
 (1) _clear_log                                            4     4      0    7299
                                              7 COMMON     1     1      0
                                              3 BANK0      3     3      0
                         _clcd_print
 ---------------------------------------------------------------------------------
 (1) _change_password                                     11    10      1   18865
                                             23 BANK0      7     6      1
                         _clcd_print
                         _clcd_putch
                         _clcd_write
                       _clear_screen
        _ext_eeprom_24C02_byte_write
                            _strncmp
 ---------------------------------------------------------------------------------
 (2) _strncmp                                              6     3      3     624
                                              3 COMMON     6     3      3
 ---------------------------------------------------------------------------------
 (4) _ext_eeprom_24C02_byte_write                          2     1      1     273
                                              4 COMMON     2     1      1
                          _i2c_start
                           _i2c_stop
                          _i2c_write
 ---------------------------------------------------------------------------------
 (2) _i2c_write                                            1     1      0      31
                                              3 COMMON     1     1      0
                  _i2c_wait_for_idle
 ---------------------------------------------------------------------------------
 (2) _i2c_stop                                             0     0      0       0
                  _i2c_wait_for_idle
 ---------------------------------------------------------------------------------
 (2) _i2c_start                                            0     0      0       0
                  _i2c_wait_for_idle
 ---------------------------------------------------------------------------------
 (3) _i2c_wait_for_idle                                    0     0      0       0
 ---------------------------------------------------------------------------------
 (2) _clear_screen                                         2     2      0    1952
                                              7 COMMON     2     2      0
                         _clcd_write
 ---------------------------------------------------------------------------------
 (3) _clcd_putch                                           2     1      1    6514
                                              8 COMMON     1     1      0
                                             22 BANK0      1     0      1
                            ___aldiv (ARG)
                            ___almod (ARG)
                            ___awdiv (ARG)
                            ___awmod (ARG)
                         _clcd_write
 ---------------------------------------------------------------------------------
 (2) _clcd_print                                           3     0      3    7268
                                              0 BANK0      3     0      3
                         _clcd_write
 ---------------------------------------------------------------------------------
 (4) _clcd_write                                           4     3      1    1952
                                              3 COMMON     4     3      1
 ---------------------------------------------------------------------------------
 (1) ___lwdiv                                              8     4      4     421
                                              7 COMMON     1     1      0
                                              0 BANK0      7     3      4
                           _read_adc (ARG)
 ---------------------------------------------------------------------------------
 Estimated maximum stack depth 4
 ---------------------------------------------------------------------------------
 (Depth) Function   	        Calls       Base Space   Used Autos Params    Refs
 ---------------------------------------------------------------------------------
 (8) _isr                                                  3     3      0       0
                                              0 COMMON     3     3      0
 ---------------------------------------------------------------------------------
 Estimated maximum stack depth 8
 ---------------------------------------------------------------------------------

 Call Graph Graphs:

 _main (ROOT)
   ___awdiv
   ___awmod
   ___lwdiv
     _read_adc (ARG)
   _change_password
     _clcd_print
       _clcd_write
     _clcd_putch
       ___aldiv (ARG)
         ___almod (ARG)
       ___almod (ARG)
       ___awdiv (ARG)
       ___awmod (ARG)
       _clcd_write (ARG)
     _clcd_write
     _clear_screen
       _clcd_write
     _ext_eeprom_24C02_byte_write
       _i2c_start
         _i2c_wait_for_idle
       _i2c_stop
         _i2c_wait_for_idle
       _i2c_write
         _i2c_wait_for_idle
     _strncmp
   _clcd_print
   _clcd_putch
   _clcd_write
   _clear_log
     _clcd_print
   _clear_screen
   _display_default_screen
     ___awdiv
     ___awmod
     _clcd_print
     _clcd_putch
     _display_time
       _clcd_putch
       _get_time
         _read_ds1307
           _i2c_read
             _i2c_wait_for_idle
           _i2c_rep_start
             _i2c_start
             _i2c_stop
           _i2c_start
           _i2c_stop
           _i2c_write
   _download_log
     _clcd_print
     _display_log_in_uart
       _putchar
     _get_saved_log
       ___bmul
       _ext_eeprom_24C02_read
         _i2c_read
         _i2c_rep_start
         _i2c_start
         _i2c_stop
         _i2c_write
   _edit_time
     ___awdiv
     ___awmod
     ___bmul
     _clcd_print
     _clcd_putch
     _clear_screen
     _get_time
     _strcpy
   _ext_eeprom_24C02_str_write
     _ext_eeprom_24C02_byte_write
   _init_config
     _init_adc
     _init_clcd
       _init_display_controller
         _clcd_write
     _init_digital_keypad
     _init_ds1307
       _read_ds1307
       _write_ds1307
         ___awdiv (ARG)
         ___awmod (ARG)
         _i2c_start (ARG)
         _i2c_stop (ARG)
         _i2c_write (ARG)
     _init_i2c
       ___lldiv
     _init_timer2
     _init_uart
       ___lldiv
     _puts
       _putchar
   _log_car_event
     ___awdiv
     ___awmod
     _get_time
     _log_event
       ___bmul
       _ext_eeprom_24C02_str_write
     _strncpy
   _login
     ___aldiv
     ___almod
     _clcd_print
     _clcd_putch
     _clcd_write
     _clear_screen
     _ext_eeprom_24C02_read
     _strncmp
   _login_menu
     _clcd_print
     _clcd_putch
     _clear_screen
   _read_adc
   _read_digital_keypad
   _strcmp
   _strcpy
   _view_log
     _clcd_print
     _clear_screen
     _get_saved_log
     _print_log
       _clcd_putch
   _write_ds1307

 _isr (ROOT)

 Address spaces:
Name               Size   Autos  Total    Cost      Usage
BANK3               60      A       A       9       10.4%
BITBANK3            60      0       0       8        0.0%
SFR3                 0      0       0       4        0.0%
BITSFR3              0      0       0       4        0.0%
BANK2               60      0       0      11        0.0%
BITBANK2            60      0       0      10        0.0%
SFR2                 0      0       0       5        0.0%
BITSFR2              0      0       0       5        0.0%
BANK1               50      0      50       7      100.0%
BITBANK1            50      0       0       6        0.0%
SFR1                 0      0       0       2        0.0%
BITSFR1              0      0       0       2        0.0%
BANK0               50     2D      4B       5       93.8%
BITBANK0            50      0       0       4        0.0%
SFR0                 0      0       0       1        0.0%
BITSFR0              0      0       0       1        0.0%
COMMON               E      9       B       1       78.6%
BITCOMMON            E      0       0       0        0.0%
CODE                 0      0       0       0        0.0%
DATA                 0      0      B0      12        0.0%
ABS                  0      0      B0       3        0.0%
NULL                 0      0       0       0        0.0%
STACK                0      0       0       2        0.0%
EEDATA             100      0       0       0        0.0%


Microchip Technology PIC Macro Assembler V2.40 build 20220703182018 
Symbol Table                                                                                   Sat Feb 11 10:54:21 2023

                                  pc 0002                       ___bmul@product 0075  
                     clcd_print@addr 0022                                   l81 149E  
                                 l97 01D5                                   _GO 00FA  
                       ___awdiv@sign 0021                       ?_get_saved_log 0070  
                                 fsr 0004                  clear_log@reset_flag 0077  
                 login_menu@menu_pos 0062                                  l105 0365  
                                l221 1FAF                                  l215 1F4D  
                                l241 12C9                                  l218 1FA1  
                                l171 1626                                  l244 1224  
                                l412 078B                                  l420 0AA8  
                                l510 0E09                                  l174 07FF  
                                l190 1F46                                  l238 1FFF  
                                l183 13EA                                  l168 11E1  
                                l177 1FC2                                  l361 15CF  
                                l417 1739                                  l273 083C  
                                l282 1F5E                                  l602 1F7A  
                                l442 0988                                  l450 17FF  
                                l610 124A                                  l291 11FD  
                                l355 1578                                  l603 1F7E  
                                l435 0C1B                                  l372 1F9D  
                                l276 1F80                                  l292 1200  
                                l604 1F7F                                  l524 12F4  
                                l196 129E                                  l428 0BE1  
                                l293 1202                                  l285 1F74  
                                l533 1323                                  l358 179B  
                                l366 1353                                  l279 1F8C  
                                l527 11C1                                  l439 141D  
                                l383 06B2                                  l288 0808  
                                l296 1F69                                  l369 16DC  
                                l722 1FEA                                  l484 0FFF  
                                l732 090B                                  l575 118A  
                                l592 1385                                  l761 0ABD  
                                l771 0B45                                  l862 1681  
                                l774 099D                                  l784 0A0F  
                                l849 07F4                                  l968 14E4  
                                _GIE 005F                                  _RE1 0049  
                                _RE2 004A                                  _PR2 0092  
                                _PEN 048A                                  _SEN 0488  
                                _PSA 040B                        ?_display_time 0070  
                      log_event@addr 0022                                  _log 00B2  
                                _sec 004D                                  _isr 083D  
                     clcd_putch@addr 0036                                  _pos 007A  
                                fsr0 0004                       clcd_putch@data 0078  
                                indf 0000                         ___awmod@sign 0021  
                 view_log@reset_flag 003C                   log_car_event@event 0027  
                 log_car_event@speed 0024                                 l1152 13B7  
                               l1161 144B                                 l1166 145B  
                               l1158 1274                                 l1177 152B  
              ??_read_digital_keypad 0073                                 l4111 1F80  
                               l4113 1F86                                 l4121 0805  
                               l5001 0C5F                                 l4201 1553  
                               l4115 1F56                                 l4123 1F60  
                               l5011 0C76                                 l5003 0C60  
                               l4131 1F6A                                 l4211 1577  
                               l4203 1557                                 l4117 1F5B  
                               l4125 1F65                                 l5101 0DCF  
                               l5021 0CA4                                 l5013 0C7E  
                               l5005 0C61                                 l4141 11F9  
                               l4133 11E3                                 l4205 1563  
                               l4221 1FD7                                 l4213 12CB  
                               l4301 123A                                 l4151 11CF  
                               l4311 1F94                                 l4119 0800  
                               l4127 1F69                                 l5111 0DEF  
                               l5103 0DD4                                 l5031 0CC9  
                               l5015 0C8B                                 l5023 0CAC  
                               l5007 0C62                                 l4143 1201  
                               l4135 11E8                                 l4207 1567  
                               l4231 1FE9                                 l4223 1FD8  
                               l4215 12F3                                 l4153 11D5  
                               l4313 13B8                                 l4161 11A5  
                               l5121 0DF4                                 l5113 0DF0  
                               l5105 0DE1                                 l5025 0CB4  
                               l5017 0C93                                 l5033 0CD1  
                               l5009 0C69                                 l4137 11F0  
                               l4209 1573                                 l4321 173A  
                               l4225 1FDC                                 l4241 08C6  
                               l4401 0AAC                                 l5131 14A9  
                               l4147 11C3                                 l4315 13C2  
                               l5123 0DF5                                 l5115 0DF1  
                               l5107 0DEB                                 l5035 0CD7  
                               l5027 0CBD                                 l5019 0C9C  
                               l4139 11F4                                 l4155 12A0  
                               l4219 1F76                                 l4227 1FE0  
                               l4251 08F4                                 l4243 08CA  
                               l4235 08A4                                 l4171 1315  
                               l4163 12F8                                 l4331 1347  
                               l4323 1324                                 l4411 0AD8  
                               l4403 0AB0                                 l6011 048D  
                               l5141 14CC                                 l5133 14AC  
                               l4149 11CD                                 l4317 13D2  
                               l4173 1FB1                                 l4309 1F8D  
                               l5117 0DF2                                 l5109 0DEE  
                               l5125 0DFB                                 l5061 0D1C  
                               l5037 0CE4                                 l5045 0CF6  
                               l5029 0CC5                                 l4501 07D8  
                               l4157 12C8                                 l4229 1FE2  
                               l4181 15DF                                 l4261 07F8  
                               l4253 08FD                                 l4245 08D3  
                               l4237 08B6                                 l4165 12F9  
                               l4333 134D                                 l4325 1330  
                               l4421 0AFD                                 l4413 0AE0  
                               l4405 0AC1                                 l5143 14D2  
                               l5135 14B3                                 l5127 149F  
                               l4319 13DA                                 l4351 141F  
                               l5119 0DF3                                 l5071 0D52  
                               l5063 0D29                                 l5047 0CFE  
                               l5039 0CEC                                 l5055 0D08  
                               l4511 07F0                                 l4503 07D9  
                               l4191 1605                                 l4183 15EF  
                               l4263 07F9                                 l4175 1206  
                               l4247 08E5                                 l4239 08B9  
                               l4255 0903                                 l4271 0809  
                               l4167 1309                                 l4327 1331  
                               l4423 0B0F                                 l4415 0AE3  
                               l4431 0B2D                                 l4407 0ACC  
                               l6007 0226                                 l5145 14D3  
                               l5137 14B7                                 l5129 14A3  
                               l4361 1443                                 l4353 1420  
                               l5081 0D6C                                 l5057 0D11  
                               l5065 0D34                                 l4505 07E0  
                               l4521 1633                                 l4193 1611  
                               l4185 15F4                                 l4177 15D0  
                               l4265 07FA                                 l4281 1FF7  
                               l4249 08F3                                 l4273 080C  
                               l4169 130F                                 l4329 133D  
                               l4433 0B32                                 l4425 0B1D  
                               l4417 0AF0                                 l4409 0AD0  
                               l4441 098A                                 l4601 1290  
                               l6009 03C9                                 l5147 14DA  
                               l5139 14BB                                 l4363 1459  
                               l4355 1428                                 l5083 0D79  
                               l5067 0D3B                                 l5059 0D17  
                               l4507 07E6                                 l4531 1647  
                               l4523 1635                                 l4515 1627  
                               l4267 1F47                                 l4195 161A  
                               l4187 15FB                                 l4179 15D8  
                               l4259 07F5                                 l4275 0839  
                               l4283 117E                                 l4291 1354  
                               l4435 0B3D                                 l4427 0B1E  
                               l4419 0AF4                                 l4451 09B7  
                               l4443 0990                                 l4611 129B  
                               l5149 14E0                                 l4357 1434  
                               l5085 0D93                                 l5077 0D56  
                               l5069 0D4D                                 l5093 0DA3  
                               l4509 07EB                                 l4541 1666  
                               l4533 164E                                 l4525 1639  
                               l4517 162A                                 l4197 152C  
                               l4381 1705                                 l4189 15FE  
                               l4269 1F41                                 l4277 1FEB  
                               l4285 1182                                 l4293 1358  
                               l4429 0B27                                 l4461 09F1  
                               l4453 09C4                                 l4445 09A1  
                               l4701 055A                                 l4613 129D  
                               l4621 1392                                 l5095 0DA9  
                               l5087 0DA1                                 l5079 0D64  
                               l4471 078C                                 l4543 166D  
                               l4535 1652                                 l4527 163E  
                               l4519 162E                                 l4199 1547  
                               l4631 1587                                 l4391 172C  
                               l4383 1709                                 l4375 16ED  
                               l4367 16E0                                 l4279 1FF4  
                               l4287 1186                                 l4295 1225  
                               l4455 09C8                                 l4463 09F7  
                               l4447 09AC                                 l4439 0989  
                               l4711 057A                                 l4703 055F  
                               l4623 13AB                                 l5097 0DB4  
                               l4481 079E                                 l4473 078F  
                               l4537 1656                                 l4529 1644  
                               l4545 1673                                 l4633 158C  
                               l4393 1738                                 l4385 1713  
                               l4377 16F9                                 l4369 16EC  
                               l5601 0EC5                                 l4289 1187  
                               l4297 1226                                 l4561 147A  
                               l4553 145C                                 l4465 09FC  
                               l4457 09DA                                 l4449 09B4  
                               l4721 0644                                 l4713 058E  
                               l4705 0563                                 l4641 04C1  
                               l4609 1292                                 l4625 13B2  
                               l4617 1387                                 l4801 0B4F  
                               l5099 0DC1                                 l4491 07B2  
                               l4483 07A3                                 l4475 0793  
                               l4547 1678                                 l4539 1660  
                               l4387 171F                                 l4379 16FF  
                               l5523 124B                                 l5611 0EE5  
                               l5603 0EC9                                 l4299 1234  
                               l4571 149D                                 l4563 147F  
                               l4555 1461                                 l5531 14E9  
                               l4467 0A07                                 l4459 09E8  
                               l4731 067F                                 l4715 0595  
                               l4707 0568                                 l4723 0647  
                               l4651 04D3                                 l4643 04C5  
                               l4635 04B1                                 l4619 1388  
                               l4395 0A13                                 l4811 0B6E  
                               l4803 0B54                                 l4493 07B9  
                               l4485 07A7                                 l4477 0798  
                               l4549 167D                                 l4629 157C  
                               l4397 090D                                 l4389 1720  
                               l5525 1252                                 l5621 0F02  
                               l5613 0EEC                                 l5605 0ED1  
                               l4565 1484                                 l4557 1466  
                               l5541 1517                                 l5533 14EF  
                               l4733 0685                                 l4725 064C  
                               l4717 05A0                                 l4709 056D  
                               l4661 04F4                                 l4653 04D9  
                               l4645 04CB                                 l4637 04B6  
                               l4741 06B6                                 l4821 0B94  
                               l4813 0B74                                 l4805 0B5A  
                               l5701 017D                                 l4495 07BD  
                               l4487 07A9                                 l4479 079A  
                               l5527 125E                                 l5631 0F2E  
                               l5615 0EF1                                 l5607 0ED7  
                               l4567 1493                                 l4559 146B  
                               l5543 151D                                 l5551 16D6  
                               l4399 0AA9                                 l4735 068A  
                               l4727 0659                                 l4719 063A  
                               l4671 0512                                 l4663 04F8  
                               l4655 04DF                                 l4639 04BD  
                               l4743 06BC                                 l4751 06CF  
                               l4583 1F9E                                 l4591 127B  
                               l4831 0BB2                                 l4823 0B9C  
                               l4807 0B5F                                 l4815 0B7A  
                               l5711 01B3                                 l5703 0193  
                               l4497 07C1                                 l4489 07AF  
                               l5633 0F36                                 l5617 0EF7  
                               l5609 0EE1                                 l5625 0F07  
                               l5561 0E1E                                 l4569 149C  
                               l5537 150C                                 l5529 14E6  
                               l5553 16D7                                 l5545 1685  
                               l4737 06A8                                 l4729 0671  
                               l4681 0522                                 l4657 04E5  
                               l4665 0500                                 l4649 04CD  
                               l4761 06F4                                 l4753 06D5  
                               l4745 06C1                                 l4585 1FA5  
                               l4841 0BD2                                 l4833 0BBB  
                               l4825 0BA2                                 l4817 0B7F  
                               l4809 0B6A                                 l5801 0387  
                               l5721 01D1                                 l5713 01BD  
                               l5705 019B                                 l5641 0056  
                               l4499 07D2                                 l5635 0FEB  
                               l5627 0F1C                                 l5619 0EFC  
                               l5571 0E50                                 l5563 0E22  
                               l5555 0E0D                                 l5539 1513  
                               l5547 168A                                 l4739 06AF  
                               l4691 0539                                 l4667 0506  
                               l4659 04EE                                 l4771 0712  
                               l4763 06F8                                 l4755 06E2  
                               l4747 06C7                                 l4851 0BFC  
                               l4843 0BD8                                 l4827 0BA4  
                               l4835 0BC0                                 l4819 0B87  
                               l5811 03AA                                 l5803 0392  
                               l5731 01F4                                 l5715 01C4  
                               l5707 01A1                                 l5651 006F  
                               l5643 0056                                 l4861 13EC  
                               l5629 0F2C                                 l5581 0E80  
                               l5573 0E61                                 l5565 0E2D  
                               l5557 0E13                                 l5549 1698  
                               l4693 0546                                 l4669 050C  
                               l4781 071D                                 l4765 06FD  
                               l4757 06EA                                 l4749 06C8  
                               l4597 1280                                 l4589 1276  
                               l4853 0C0A                                 l4837 0BC6  
                               l4829 0BAA                                 l5821 03E2  
                               l5805 0399                                 l5741 0213  
                               l5733 01F9                                 l5717 01CB  
                               l5709 01A6                                 l5725 01D5  
                               l5661 00A2                                 l5653 008B  
                               l5645 0057                                 l5637 0040  
                               l4871 140F                                 l4863 13F2  
                               l5591 0EA8                                 l5583 0E8D  
                               l5575 0E72                                 l5567 0E32  
                               l5559 0E18                                 l4695 0558  
                               l4687 0524                                 l4679 051C  
                               l4791 075E                                 l4783 0725  
                               l4759 06F0                                 l4767 0707  
                               l4599 128B                                 l4839 0BD0  
                               l5831 0405                                 l5823 03EA  
                               l5807 039D                                 l5751 023D  
                               l5743 0217                                 l5735 0200  
                               l5727 01E4                                 l5719 01CF  
                               l5671 00CA                                 l5663 00A8  
                               l5655 0091                                 l5647 005C  
                               l5639 0044                                 l4865 13F3  
                               l4881 17AA                                 l4873 179C  
                               l5593 0EAE                                 l5585 0E95  
                               l5577 0E76                                 l5569 0E3F  
                               l4689 0531                                 l4793 0773  
                               l4785 073A                                 l4769 070D  
                               l4857 0C0C                                 l4849 0BE2  
                               l5833 040B                                 l5825 03EF  
                               l5817 03B2                                 l5809 03A3  
                               l5761 025C                                 l5753 0243  
                               l5737 0207                                 l5729 01EC  
                               l5681 0108                                 l5673 00D2  
                               l5665 00B0                                 l5657 0093  
                               l5649 0065                                 _ADFM 04FF  
                               l4867 13F5                                 l4891 17F1  
                               l4883 17B0                                 l4875 179E  
                               l5595 0EB8                                 l5587 0E9C  
                               l5579 0E7A                                 l4795 0788  
                               l4787 0750                                 l4779 0715  
                               l5819 03D1                                 l5763 0260  
                               l5755 0247                                 l5739 020C  
                               l5747 021A                                 l5771 031E  
                               l5691 0141                                 l5683 0112  
                               l5675 00D7                                 l5667 00BD  
                               l5659 009C                                 ?_isr 0070  
                               l4981 0C2F                                 l4869 1402  
                               l4885 17B6                                 l5597 0EBA  
                               l5589 0EA6                                 l4789 0756  
                               l5861 042E                                 l5853 0428  
                               l5845 0419                                 l5837 0410  
                               l5829 03F4                                 l5781 033E  
                               l5773 0324                                 l5765 029C  
                               l5757 024E                                 l5749 0237  
                               l5685 011A                                 l5693 0155  
                               l5677 00DF                                 l5669 00C3  
                               l4991 0C58                                 l4983 0C3A  
                               l4975 0C1F                                 l4887 17BC  
                               l4879 17A4                                 l5599 0EC4  
                               l4799 0B49                                 l5871 0445  
                               l5863 043C                                 l5847 0421  
                               l5791 035B                                 l5783 0343  
                               l5775 032C                                 l5767 02D8  
                               l5759 0256                                 l5695 015D  
                               l5687 0122                                 l5679 00EF  
                               l4993 0C5B                                 l4985 0C44  
                               l4977 0C24                                 l4889 17D7  
                               l5873 0456                                 l5849 0425  
                               l5793 0362                                 l5785 0347  
                               l5777 0332                                 l5769 0314  
                               l5697 0164                                 l5689 0139  
                               l4995 0C5C                                 l4987 0C4B  
                               l4979 0C29                                 l5875 045C  
                               l5883 0468                                 l5795 036D  
                               l5787 034B                                 l5779 0338  
                               l5699 0166                                 l4997 0C5D  
                               l4989 0C52                                 l5885 0470  
                               l5877 0460                                 l5797 0375  
                               l5789 0354                                 l4999 0C5E  
                               l5887 0475                                 l5799 0382  
                               l5895 0481                                 l5897 04A7  
                               _ADON 00F8                                 STR_1 1177  
                               STR_2 117A                                 STR_3 116B  
                               STR_4 116E                                 STR_5 1171  
                               STR_6 1174                                 STR_7 10BB  
                               STR_8 1163                                 STR_9 1168  
                               _CREN 00C4                                 _T0CS 040D  
                               u4010 1428                                 u4011 1427  
                               u4020 1434                                 u4021 1433  
                               u4030 1459                                 u4110 0B0F  
                               u4031 1458                                 u4111 0B0E  
                               u4040 1705                                 u4200 09DA  
                               u4041 1704                                 u4105 0AF6  
                               u4201 09D9                                 u5010 0C24  
                               u4130 0B2D                                 u4050 0AB0  
                               u5011 0C23                                 u4131 0B2C  
                               u4115 0B0B                                 u4051 0AAF  
                               u5100 0D4D                                 u5020 0C69  
                               u4300 07D2                                 u4140 0B32  
                               u4060 0AC1                                 u4220 09F7  
                               u5101 0D4C                                 u5021 0C68  
                               u4301 07D1                                 u4141 0B31  
                               u4125 0B1F                                 u4061 0AC0  
                               u4221 09F6                                 u4205 09D6  
                               u5110 0D79                                 u5030 0C76  
                               u4070 0AE0                                 u4230 09FC  
                               u4150 0990                                 u5111 0D78  
                               u5031 0C75                                 u4071 0ADF  
                               u4231 09FB                                 u4215 09E9  
                               u4151 098F                                 u5120 14A9  
                               u5040 0C7E                                 u4320 07E6  
                               u4240 0793                                 u4160 09A1  
                               u5121 14A8                                 u5041 0C7D  
                               u4321 07E5                                 u4305 07CE  
                               u4241 0792                                 u4161 09A0  
                               u5050 0C8B                                 u4330 07EB  
                               u4250 079E                                 u4410 1673  
                               u4090 0AF4                                 u4170 09B4  
                               u6010 0324                                 u5115 0D75  
                               u5051 0C8A                                 u5035 0C72  
                               u4331 07EA                                 u4315 07DA  
                               u4251 079D                                 u4411 1672  
                               u4091 0AF3                                 u4171 09B3  
                               u6011 0323                                 u5140 14BB  
                               u5060 0CD7                                 u4260 07AF  
                               u4420 1678                                 u4340 162E  
                               u4500 04B6                                 u6100 0444  
                               u6020 032C                                 u5141 14BA  
                               u5061 0CD6                                 u4261 07AE  
                               u4421 1677                                 u4405 1667  
                               u4341 162D                                 u4085 0AE5  
                               u4501 04B5                                 u6101 0443  
                               u6021 032B                                 u6005 0305  
                               u5070 0CE4                                 u4350 1639  
                               u4190 09C8                                 u4510 04CB  
                               u4430 1FA5                                 u6110 045C  
                               u6030 0332                                 u5135 14AD  
                               u5071 0CE3                                 u5055 0C87  
                               u4351 1638                                 u4191 09C7  
                               u4511 04CA                                 u4431 1FA4  
                               u6111 045B                                 u6031 0331  
                               u5160 14CC                                 u3720 1F86  
                               u5080 0D11                                 u4280 07C1  
                               u4360 1644                                 u4600 0568  
                               u4520 04D3                                 u4440 127B  
                               u6120 0470                                 u6040 0338  
                               u5161 14CB                                 u3721 1F85  
                               u5081 0D10                                 u4281 07C0  
                               u4361 1643                                 u4185 09B9  
                               u4601 0567                                 u4521 04D2  
                               u4441 127A                                 u6121 046F  
                               u6041 0337                                 u3730 1F8C  
                               u5090 0D3B                                 u3810 1F7E  
                               u4610 0644                                 u4530 04D9  
                               u4450 128B                                 u6050 033E  
                               u5155 14BC                                 u3731 1F8B  
                               u5091 0D3A                                 u5075 0CE0  
                               u4275 07B3                                 u3811 1F7D  
                               u4611 0643                                 u4531 04D8  
                               u4451 128A                                 u6051 033D  
                               _PEIE 005E                                 u5180 14E0  
                               u4380 1656                                 u3740 11F9  
                               u3820 1FDC                                 u3900 0903  
                               u4540 04DF                                 u4700 0756  
                               u4620 06BC                                 u4460 1290  
                               u6060 036D                                 u5181 14DF  
                               u5165 14C8                                 u4381 1655  
                               u3741 11F8                                 u3805 156A  
                               u3821 1FDB                                 u3901 0902  
                               u4541 04DE                                 u4701 0755  
                               u4621 06BB                                 u4461 128F  
                               u6061 036C                                 u3750 11CA  
                               u4390 1660                                 u3830 1FE9  
                               u3910 081A                                 u4550 0506  
                               u4630 06D5                                 u4470 129B  
                               u4710 0B4F                                 u6070 03EA  
                               u5175 14D4                                 u3751 11C6  
                               u4295 07C2                                 u4391 165F  
                               u4375 1648                                 u3831 1FE8  
                               u6207 0592                                 u4551 0505  
                               u4631 06D4                                 u4471 129A  
                               u4711 0B4E                                 u6071 03E9  
                               u4800 13F2                                 u5600 0E80  
                               u3840 08B6                                 u3920 1366  
                               u4560 050C                                 u4640 06E2  
                               u4480 13AB                                 u4720 0B5F  
                               u6080 040B                                 u4801 13F1  
                               u5601 0E7F                                 u3841 08B5  
                               u6217 0679                                 u4561 050B  
                               u4641 06E1                                 u4481 13AA  
                               u4721 0B5E                                 u6081 040A  
                               u6137 01C8                                 u4810 17A3  
                               u5610 0E8D                                 u3930 124A  
                               u3770 1323                                 u4570 0522  
                               u4650 06EA                                 u4490 13B2  
                               u4730 0B7F                                 u6090 0418  
                               u6307 1417                                 u4395 165C  
                               u4811 17A2                                 u5611 0E8C  
                               u3915 0815                                 u3931 1249  
                               u3771 1322                                 u6227 06AC  
                               u4571 0521                                 u4651 06E9  
                               u4491 13B1                                 u4731 0B7E  
                               u6091 0417                                 u6147 0252  
                               u3764 11CD                                 u4820 17BC  
                               u5700 0EEC                                 u5620 0E95  
                               u3860 08CA                                 u4580 0546  
                               u4660 06F0                                 u4740 0B87  
                               _RCEN 048B                                 _RCIF 0065  
                               u6317 0C4F                                 u4821 17BB  
                               u5701 0EEB                                 u5621 0E94  
                               u6237 15D4                                 u3861 08C9  
                               u3925 1361                                 u4581 0545  
                               u4661 06EF                                 u4645 06DE  
                               u4741 0B86                                 u6157 035F  
                               u3950 13EA                                 u5550 1274  
                               u5710 0EF7                                 u5630 0E9C  
                               u4590 0558                                 u4670 070D  
                               u4750 0B94                                 u3951 13E9  
                               u6327 0D9B                                 u5551 1273  
                               u5711 0EF6                                 u5631 0E9B  
                               u5615 0E89                                 u6247 15E3  
                               u3855 08BB                                 u4591 0557  
                               u4671 070C                                 u4751 0B93  
                               u6167 0396                                 u5720 0F02  
                               u5640 0EA6                                 u3880 08E5  
                               u3960 1330                                 u5560 150B  
                               u4680 0712                                 u4760 0B9C  
                               u5800 00B0                                 u6337 0DC9  
                               u3785 154A                                 u5721 0F01  
                               u5641 0EA5                                 u6257 15F1  
                               u3881 08E4                                 u3961 132F  
                               u5561 150A                                 u4585 0542  
                               u4681 0711                                 u4761 0B9B  
                               u6177 03AE                                 u5801 00AF  
                               u5730 0F1C                                 u5650 0EAE  
                               u3970 134D                                 u5570 1512  
                               u4690 071D                                 u4770 0BA2  
                               u5810 00C3                                 u6347 0E03  
                               u3795 155A                                 u5731 0F1B  
                               u5651 0EAD                                 u6267 1607  
                               u3875 08CC                                 u3971 134C  
                               u5571 1511                                 u4691 071C  
                               u6187 0C04                                 u4771 0BA1  
                               u4755 0B90                                 u5811 00C2  
                               u5740 0F25                                 u5660 0EB8  
                               u5580 152B                                 u4780 0BC6  
                               u5900 019B                                 u5820 00D2  
                               u6357 1F98                                 u5741 0F23  
                               u5661 0EB7                                 u6277 1615  
                               u3885 08E1                                 u5581 152A  
                               u6197 0C14                                 u4781 0BC5  
                               u5901 019A                                 u5821 00D1  
                               u5750 0F26                                 u5670 0EC4  
                               u5590 0E13                                 u4790 0BD0  
                               u5910 01A1                                 u5830 00D7  
                               u6367 11D2                                 u5735 0F18  
                               u5671 0EC3                                 u5591 0E12  
                               u6287 1623                                 u3895 08F5  
                               u4791 0BCF                                 u5911 01A0  
                               u5831 00D6                                 u5760 0F36  
                               u5680 0ED7                                 u5920 01E4  
                               u5840 00DF                                 u6377 11DC  
                               u6297 17F9                                 u5761 0F35  
                               u5681 0ED6                                 u5921 01E3  
                               u5841 00DE                                 u5690 0EE1  
                               u5930 01EC                                 u5850 00EF  
                               u5770 0091                                 u5691 0EE0  
                               u5931 01EB                                 u5851 00EE  
                               u5771 0090                                 u5940 01F4  
                               u5860 011A                                 u5780 00A2  
                               u5941 01F3                                 u5925 01E0  
                               u5861 0119                                 u5781 00A1  
                               u5950 023D                                 u5870 0122  
                               u5790 00A8                                 u5951 023C  
                               u5871 0121                                 u5791 00A7  
                               u5960 0243                                 u5880 015D  
                               u5961 0242                                 u5881 015C  
                               u5970 025C                                 u5890 0164  
                               u5971 025B                                 u5891 0163  
                               u5985 028D                                 u5995 02C9  
                               _TMR0 0001                                 _SPEN 00C7  
                               _TXIF 0064                                 _R_nW 04A2  
                               _gear 00D7                                 _main 0040  
                               _menu 00E3                                 _time 00C4  
                               btemp 007E                                 _puts 1225  
                               start 000E                     print_log@log_pos 0037  
                  ___bmul@multiplier 0076                       clcd_write@byte 0076  
                     clcd_write@mode 0073                        _i2c_rep_start 1F6A  
                              ??_isr 0070                         ?_init_ds1307 0070  
                    __end_of___aldiv 0B46                      __end_of___almod 0A10  
                              ?_main 0070                         ?_read_ds1307 0070  
                              _ACKEN 048C                                _ACKDT 048D  
                     ??_display_time 0079                      __end_of___awdiv 07F5  
                              STR_10 1168                                STR_11 1168  
                              STR_20 110C                                STR_12 10CC  
                              STR_21 10DD                                STR_13 115A  
                              STR_22 10FD                                STR_30 1011  
                              STR_14 1135                                STR_31 1000  
                              STR_23 10CC                                STR_15 1128  
                              STR_40 10CC                                STR_32 1044  
                              STR_24 10AA                                STR_16 1151  
                              STR_33 1148                                STR_25 1000  
                              STR_17 111A                                STR_34 10CC  
                              STR_18 1099                                STR_26 1044  
                              STR_35 113F                                STR_19 10ED  
                              STR_27 1077                                STR_36 1066  
                              STR_28 1022                      __end_of___awmod 1682  
                              STR_37 1022                                STR_29 1033  
                              STR_38 1055                                STR_39 1088  
                              ?_puts 0074                      __end_of___lldiv 090C  
                        i2c_read@ack 0073                      ___awdiv@divisor 0073  
                    __end_of___lwdiv 14E5                                i1l551 089B  
                       ?_init_config 0070                      ___awdiv@counter 0020  
                              _RCREG 001A                                _SPBRG 0099  
                              _PORTB 0006                                _PORTD 0008  
                              _SSPM3 00A3                                _TRISB 0086  
                              _TRISD 0088                                _SSPEN 00A5  
                              _TXREG 0019                         ?_init_timer2 0070  
                       main@menu_pos 0190                                _nDONE 00FA  
               __end_of_clear_screen 1F9E                                _login 04AE  
                              _press 005D                    login@saved_passwd 003B  
                    _change_password 0C1C                                pclath 000A  
               login_menu@reset_flag 003A                                puts@s 0074  
                    __end_of_putchar 1F80                                status 0003  
                              wtemp0 007E                      __end_of_strncmp 145C  
                    __end_of_strncpy 152C                     init_ds1307@dummy 0025  
                    __initialization 0011                       ?_i2c_rep_start 0070  
                       __end_of_main 04AE                      ??_get_saved_log 0077  
                       __end_of_puts 124B                     __end_of_i2c_read 1203  
                   __end_of_i2c_stop 0809                        ?_download_log 0070  
                             ??_main 0046                               ??_puts 0076  
                  edit_time@new_time 00BD                               _ADRESH 001E  
                             ?_login 0037                               _ADRESL 009E  
                   ___awdiv@dividend 0075                         i2c_read@data 0074  
                             i1l4011 086B                               i1l4003 083D  
                             i1l4013 0879                               i1l4005 0843  
                             i1l4015 0883                               i1l4007 0854  
                             i1l4017 0890                               i1l4009 0856  
                             i1l4019 0898                               u370_20 0883  
                             u370_21 0882                         _write_ds1307 1203  
                             u371_20 0890                               u371_21 088F  
                             u371_25 088C                               u367_20 0843  
                             u367_21 0842                               u368_20 0854  
                             u368_21 0853                               u369_20 086B  
                             u369_21 086A                               u369_23 0867  
                             _TMR0IE 005D                               _TMR2IE 0461  
                             _TMR2IF 0061                               _TMR2ON 0092  
                             _SSPADD 0093                               _TRISE1 0449  
                             _TRISE2 044A                               _SSPBUF 0013  
                      login_menu@key 0037                 edit_time@blink_delay 0057  
        __end_of_init_digital_keypad 1F47                     __end_of_get_time 1579  
                             ___bmul 1FD6              _init_display_controller 15D0  
                          ??___aldiv 0076                            ??___almod 0073  
                          ??___awdiv 0077                            ??___awmod 0077  
                          ??___lldiv 0073            change_password@reset_flag 003B  
       ??_ext_eeprom_24C02_str_write 0078                            ??___lwdiv 0077  
                   __end_of_init_i2c 083D                     __end_of_init_adc 1F4E  
                   __end_of_read_adc 1FB0                               _new_hr 0065  
                     ??_download_log 0023                     ___awdiv@quotient 0022  
                    ___awmod@divisor 0073                      ___awmod@counter 0020  
                             main@gr 0195                               _strcmp 1386  
                             _strcpy 124B         ?_ext_eeprom_24C02_byte_write 0074  
                       __pdataCOMMON 007A                               login@i 0064  
                             login@j 0044              __end_of_change_password 0E0A  
                             saved_w 007E                     __end_of_view_log 0C1C  
                          ??_putchar 0073             ??_display_default_screen 0038  
                          ??_strncmp 0076                            ??_strncpy 0020  
            __end_of__initialization 003C                      login@new_passwd 00D3  
               __end_of_display_time 179C                      ??_i2c_rep_start 0073  
                ___bmul@multiplicand 0073                       __pcstackCOMMON 0070  
                       __pidataBANK0 117D                         __pidataBANK1 118B  
                      __end_of_login 06B3                      login@reset_flag 0043  
                  __end_of_i2c_start 1F5F                    __end_of_i2c_write 1F6A  
      ??_ext_eeprom_24C02_byte_write 0075                    _i2c_wait_for_idle 1F80  
        __end_of_display_log_in_uart 0989                              ??_login 0038  
                 ?_i2c_wait_for_idle 0070                           __pbssBANK0 004D  
                         __pbssBANK1 00A0                            ?_i2c_read 0070  
                          ?_i2c_stop 0070            ??_init_display_controller 0077  
                         _clcd_print 13B8                  ??_i2c_wait_for_idle 0073  
                         _clcd_putch 1FB0                           _clcd_write 11C2  
              _ext_eeprom_24C02_read 12CA                           __pmaintext 0040  
                    read_ds1307@addr 0075                        _log_car_event 1682  
                    read_ds1307@data 0076                         _clear_screen 1F8D  
                            ?___bmul 0073                       get_saved_log@i 0022  
                         __pintentry 0004                              _ACKSTAT 048E  
                            ?_strcmp 0073                              ?_strcpy 0073  
                            _T2CKPS0 0090                              _T2CKPS1 0091  
        __end_of_read_digital_keypad 129F                     ?_change_password 0037  
          __end_of_i2c_wait_for_idle 1F8D                         init_i2c@baud 0028  
                            _SSPCON2 0091                            ?_get_time 0070  
                         __stringtab 1800                           ??_i2c_read 0073  
                         ??_i2c_stop 0073                            ?_init_i2c 0028  
               __end_of_download_log 1800                            ?_init_adc 0070  
                          ?_read_adc 0073                    __end_of_clear_log 141E  
                  __end_of_edit_time 1000                       ?_log_car_event 0024  
                         _login$1140 003F                   change_password@key 0037  
 __end_of_ext_eeprom_24C02_str_write 1324           _ext_eeprom_24C02_str_write 12F5  
                            ___aldiv 0AA9                              ___almod 0989  
          ext_eeprom_24C02_read@addr 0075            ext_eeprom_24C02_read@data 0076  
                            ___awdiv 078C                              ___awmod 1627  
                          ?_view_log 0038                              ___lldiv 08A4  
                            ___lwdiv 149F                     main@control_flag 0199  
                            __ptext1 0B46                              __ptext2 0A10  
                            __ptext3 1386                              __ptext4 1275  
                            __ptext5 1F9E                              __ptext6 06B3  
                            __ptext7 04AE                              __ptext8 0989  
                            __ptext9 0AA9                     login@attempt_rem 0063  
    __end_of_init_display_controller 1627                    __end_of_init_clcd 0800  
                  __end_of_init_uart 1386                     ___awmod@dividend 0075  
                            _new_min 0066                              _new_sec 0067  
                   ___aldiv@dividend 002C                       main@reset_flag 0197  
                  __end_of_log_event 1354                           _login_menu 06B3  
                            _pre_key 0069                              _putchar 1F75  
                            main@key 0198                              clrloop0 1F4F  
                         ??_get_time 0077                              _strncmp 141E  
                            _strncpy 14E5                 end_of_initialization 003C  
                         ??_init_i2c 002C                           ??_init_adc 0073  
                     main@return_val 0191                           ??_read_adc 0075  
                         _saved_time 00A0               ?_ext_eeprom_24C02_read 0070  
                        ?_clcd_print 0020                          ?_clcd_putch 0036  
                    ___lldiv@divisor 0020                           edit_time@i 005B  
                         edit_time@j 0059                          ?_clcd_write 0073  
                    ___lldiv@counter 0078                    __end_of_print_log 0AA9  
                   ___aldiv@quotient 0032                           ??_view_log 0039  
             _display_default_screen 1579                         __pstringtext 1000  
              __end_of_get_saved_log 173A                              strcmp@r 0077  
                       _display_time 173A                        i2c_write@data 0073  
      ext_eeprom_24C02_str_write@str 0076                        clcd_print@str 0020  
                    ??_log_car_event 0025                       __end_of___bmul 1FEB  
                      __pidataCOMMON 0003                          view_log@key 0038  
                     __end_of_strcmp 13B8                       __end_of_strcpy 1275  
                start_initialization 0011                          ?_login_menu 0037  
                          _i2c_start 1F56                          __end_of_isr 08A4  
                          _i2c_write 1F5F       ext_eeprom_24C02_str_write@addr 0020  
               get_saved_log@log_pos 0020                  edit_time@blink_flag 0055  
                        putchar@data 0073                     change_password@i 0053  
                   change_password@j 0051                __end_of_i2c_rep_start 1F75  
               change_password@i_442 003C                             ??___bmul 0074  
                         init_fetch0 1FC3                        ??_init_ds1307 0079  
                        __pdataBANK0 006A                          __pdataBANK1 00D7  
                      ??_read_ds1307 0075                         _download_log 179C  
                           ??_strcmp 0075                             ??_strcpy 0077  
                      ??_init_config 0079                        ??_init_timer2 0073  
                        __pbssCOMMON 0079                            ___latbits 0002  
                      __pcstackBANK0 0020                        __pcstackBANK3 0190  
                         ?_i2c_start 0070                           ?_i2c_write 0070  
                   ___lwdiv@dividend 0022                            _clear_log 13EB  
                          _edit_time 0E0A                             ?___aldiv 0028  
                           ?___almod 0020          ?_ext_eeprom_24C02_str_write 0076  
                           ?___awdiv 0073                             ?___awmod 0073  
                           ?___lldiv 0020                             ?___lwdiv 0020  
                          _clock_reg 00AD                     ___almod@dividend 0024  
                          __pstrings 1800  __end_of_ext_eeprom_24C02_byte_write 11C2  
        _ext_eeprom_24C02_byte_write 11A4                  __end_of_init_ds1307 2000  
                   _pre_control_flag 0068                    get_saved_log@addr 0021  
                read_adc@adc_reg_val 0075                  __end_of_read_ds1307 12CA  
                   ___lwdiv@quotient 0025                             ?_putchar 0070  
                          _init_clcd 07F5                  __end_of_init_config 149F  
                          _init_uart 1354                             ?_strncmp 0073  
                           ?_strncpy 0073                            _log_count 0079  
                          _log_event 1324                        ?_write_ds1307 0078  
            ??_ext_eeprom_24C02_read 0075                  __end_of_init_timer2 118B  
           ?_init_display_controller 0070                      ___aldiv@divisor 0028  
                edit_time@reset_flag 003A                    interrupt_function 0004  
                    ___aldiv@counter 0030                            clear_ram0 1F4E  
                        strncpy@from 0073                          strncpy@size 0075  
                       ??_clcd_print 0077                         ??_clcd_putch 0078  
                       ??_clcd_write 0074              ?_display_default_screen 0037  
                         ?_clear_log 0070                           ?_edit_time 0037  
                          main@F1020 00ED                            _print_log 0A10  
                      download_log@i 0078                          __stringbase 1812  
                          main@event 0192                            main@speed 0196  
                        ??_i2c_start 0073                   __end_of_clcd_print 13EB  
                        ??_i2c_write 0073                   __end_of_clcd_putch 1FC3  
                 __end_of_clcd_write 11E2                           ?_init_clcd 0070  
                         ?_init_uart 0028                       ??_write_ds1307 0079  
                         ?_log_event 0070                  _init_digital_keypad 1F41  
                           _i2c_read 11E2                             _i2c_stop 0800  
     __end_of_display_default_screen 15D0                 ?_init_digital_keypad 0070  
                        _init_ds1307 1FEB                           ?_print_log 0070  
                 __end_of__stringtab 1812                          _read_ds1307 129F  
                        _init_config 145C                         ??_login_menu 0038  
                        _init_timer2 117E                      ___lwdiv@divisor 0020  
                    ___lwdiv@counter 0024                             __ptext10 1682  
                           __ptext11 14E5                             __ptext20 1FEB  
                           __ptext12 1324                             __ptext21 1203  
                           __ptext13 12F5                             __ptext30 12CA  
                           __ptext22 1F41                             __ptext14 145C  
                           __ptext31 1FD6                             __ptext23 07F5  
                           __ptext15 1225                             __ptext40 1627  
                           __ptext32 090C                             __ptext24 15D0  
                           __ptext16 1354                             __ptext41 078C  
                           __ptext33 1F75                             __ptext25 1F47  
                           __ptext17 117E                             __ptext50 1F8D  
                           __ptext42 13EB                             __ptext34 1579  
                           __ptext26 0E0A                             __ptext18 0809  
                           __ptext51 1FB0                             __ptext43 0C1C  
                           __ptext35 173A                             __ptext27 124B  
                           __ptext19 08A4                             __ptext52 13B8  
                           __ptext44 141E                             __ptext36 152C  
                           __ptext28 179C                             __ptext53 11C2  
                           __ptext45 11A4                             __ptext37 129F  
                           __ptext29 16DD                             __ptext54 149F  
                           __ptext46 1F5F                             __ptext38 1F6A  
                           __ptext55 083D                             __ptext47 0800  
                           __ptext39 11E2                             __ptext48 1F56  
                           __ptext49 1F80      ext_eeprom_24C02_byte_write@addr 0075  
    ext_eeprom_24C02_byte_write@data 0074                             _get_time 152C  
                    ___almod@divisor 0020                      ___almod@counter 0074  
                         strcpy@from 0075                         edit_time@key 0037  
                           _init_i2c 0809                             _init_adc 1F47  
                           _read_adc 1F9E              read_digital_keypad@mode 0074  
            read_digital_keypad@once 006A                           strncmp@len 0074  
              __end_of_log_car_event 16DD                          ??_clear_log 0023  
                  ??_change_password 0038                        ?_clear_screen 0070  
                        ??_edit_time 0038                   __end_of_login_menu 078C  
                           _view_log 0B46                      view_log@log_pos 0061  
              ??_init_digital_keypad 0073                  _display_log_in_uart 090C  
        change_password@new_passwd_1 00CF          change_password@new_passwd_2 00CB  
                           isr@count 00B0                             init_ram0 1FC7  
                        ??_init_clcd 0079                          ??_init_uart 002C  
                           login@key 0037                          _saved_event 00A7  
                        ??_log_event 0021                          _saved_speed 00AA  
                           intlevel1 0000                        init_uart@baud 0028  
                   ___lldiv@dividend 0024                 ?_display_log_in_uart 0070  
                          strncmp@s1 0078                            strncmp@s2 0073  
                          stringcode 180A                       ??_clear_screen 0077  
         display_log_in_uart@log_pos 0074                            strncpy@cp 0078  
                          strncpy@to 0077                          ??_print_log 0079  
               __end_of_write_ds1307 1225                  _read_digital_keypad 1275  
                      _get_saved_log 16DD                             strcmp@s1 0078  
                           strcmp@s2 0073                     ___lldiv@quotient 0074  
                           strcpy@cp 0020                             strcpy@to 0073  
        display_default_screen@event 003A                             stringtab 1800  
                       ___aldiv@sign 0031          display_default_screen@speed 0037  
                        _return_time 005F                 ?_read_digital_keypad 0070  
                   write_ds1307@addr 0024                     write_ds1307@data 0078  
                       ___almod@sign 0075                ??_display_log_in_uart 0074  
      __end_of_ext_eeprom_24C02_read 12F5  
